
build/stm32eforth.elf:     file format elf32-littlearm


Disassembly of section .isr_vector:

08000000 <isr_vectors>:
 8000000:	20005000 	andcs	r5, r0, r0
 8000004:	08001f95 	stmdaeq	r0, {r0, r2, r4, r7, r8, r9, sl, fp, ip}
 8000008:	08001ec5 	stmdaeq	r0, {r0, r2, r6, r7, r9, sl, fp, ip}
 800000c:	08001ec5 	stmdaeq	r0, {r0, r2, r6, r7, r9, sl, fp, ip}
 8000010:	08001ec5 	stmdaeq	r0, {r0, r2, r6, r7, r9, sl, fp, ip}
 8000014:	08001ec5 	stmdaeq	r0, {r0, r2, r6, r7, r9, sl, fp, ip}
 8000018:	08001ec5 	stmdaeq	r0, {r0, r2, r6, r7, r9, sl, fp, ip}
	...
 800002c:	08001ec5 	stmdaeq	r0, {r0, r2, r6, r7, r9, sl, fp, ip}
 8000030:	08001ec5 	stmdaeq	r0, {r0, r2, r6, r7, r9, sl, fp, ip}
 8000034:	00000000 	andeq	r0, r0, r0
 8000038:	08001ec5 	stmdaeq	r0, {r0, r2, r6, r7, r9, sl, fp, ip}
 800003c:	08001ee5 	stmdaeq	r0, {r0, r2, r5, r6, r7, r9, sl, fp, ip}

08000040 <irq0>:
 8000040:	08001ec5 	stmdaeq	r0, {r0, r2, r6, r7, r9, sl, fp, ip}
 8000044:	08001ec5 	stmdaeq	r0, {r0, r2, r6, r7, r9, sl, fp, ip}
 8000048:	08001ec5 	stmdaeq	r0, {r0, r2, r6, r7, r9, sl, fp, ip}
 800004c:	08001ec5 	stmdaeq	r0, {r0, r2, r6, r7, r9, sl, fp, ip}
 8000050:	08001ec5 	stmdaeq	r0, {r0, r2, r6, r7, r9, sl, fp, ip}
 8000054:	08001ec5 	stmdaeq	r0, {r0, r2, r6, r7, r9, sl, fp, ip}
 8000058:	08001ec5 	stmdaeq	r0, {r0, r2, r6, r7, r9, sl, fp, ip}
 800005c:	08001ec5 	stmdaeq	r0, {r0, r2, r6, r7, r9, sl, fp, ip}
 8000060:	08001ec5 	stmdaeq	r0, {r0, r2, r6, r7, r9, sl, fp, ip}
 8000064:	08001ec5 	stmdaeq	r0, {r0, r2, r6, r7, r9, sl, fp, ip}
 8000068:	08001ec5 	stmdaeq	r0, {r0, r2, r6, r7, r9, sl, fp, ip}
 800006c:	08001ec5 	stmdaeq	r0, {r0, r2, r6, r7, r9, sl, fp, ip}
 8000070:	08001ec5 	stmdaeq	r0, {r0, r2, r6, r7, r9, sl, fp, ip}
 8000074:	08001ec5 	stmdaeq	r0, {r0, r2, r6, r7, r9, sl, fp, ip}
 8000078:	08001ec5 	stmdaeq	r0, {r0, r2, r6, r7, r9, sl, fp, ip}
 800007c:	08001ec5 	stmdaeq	r0, {r0, r2, r6, r7, r9, sl, fp, ip}
 8000080:	08001ec5 	stmdaeq	r0, {r0, r2, r6, r7, r9, sl, fp, ip}
 8000084:	08001ec5 	stmdaeq	r0, {r0, r2, r6, r7, r9, sl, fp, ip}
 8000088:	08001ec5 	stmdaeq	r0, {r0, r2, r6, r7, r9, sl, fp, ip}
 800008c:	08001ec5 	stmdaeq	r0, {r0, r2, r6, r7, r9, sl, fp, ip}
 8000090:	08001ec5 	stmdaeq	r0, {r0, r2, r6, r7, r9, sl, fp, ip}
 8000094:	08001ec5 	stmdaeq	r0, {r0, r2, r6, r7, r9, sl, fp, ip}
 8000098:	08001ec5 	stmdaeq	r0, {r0, r2, r6, r7, r9, sl, fp, ip}
 800009c:	08001ec5 	stmdaeq	r0, {r0, r2, r6, r7, r9, sl, fp, ip}
 80000a0:	08001ec5 	stmdaeq	r0, {r0, r2, r6, r7, r9, sl, fp, ip}
 80000a4:	08001ec5 	stmdaeq	r0, {r0, r2, r6, r7, r9, sl, fp, ip}
 80000a8:	08001ec5 	stmdaeq	r0, {r0, r2, r6, r7, r9, sl, fp, ip}
 80000ac:	08001ec5 	stmdaeq	r0, {r0, r2, r6, r7, r9, sl, fp, ip}
 80000b0:	08001ec5 	stmdaeq	r0, {r0, r2, r6, r7, r9, sl, fp, ip}
 80000b4:	08001ec5 	stmdaeq	r0, {r0, r2, r6, r7, r9, sl, fp, ip}
 80000b8:	08001ec5 	stmdaeq	r0, {r0, r2, r6, r7, r9, sl, fp, ip}
 80000bc:	08001ec5 	stmdaeq	r0, {r0, r2, r6, r7, r9, sl, fp, ip}
 80000c0:	08001ec5 	stmdaeq	r0, {r0, r2, r6, r7, r9, sl, fp, ip}
 80000c4:	08001ec5 	stmdaeq	r0, {r0, r2, r6, r7, r9, sl, fp, ip}
 80000c8:	08001ec5 	stmdaeq	r0, {r0, r2, r6, r7, r9, sl, fp, ip}
 80000cc:	08001ec5 	stmdaeq	r0, {r0, r2, r6, r7, r9, sl, fp, ip}
 80000d0:	08001ec5 	stmdaeq	r0, {r0, r2, r6, r7, r9, sl, fp, ip}
 80000d4:	08001f01 	stmdaeq	r0, {r0, r8, r9, sl, fp, ip}
 80000d8:	08001ec5 	stmdaeq	r0, {r0, r2, r6, r7, r9, sl, fp, ip}
 80000dc:	08001ec5 	stmdaeq	r0, {r0, r2, r6, r7, r9, sl, fp, ip}
 80000e0:	08001ec5 	stmdaeq	r0, {r0, r2, r6, r7, r9, sl, fp, ip}
 80000e4:	08001ec5 	stmdaeq	r0, {r0, r2, r6, r7, r9, sl, fp, ip}
 80000e8:	08001ec5 	stmdaeq	r0, {r0, r2, r6, r7, r9, sl, fp, ip}
 80000ec:	08001ec5 	stmdaeq	r0, {r0, r2, r6, r7, r9, sl, fp, ip}
 80000f0:	08001ec5 	stmdaeq	r0, {r0, r2, r6, r7, r9, sl, fp, ip}
 80000f4:	08001ec5 	stmdaeq	r0, {r0, r2, r6, r7, r9, sl, fp, ip}
 80000f8:	08001ec5 	stmdaeq	r0, {r0, r2, r6, r7, r9, sl, fp, ip}
 80000fc:	08001ec5 	stmdaeq	r0, {r0, r2, r6, r7, r9, sl, fp, ip}
 8000100:	08001ec5 	stmdaeq	r0, {r0, r2, r6, r7, r9, sl, fp, ip}
 8000104:	08001ec5 	stmdaeq	r0, {r0, r2, r6, r7, r9, sl, fp, ip}
 8000108:	08001ec5 	stmdaeq	r0, {r0, r2, r6, r7, r9, sl, fp, ip}
 800010c:	08001ec5 	stmdaeq	r0, {r0, r2, r6, r7, r9, sl, fp, ip}
 8000110:	08001ec5 	stmdaeq	r0, {r0, r2, r6, r7, r9, sl, fp, ip}
 8000114:	08001ec5 	stmdaeq	r0, {r0, r2, r6, r7, r9, sl, fp, ip}
 8000118:	08001ec5 	stmdaeq	r0, {r0, r2, r6, r7, r9, sl, fp, ip}
 800011c:	08001ec5 	stmdaeq	r0, {r0, r2, r6, r7, r9, sl, fp, ip}
 8000120:	08001ec5 	stmdaeq	r0, {r0, r2, r6, r7, r9, sl, fp, ip}
 8000124:	08001ec5 	stmdaeq	r0, {r0, r2, r6, r7, r9, sl, fp, ip}
 8000128:	08001ec5 	stmdaeq	r0, {r0, r2, r6, r7, r9, sl, fp, ip}
 800012c:	08001ec5 	stmdaeq	r0, {r0, r2, r6, r7, r9, sl, fp, ip}

Disassembly of section .text:

08000130 <UZERO>:
 8000130:	00000000 	andeq	r0, r0, r0
 8000134:	0000aa55 	andeq	sl, r0, r5, asr sl
	...
 8000140:	ffffffff 			; <UNDEFINED> instruction: 0xffffffff
 8000144:	47414d49 	strbmi	r4, [r1, -r9, asr #26]
 8000148:	20001df8 	strdcs	r1, [r0], -r8
 800014c:	0000000a 	andeq	r0, r0, sl
	...
 8000160:	20004e80 	andcs	r4, r0, r0, lsl #29
 8000164:	200012b0 			; <UNDEFINED> instruction: 0x200012b0
 8000168:	00000000 	andeq	r0, r0, r0
 800016c:	080031d4 	stmdaeq	r0, {r2, r4, r6, r7, r8, ip, sp}
 8000170:	08001ec0 	stmdaeq	r0, {r6, r7, r9, sl, fp, ip}
 8000174:	20001ec0 	andcs	r1, r0, r0, asr #29
 8000178:	080031d4 	stmdaeq	r0, {r2, r4, r6, r7, r8, ip, sp}
	...

08000184 <ULAST>:
	...
 800019c:	f3af 8000 	nop.w

080001a0 <RSTIVEC>:
 80001a0:	f842 ed04 	str.w	lr, [r2, #-4]!
 80001a4:	f000 f889 	bl	80002ba <DOLIT>
 80001a8:	08001ec5 	stmdaeq	r0, {r0, r2, r6, r7, r9, sl, fp, ip}
 80001ac:	f000 f8e2 	bl	8000374 <SWAP>
 80001b0:	f000 f94e 	bl	8000450 <CELLS>
 80001b4:	f000 f881 	bl	80002ba <DOLIT>
 80001b8:	20000040 	andcs	r0, r0, r0, asr #32
 80001bc:	f000 f90e 	bl	80003dc <PLUS>
 80001c0:	f000 f8ac 	bl	800031c <STORE>
 80001c4:	f852 fb04 	ldr.w	pc, [r2], #4

080001c8 <SETIVEC>:
 80001c8:	f842 ed04 	str.w	lr, [r2, #-4]!
 80001cc:	f000 f8d2 	bl	8000374 <SWAP>
 80001d0:	f000 f920 	bl	8000414 <ONEP>
 80001d4:	f000 f8ce 	bl	8000374 <SWAP>
 80001d8:	f000 f93a 	bl	8000450 <CELLS>
 80001dc:	f000 f86d 	bl	80002ba <DOLIT>
 80001e0:	20000040 	andcs	r0, r0, r0, asr #32
 80001e4:	f000 f8fa 	bl	80003dc <PLUS>
 80001e8:	f000 f898 	bl	800031c <STORE>
 80001ec:	f852 fb04 	ldr.w	pc, [r2], #4

080001f0 <RAND>:
 80001f0:	f842 ed04 	str.w	lr, [r2, #-4]!
 80001f4:	f000 f9d2 	bl	800059c <SEED>
 80001f8:	f000 f896 	bl	8000328 <AT>
 80001fc:	ea4f 3445 	mov.w	r4, r5, lsl #13
 8000200:	ea85 0504 	eor.w	r5, r5, r4
 8000204:	ea4f 4455 	mov.w	r4, r5, lsr #17
 8000208:	ea85 0504 	eor.w	r5, r5, r4
 800020c:	ea4f 1445 	mov.w	r4, r5, lsl #5
 8000210:	ea85 0504 	eor.w	r5, r5, r4
 8000214:	f000 f8aa 	bl	800036c <DUPP>
 8000218:	f000 f9c0 	bl	800059c <SEED>
 800021c:	f000 f87e 	bl	800031c <STORE>
 8000220:	f000 f950 	bl	80004c4 <ABSS>
 8000224:	f000 f8a6 	bl	8000374 <SWAP>
 8000228:	f000 fa94 	bl	8000754 <MODD>
 800022c:	f852 fb04 	ldr.w	pc, [r2], #4

08000230 <PAUSE>:
 8000230:	f842 ed04 	str.w	lr, [r2, #-4]!
 8000234:	f000 f9be 	bl	80005b4 <TIMER>
 8000238:	f000 f870 	bl	800031c <STORE>

0800023c <PAUSE_LOOP>:
 800023c:	f000 f9ba 	bl	80005b4 <TIMER>
 8000240:	f000 f872 	bl	8000328 <AT>
 8000244:	f000 f856 	bl	80002f4 <QBRAN>
 8000248:	08000254 	stmdaeq	r0, {r2, r4, r6, r9}
 800024c:	f000 f85e 	bl	800030c <BRAN>
 8000250:	0800023c 	stmdaeq	r0, {r2, r3, r4, r5, r9}

08000254 <PAUSE_EXIT>:
 8000254:	f852 fb04 	ldr.w	pc, [r2], #4

08000258 <ULED>:
 8000258:	f44f 5600 	mov.w	r6, #8192	; 0x2000
 800025c:	f44f 5480 	mov.w	r4, #4096	; 0x1000
 8000260:	f2c4 0401 	movt	r4, #16385	; 0x4001
 8000264:	0028      	movs	r0, r5
 8000266:	f851 5b04 	ldr.w	r5, [r1], #4
 800026a:	d001      	beq.n	8000270 <ULED_OFF>
 800026c:	6166      	str	r6, [r4, #20]
 800026e:	4770      	bx	lr

08000270 <ULED_OFF>:
 8000270:	6126      	str	r6, [r4, #16]
 8000272:	4770      	bx	lr

08000274 <QKEY>:
 8000274:	f841 5d04 	str.w	r5, [r1, #-4]!
 8000278:	6e5f      	ldr	r7, [r3, #100]	; 0x64
 800027a:	6e1e      	ldr	r6, [r3, #96]	; 0x60
 800027c:	ea96 0507 	eors.w	r5, r6, r7
 8000280:	d00c      	beq.n	800029c <QKEY+0x28>
 8000282:	f103 0750 	add.w	r7, r3, #80	; 0x50
 8000286:	4437      	add	r7, r6
 8000288:	783d      	ldrb	r5, [r7, #0]
 800028a:	f106 0601 	add.w	r6, r6, #1
 800028e:	f006 060f 	and.w	r6, r6, #15
 8000292:	661e      	str	r6, [r3, #96]	; 0x60
 8000294:	f841 5d04 	str.w	r5, [r1, #-4]!
 8000298:	f04f 35ff 	mov.w	r5, #4294967295	; 0xffffffff
 800029c:	4770      	bx	lr
 800029e:	bf00      	nop

080002a0 <EMIT>:
 80002a0:	f44f 5460 	mov.w	r4, #14336	; 0x3800
 80002a4:	f2c4 0401 	movt	r4, #16385	; 0x4001
 80002a8:	6826      	ldr	r6, [r4, #0]
 80002aa:	f016 0680 	ands.w	r6, r6, #128	; 0x80
 80002ae:	d0fb      	beq.n	80002a8 <EMIT+0x8>
 80002b0:	7125      	strb	r5, [r4, #4]
 80002b2:	f851 5b04 	ldr.w	r5, [r1], #4
 80002b6:	4770      	bx	lr

080002b8 <NOP>:
 80002b8:	4770      	bx	lr

080002ba <DOLIT>:
 80002ba:	f841 5d04 	str.w	r5, [r1, #-4]!
 80002be:	f02e 0e01 	bic.w	lr, lr, #1
 80002c2:	f85e 5b04 	ldr.w	r5, [lr], #4
 80002c6:	f04e 0e01 	orr.w	lr, lr, #1
 80002ca:	4770      	bx	lr

080002cc <EXECU>:
 80002cc:	f045 0401 	orr.w	r4, r5, #1
 80002d0:	f851 5b04 	ldr.w	r5, [r1], #4
 80002d4:	4720      	bx	r4

080002d6 <DONXT>:
 80002d6:	6814      	ldr	r4, [r2, #0]
 80002d8:	b924      	cbnz	r4, 80002e4 <NEXT1>
 80002da:	f102 0204 	add.w	r2, r2, #4
 80002de:	f10e 0e04 	add.w	lr, lr, #4
 80002e2:	4770      	bx	lr

080002e4 <NEXT1>:
 80002e4:	f1a4 0401 	sub.w	r4, r4, #1
 80002e8:	6014      	str	r4, [r2, #0]
 80002ea:	f85e ec01 	ldr.w	lr, [lr, #-1]
 80002ee:	f04e 0e01 	orr.w	lr, lr, #1
 80002f2:	4770      	bx	lr

080002f4 <QBRAN>:
 80002f4:	002c      	movs	r4, r5
 80002f6:	f851 5b04 	ldr.w	r5, [r1], #4
 80002fa:	d104      	bne.n	8000306 <QBRAN1>
 80002fc:	f85e ec01 	ldr.w	lr, [lr, #-1]
 8000300:	f04e 0e01 	orr.w	lr, lr, #1
 8000304:	4770      	bx	lr

08000306 <QBRAN1>:
 8000306:	f10e 0e04 	add.w	lr, lr, #4
 800030a:	4770      	bx	lr

0800030c <BRAN>:
 800030c:	f85e ec01 	ldr.w	lr, [lr, #-1]
 8000310:	f04e 0e01 	orr.w	lr, lr, #1
 8000314:	4770      	bx	lr
 8000316:	bf00      	nop

08000318 <EXIT>:
 8000318:	f852 fb04 	ldr.w	pc, [r2], #4

0800031c <STORE>:
 800031c:	f851 4b04 	ldr.w	r4, [r1], #4
 8000320:	602c      	str	r4, [r5, #0]
 8000322:	f851 5b04 	ldr.w	r5, [r1], #4
 8000326:	4770      	bx	lr

08000328 <AT>:
 8000328:	682d      	ldr	r5, [r5, #0]
 800032a:	4770      	bx	lr

0800032c <CSTOR>:
 800032c:	f851 4b04 	ldr.w	r4, [r1], #4
 8000330:	702c      	strb	r4, [r5, #0]
 8000332:	f851 5b04 	ldr.w	r5, [r1], #4
 8000336:	4770      	bx	lr

08000338 <CAT>:
 8000338:	782d      	ldrb	r5, [r5, #0]
 800033a:	4770      	bx	lr

0800033c <RFROM>:
 800033c:	f841 5d04 	str.w	r5, [r1, #-4]!
 8000340:	f852 5b04 	ldr.w	r5, [r2], #4
 8000344:	4770      	bx	lr
 8000346:	bf00      	nop

08000348 <RAT>:
 8000348:	f841 5d04 	str.w	r5, [r1, #-4]!
 800034c:	6815      	ldr	r5, [r2, #0]
 800034e:	4770      	bx	lr

08000350 <TOR>:
 8000350:	f842 5d04 	str.w	r5, [r2, #-4]!
 8000354:	f851 5b04 	ldr.w	r5, [r1], #4
 8000358:	4770      	bx	lr
 800035a:	bf00      	nop

0800035c <SPAT>:
 800035c:	f841 5d04 	str.w	r5, [r1, #-4]!
 8000360:	460d      	mov	r5, r1
 8000362:	4770      	bx	lr

08000364 <DROP>:
 8000364:	f851 5b04 	ldr.w	r5, [r1], #4
 8000368:	4770      	bx	lr
 800036a:	bf00      	nop

0800036c <DUPP>:
 800036c:	f841 5d04 	str.w	r5, [r1, #-4]!
 8000370:	4770      	bx	lr
 8000372:	bf00      	nop

08000374 <SWAP>:
 8000374:	680c      	ldr	r4, [r1, #0]
 8000376:	600d      	str	r5, [r1, #0]
 8000378:	4625      	mov	r5, r4
 800037a:	4770      	bx	lr

0800037c <OVER>:
 800037c:	f841 5d04 	str.w	r5, [r1, #-4]!
 8000380:	684d      	ldr	r5, [r1, #4]
 8000382:	4770      	bx	lr

08000384 <ZLESS>:
 8000384:	f04f 0400 	mov.w	r4, #0
 8000388:	eb04 0525 	add.w	r5, r4, r5, asr #32
 800038c:	4770      	bx	lr
 800038e:	bf00      	nop

08000390 <ANDD>:
 8000390:	f851 4b04 	ldr.w	r4, [r1], #4
 8000394:	ea05 0504 	and.w	r5, r5, r4
 8000398:	4770      	bx	lr
 800039a:	bf00      	nop

0800039c <ORR>:
 800039c:	f851 4b04 	ldr.w	r4, [r1], #4
 80003a0:	ea45 0504 	orr.w	r5, r5, r4
 80003a4:	4770      	bx	lr
 80003a6:	bf00      	nop

080003a8 <XORR>:
 80003a8:	f851 4b04 	ldr.w	r4, [r1], #4
 80003ac:	ea85 0504 	eor.w	r5, r5, r4
 80003b0:	4770      	bx	lr
 80003b2:	bf00      	nop

080003b4 <UPLUS>:
 80003b4:	680c      	ldr	r4, [r1, #0]
 80003b6:	1964      	adds	r4, r4, r5
 80003b8:	f04f 0500 	mov.w	r5, #0
 80003bc:	f145 0500 	adc.w	r5, r5, #0
 80003c0:	600c      	str	r4, [r1, #0]
 80003c2:	4770      	bx	lr

080003c4 <RSHIFT>:
 80003c4:	f851 4b04 	ldr.w	r4, [r1], #4
 80003c8:	fa44 f505 	asr.w	r5, r4, r5
 80003cc:	4770      	bx	lr
 80003ce:	bf00      	nop

080003d0 <LSHIFT>:
 80003d0:	f851 4b04 	ldr.w	r4, [r1], #4
 80003d4:	fa04 f505 	lsl.w	r5, r4, r5
 80003d8:	4770      	bx	lr
 80003da:	bf00      	nop

080003dc <PLUS>:
 80003dc:	f851 4b04 	ldr.w	r4, [r1], #4
 80003e0:	4425      	add	r5, r4
 80003e2:	4770      	bx	lr

080003e4 <SUBB>:
 80003e4:	f851 4b04 	ldr.w	r4, [r1], #4
 80003e8:	ebc5 0504 	rsb	r5, r5, r4
 80003ec:	4770      	bx	lr
 80003ee:	bf00      	nop

080003f0 <STAR>:
 80003f0:	f851 4b04 	ldr.w	r4, [r1], #4
 80003f4:	fb04 f505 	mul.w	r5, r4, r5
 80003f8:	4770      	bx	lr
 80003fa:	bf00      	nop

080003fc <UMSTA>:
 80003fc:	680c      	ldr	r4, [r1, #0]
 80003fe:	fba5 6704 	umull	r6, r7, r5, r4
 8000402:	600e      	str	r6, [r1, #0]
 8000404:	463d      	mov	r5, r7
 8000406:	4770      	bx	lr

08000408 <MSTAR>:
 8000408:	680c      	ldr	r4, [r1, #0]
 800040a:	fb85 6704 	smull	r6, r7, r5, r4
 800040e:	600e      	str	r6, [r1, #0]
 8000410:	463d      	mov	r5, r7
 8000412:	4770      	bx	lr

08000414 <ONEP>:
 8000414:	f105 0501 	add.w	r5, r5, #1
 8000418:	4770      	bx	lr
 800041a:	bf00      	nop

0800041c <ONEM>:
 800041c:	f1a5 0501 	sub.w	r5, r5, #1
 8000420:	4770      	bx	lr
 8000422:	bf00      	nop

08000424 <TWOP>:
 8000424:	f105 0502 	add.w	r5, r5, #2
 8000428:	4770      	bx	lr
 800042a:	bf00      	nop

0800042c <TWOM>:
 800042c:	f1a5 0502 	sub.w	r5, r5, #2
 8000430:	4770      	bx	lr
 8000432:	bf00      	nop

08000434 <CELLP>:
 8000434:	f105 0504 	add.w	r5, r5, #4
 8000438:	4770      	bx	lr
 800043a:	bf00      	nop

0800043c <CELLM>:
 800043c:	f1a5 0504 	sub.w	r5, r5, #4
 8000440:	4770      	bx	lr
 8000442:	bf00      	nop

08000444 <BLANK>:
 8000444:	f841 5d04 	str.w	r5, [r1, #-4]!
 8000448:	f04f 0520 	mov.w	r5, #32
 800044c:	4770      	bx	lr
 800044e:	bf00      	nop

08000450 <CELLS>:
 8000450:	ea4f 0585 	mov.w	r5, r5, lsl #2
 8000454:	4770      	bx	lr
 8000456:	bf00      	nop

08000458 <CELLSL>:
 8000458:	ea4f 05a5 	mov.w	r5, r5, asr #2
 800045c:	4770      	bx	lr
 800045e:	bf00      	nop

08000460 <TWOST>:
 8000460:	ea4f 0545 	mov.w	r5, r5, lsl #1
 8000464:	4770      	bx	lr
 8000466:	bf00      	nop

08000468 <TWOSL>:
 8000468:	ea4f 0565 	mov.w	r5, r5, asr #1
 800046c:	4770      	bx	lr
 800046e:	bf00      	nop

08000470 <QDUP>:
 8000470:	002c      	movs	r4, r5
 8000472:	bf18      	it	ne
 8000474:	f841 5d04 	strne.w	r5, [r1, #-4]!
 8000478:	4770      	bx	lr
 800047a:	bf00      	nop

0800047c <ROT>:
 800047c:	680c      	ldr	r4, [r1, #0]
 800047e:	600d      	str	r5, [r1, #0]
 8000480:	684d      	ldr	r5, [r1, #4]
 8000482:	604c      	str	r4, [r1, #4]
 8000484:	4770      	bx	lr
 8000486:	bf00      	nop

08000488 <DDROP>:
 8000488:	f851 5b04 	ldr.w	r5, [r1], #4
 800048c:	f851 5b04 	ldr.w	r5, [r1], #4
 8000490:	4770      	bx	lr
 8000492:	bf00      	nop

08000494 <DDUP>:
 8000494:	680c      	ldr	r4, [r1, #0]
 8000496:	f841 5d04 	str.w	r5, [r1, #-4]!
 800049a:	f841 4d04 	str.w	r4, [r1, #-4]!
 800049e:	4770      	bx	lr

080004a0 <DPLUS>:
 80004a0:	f851 4b04 	ldr.w	r4, [r1], #4
 80004a4:	f851 6b04 	ldr.w	r6, [r1], #4
 80004a8:	680f      	ldr	r7, [r1, #0]
 80004aa:	19e4      	adds	r4, r4, r7
 80004ac:	600c      	str	r4, [r1, #0]
 80004ae:	eb45 0506 	adc.w	r5, r5, r6
 80004b2:	4770      	bx	lr

080004b4 <INVER>:
 80004b4:	ea6f 0505 	mvn.w	r5, r5
 80004b8:	4770      	bx	lr
 80004ba:	bf00      	nop

080004bc <NEGAT>:
 80004bc:	f1c5 0500 	rsb	r5, r5, #0
 80004c0:	4770      	bx	lr
 80004c2:	bf00      	nop

080004c4 <ABSS>:
 80004c4:	f015 4f00 	tst.w	r5, #2147483648	; 0x80000000
 80004c8:	bf18      	it	ne
 80004ca:	426d      	negne	r5, r5
 80004cc:	4770      	bx	lr
 80004ce:	bf00      	nop

080004d0 <ZEQUAL>:
 80004d0:	b915      	cbnz	r5, 80004d8 <ZEQUAL+0x8>
 80004d2:	f04f 35ff 	mov.w	r5, #4294967295	; 0xffffffff
 80004d6:	4770      	bx	lr
 80004d8:	ea85 0505 	eor.w	r5, r5, r5
 80004dc:	4770      	bx	lr
 80004de:	bf00      	nop

080004e0 <EQUAL>:
 80004e0:	f851 4b04 	ldr.w	r4, [r1], #4
 80004e4:	42a5      	cmp	r5, r4
 80004e6:	bf0c      	ite	eq
 80004e8:	f06f 0500 	mvneq.w	r5, #0
 80004ec:	2500      	movne	r5, #0
 80004ee:	4770      	bx	lr

080004f0 <ULESS>:
 80004f0:	f851 4b04 	ldr.w	r4, [r1], #4
 80004f4:	42ac      	cmp	r4, r5
 80004f6:	bf34      	ite	cc
 80004f8:	f06f 0500 	mvncc.w	r5, #0
 80004fc:	2500      	movcs	r5, #0
 80004fe:	4770      	bx	lr

08000500 <LESS>:
 8000500:	f851 4b04 	ldr.w	r4, [r1], #4
 8000504:	42ac      	cmp	r4, r5
 8000506:	bfb4      	ite	lt
 8000508:	f06f 0500 	mvnlt.w	r5, #0
 800050c:	2500      	movge	r5, #0
 800050e:	4770      	bx	lr

08000510 <GREAT>:
 8000510:	f851 4b04 	ldr.w	r4, [r1], #4
 8000514:	42ac      	cmp	r4, r5
 8000516:	bfcc      	ite	gt
 8000518:	f06f 0500 	mvngt.w	r5, #0
 800051c:	2500      	movle	r5, #0
 800051e:	4770      	bx	lr

08000520 <MAX>:
 8000520:	f851 4b04 	ldr.w	r4, [r1], #4
 8000524:	42ac      	cmp	r4, r5
 8000526:	bfc8      	it	gt
 8000528:	4625      	movgt	r5, r4
 800052a:	4770      	bx	lr

0800052c <MIN>:
 800052c:	f851 4b04 	ldr.w	r4, [r1], #4
 8000530:	42ac      	cmp	r4, r5
 8000532:	bfb8      	it	lt
 8000534:	4625      	movlt	r5, r4
 8000536:	4770      	bx	lr

08000538 <PSTOR>:
 8000538:	f851 4b04 	ldr.w	r4, [r1], #4
 800053c:	682e      	ldr	r6, [r5, #0]
 800053e:	4426      	add	r6, r4
 8000540:	602e      	str	r6, [r5, #0]
 8000542:	f851 5b04 	ldr.w	r5, [r1], #4
 8000546:	4770      	bx	lr

08000548 <DSTOR>:
 8000548:	f851 4b04 	ldr.w	r4, [r1], #4
 800054c:	f851 6b04 	ldr.w	r6, [r1], #4
 8000550:	f845 4b04 	str.w	r4, [r5], #4
 8000554:	602e      	str	r6, [r5, #0]
 8000556:	f851 5b04 	ldr.w	r5, [r1], #4
 800055a:	4770      	bx	lr

0800055c <DAT>:
 800055c:	686c      	ldr	r4, [r5, #4]
 800055e:	f841 4d04 	str.w	r4, [r1, #-4]!
 8000562:	682d      	ldr	r5, [r5, #0]
 8000564:	4770      	bx	lr
 8000566:	bf00      	nop

08000568 <COUNT>:
 8000568:	f815 4b01 	ldrb.w	r4, [r5], #1
 800056c:	f841 5d04 	str.w	r5, [r1, #-4]!
 8000570:	4625      	mov	r5, r4
 8000572:	4770      	bx	lr

08000574 <DNEGA>:
 8000574:	680c      	ldr	r4, [r1, #0]
 8000576:	eba6 0606 	sub.w	r6, r6, r6
 800057a:	1b34      	subs	r4, r6, r4
 800057c:	eb66 0505 	sbc.w	r5, r6, r5
 8000580:	600c      	str	r4, [r1, #0]
 8000582:	4770      	bx	lr

08000584 <DOVAR>:
 8000584:	f841 5d04 	str.w	r5, [r1, #-4]!
 8000588:	f1ae 0501 	sub.w	r5, lr, #1
 800058c:	f852 fb04 	ldr.w	pc, [r2], #4

08000590 <DOCON>:
 8000590:	f841 5d04 	str.w	r5, [r1, #-4]!
 8000594:	f85e 5c01 	ldr.w	r5, [lr, #-1]
 8000598:	f852 fb04 	ldr.w	pc, [r2], #4

0800059c <SEED>:
 800059c:	f841 5d04 	str.w	r5, [r1, #-4]!
 80005a0:	f103 0504 	add.w	r5, r3, #4
 80005a4:	4770      	bx	lr
 80005a6:	bf00      	nop

080005a8 <MSEC>:
 80005a8:	f841 5d04 	str.w	r5, [r1, #-4]!
 80005ac:	f103 0508 	add.w	r5, r3, #8
 80005b0:	4770      	bx	lr
 80005b2:	bf00      	nop

080005b4 <TIMER>:
 80005b4:	f841 5d04 	str.w	r5, [r1, #-4]!
 80005b8:	f103 050c 	add.w	r5, r3, #12
 80005bc:	4770      	bx	lr
 80005be:	bf00      	nop

080005c0 <TBOOT>:
 80005c0:	f841 5d04 	str.w	r5, [r1, #-4]!
 80005c4:	f103 0518 	add.w	r5, r3, #24
 80005c8:	4770      	bx	lr
 80005ca:	bf00      	nop

080005cc <BASE>:
 80005cc:	f841 5d04 	str.w	r5, [r1, #-4]!
 80005d0:	f103 051c 	add.w	r5, r3, #28
 80005d4:	4770      	bx	lr

080005d6 <TEMP>:
 80005d6:	f841 5d04 	str.w	r5, [r1, #-4]!
 80005da:	f103 0520 	add.w	r5, r3, #32
 80005de:	4770      	bx	lr

080005e0 <SPAN>:
 80005e0:	f841 5d04 	str.w	r5, [r1, #-4]!
 80005e4:	f103 0524 	add.w	r5, r3, #36	; 0x24
 80005e8:	4770      	bx	lr
 80005ea:	bf00      	nop

080005ec <INN>:
 80005ec:	f841 5d04 	str.w	r5, [r1, #-4]!
 80005f0:	f103 0528 	add.w	r5, r3, #40	; 0x28
 80005f4:	4770      	bx	lr
 80005f6:	bf00      	nop

080005f8 <NTIB>:
 80005f8:	f841 5d04 	str.w	r5, [r1, #-4]!
 80005fc:	f103 052c 	add.w	r5, r3, #44	; 0x2c
 8000600:	4770      	bx	lr
 8000602:	bf00      	nop

08000604 <TEVAL>:
 8000604:	f841 5d04 	str.w	r5, [r1, #-4]!
 8000608:	f103 0534 	add.w	r5, r3, #52	; 0x34
 800060c:	4770      	bx	lr
 800060e:	bf00      	nop

08000610 <HLD>:
 8000610:	f841 5d04 	str.w	r5, [r1, #-4]!
 8000614:	f103 0538 	add.w	r5, r3, #56	; 0x38
 8000618:	4770      	bx	lr
 800061a:	bf00      	nop

0800061c <CNTXT>:
 800061c:	f841 5d04 	str.w	r5, [r1, #-4]!
 8000620:	f103 053c 	add.w	r5, r3, #60	; 0x3c
 8000624:	4770      	bx	lr
 8000626:	bf00      	nop

08000628 <CPP>:
 8000628:	f841 5d04 	str.w	r5, [r1, #-4]!
 800062c:	f103 0544 	add.w	r5, r3, #68	; 0x44
 8000630:	4770      	bx	lr
 8000632:	bf00      	nop

08000634 <FCP>:
 8000634:	f841 5d04 	str.w	r5, [r1, #-4]!
 8000638:	f103 0540 	add.w	r5, r3, #64	; 0x40
 800063c:	4770      	bx	lr
 800063e:	bf00      	nop

08000640 <LAST>:
 8000640:	f841 5d04 	str.w	r5, [r1, #-4]!
 8000644:	f103 0548 	add.w	r5, r3, #72	; 0x48
 8000648:	4770      	bx	lr
 800064a:	bf00      	nop

0800064c <USER_BEGIN>:
 800064c:	f841 5d04 	str.w	r5, [r1, #-4]!
 8000650:	4d00      	ldr	r5, [pc, #0]	; (8000654 <USR_BGN_ADR>)
 8000652:	4770      	bx	lr

08000654 <USR_BGN_ADR>:
 8000654:	20001ec0 	andcs	r1, r0, r0, asr #29

08000658 <USER_END>:
 8000658:	f841 5d04 	str.w	r5, [r1, #-4]!
 800065c:	f44f 459c 	mov.w	r5, #19968	; 0x4e00
 8000660:	f2c2 0500 	movt	r5, #8192	; 0x2000
 8000664:	4770      	bx	lr
 8000666:	bf00      	nop

08000668 <IMG_ADR>:
 8000668:	f841 5d04 	str.w	r5, [r1, #-4]!
 800066c:	4d00      	ldr	r5, [pc, #0]	; (8000670 <USR_IMG_ADR>)
 800066e:	4770      	bx	lr

08000670 <USR_IMG_ADR>:
 8000670:	08003400 	stmdaeq	r0, {sl, ip, sp}

08000674 <IMG_SIGN>:
 8000674:	f841 5d04 	str.w	r5, [r1, #-4]!
 8000678:	f103 0514 	add.w	r5, r3, #20
 800067c:	4770      	bx	lr
 800067e:	bf00      	nop

08000680 <WITHI>:
 8000680:	f842 ed04 	str.w	lr, [r2, #-4]!
 8000684:	f7ff fe7a 	bl	800037c <OVER>
 8000688:	f7ff feac 	bl	80003e4 <SUBB>
 800068c:	f7ff fe60 	bl	8000350 <TOR>
 8000690:	f7ff fea8 	bl	80003e4 <SUBB>
 8000694:	f7ff fe52 	bl	800033c <RFROM>
 8000698:	f7ff ff2a 	bl	80004f0 <ULESS>
 800069c:	f852 fb04 	ldr.w	pc, [r2], #4

080006a0 <UMMOD>:
 80006a0:	f04f 0701 	mov.w	r7, #1
 80006a4:	f851 4b04 	ldr.w	r4, [r1], #4
 80006a8:	680e      	ldr	r6, [r1, #0]

080006aa <UMMOD0>:
 80006aa:	19b6      	adds	r6, r6, r6
 80006ac:	4164      	adcs	r4, r4
 80006ae:	d304      	bcc.n	80006ba <UMMOD1>
 80006b0:	eba4 0405 	sub.w	r4, r4, r5
 80006b4:	f106 0601 	add.w	r6, r6, #1
 80006b8:	e004      	b.n	80006c4 <UMMOD2>

080006ba <UMMOD1>:
 80006ba:	1b64      	subs	r4, r4, r5
 80006bc:	bf28      	it	cs
 80006be:	3601      	addcs	r6, #1
 80006c0:	d200      	bcs.n	80006c4 <UMMOD2>
 80006c2:	442c      	add	r4, r5

080006c4 <UMMOD2>:
 80006c4:	19ff      	adds	r7, r7, r7
 80006c6:	d3f0      	bcc.n	80006aa <UMMOD0>
 80006c8:	4635      	mov	r5, r6
 80006ca:	600c      	str	r4, [r1, #0]
 80006cc:	4770      	bx	lr
 80006ce:	bf00      	nop

080006d0 <MSMOD>:
 80006d0:	f842 ed04 	str.w	lr, [r2, #-4]!
 80006d4:	f7ff fe4a 	bl	800036c <DUPP>
 80006d8:	f7ff fe54 	bl	8000384 <ZLESS>
 80006dc:	f7ff fe46 	bl	800036c <DUPP>
 80006e0:	f7ff fe36 	bl	8000350 <TOR>
 80006e4:	f7ff fe06 	bl	80002f4 <QBRAN>
 80006e8:	200006fc 	strdcs	r0, [r0], -ip
 80006ec:	f7ff fee6 	bl	80004bc <NEGAT>
 80006f0:	f7ff fe2e 	bl	8000350 <TOR>
 80006f4:	f7ff ff3e 	bl	8000574 <DNEGA>
 80006f8:	f7ff fe20 	bl	800033c <RFROM>

080006fc <MMOD1>:
 80006fc:	f7ff fe28 	bl	8000350 <TOR>
 8000700:	f7ff fe34 	bl	800036c <DUPP>
 8000704:	f7ff fe3e 	bl	8000384 <ZLESS>
 8000708:	f7ff fdf4 	bl	80002f4 <QBRAN>
 800070c:	20000718 	andcs	r0, r0, r8, lsl r7
 8000710:	f7ff fe1a 	bl	8000348 <RAT>
 8000714:	f7ff fe62 	bl	80003dc <PLUS>

08000718 <MMOD2>:
 8000718:	f7ff fe10 	bl	800033c <RFROM>
 800071c:	f7ff ffc0 	bl	80006a0 <UMMOD>
 8000720:	f7ff fe0c 	bl	800033c <RFROM>
 8000724:	f7ff fde6 	bl	80002f4 <QBRAN>
 8000728:	20000738 	andcs	r0, r0, r8, lsr r7
 800072c:	f7ff fe22 	bl	8000374 <SWAP>
 8000730:	f7ff fec4 	bl	80004bc <NEGAT>
 8000734:	f7ff fe1e 	bl	8000374 <SWAP>

08000738 <MMOD3>:
 8000738:	f852 fb04 	ldr.w	pc, [r2], #4

0800073c <SLMOD>:
 800073c:	f842 ed04 	str.w	lr, [r2, #-4]!
 8000740:	f7ff fe1c 	bl	800037c <OVER>
 8000744:	f7ff fe1e 	bl	8000384 <ZLESS>
 8000748:	f7ff fe14 	bl	8000374 <SWAP>
 800074c:	f7ff ffc0 	bl	80006d0 <MSMOD>
 8000750:	f852 fb04 	ldr.w	pc, [r2], #4

08000754 <MODD>:
 8000754:	f842 ed04 	str.w	lr, [r2, #-4]!
 8000758:	f7ff fff0 	bl	800073c <SLMOD>
 800075c:	f7ff fe02 	bl	8000364 <DROP>
 8000760:	f852 fb04 	ldr.w	pc, [r2], #4

08000764 <SLASH>:
 8000764:	f842 ed04 	str.w	lr, [r2, #-4]!
 8000768:	f7ff ffe8 	bl	800073c <SLMOD>
 800076c:	f7ff fe02 	bl	8000374 <SWAP>
 8000770:	f7ff fdf8 	bl	8000364 <DROP>
 8000774:	f852 fb04 	ldr.w	pc, [r2], #4

08000778 <SSMOD>:
 8000778:	f842 ed04 	str.w	lr, [r2, #-4]!
 800077c:	f7ff fde8 	bl	8000350 <TOR>
 8000780:	f7ff fe42 	bl	8000408 <MSTAR>
 8000784:	f7ff fdda 	bl	800033c <RFROM>
 8000788:	f7ff ffa2 	bl	80006d0 <MSMOD>
 800078c:	f852 fb04 	ldr.w	pc, [r2], #4

08000790 <STASL>:
 8000790:	f842 ed04 	str.w	lr, [r2, #-4]!
 8000794:	f7ff fff0 	bl	8000778 <SSMOD>
 8000798:	f7ff fdec 	bl	8000374 <SWAP>
 800079c:	f7ff fde2 	bl	8000364 <DROP>
 80007a0:	f852 fb04 	ldr.w	pc, [r2], #4

080007a4 <ALGND>:
 80007a4:	f105 0503 	add.w	r5, r5, #3
 80007a8:	f06f 0403 	mvn.w	r4, #3
 80007ac:	ea05 0504 	and.w	r5, r5, r4
 80007b0:	4770      	bx	lr
 80007b2:	bf00      	nop

080007b4 <TCHAR>:
 80007b4:	f842 ed04 	str.w	lr, [r2, #-4]!
 80007b8:	f7ff fd7f 	bl	80002ba <DOLIT>
 80007bc:	0000007f 	andeq	r0, r0, pc, ror r0
 80007c0:	f7ff fde6 	bl	8000390 <ANDD>
 80007c4:	f7ff fdd2 	bl	800036c <DUPP>
 80007c8:	f7ff fe3c 	bl	8000444 <BLANK>
 80007cc:	f7ff fd75 	bl	80002ba <DOLIT>
 80007d0:	0000007f 	andeq	r0, r0, pc, ror r0
 80007d4:	f7ff ff54 	bl	8000680 <WITHI>
 80007d8:	f7ff fe6c 	bl	80004b4 <INVER>
 80007dc:	f7ff fd8a 	bl	80002f4 <QBRAN>
 80007e0:	200007f0 	strdcs	r0, [r0], -r0	; <UNPREDICTABLE>
 80007e4:	f7ff fdbe 	bl	8000364 <DROP>
 80007e8:	f7ff fd67 	bl	80002ba <DOLIT>
 80007ec:	0000005f 	andeq	r0, r0, pc, asr r0

080007f0 <TCHA1>:
 80007f0:	f852 fb04 	ldr.w	pc, [r2], #4

080007f4 <DEPTH>:
 80007f4:	f44f 469d 	mov.w	r6, #20096	; 0x4e80
 80007f8:	f2c2 0600 	movt	r6, #8192	; 0x2000
 80007fc:	eba6 0601 	sub.w	r6, r6, r1
 8000800:	f841 5d04 	str.w	r5, [r1, #-4]!
 8000804:	ea4f 05a6 	mov.w	r5, r6, asr #2
 8000808:	4770      	bx	lr
 800080a:	bf00      	nop

0800080c <PICK>:
 800080c:	f842 ed04 	str.w	lr, [r2, #-4]!
 8000810:	f7ff fe00 	bl	8000414 <ONEP>
 8000814:	f7ff fe1c 	bl	8000450 <CELLS>
 8000818:	f7ff fda0 	bl	800035c <SPAT>
 800081c:	f7ff fdde 	bl	80003dc <PLUS>
 8000820:	f7ff fd82 	bl	8000328 <AT>
 8000824:	f852 fb04 	ldr.w	pc, [r2], #4

08000828 <HERE>:
 8000828:	f842 ed04 	str.w	lr, [r2, #-4]!
 800082c:	f7ff fefc 	bl	8000628 <CPP>
 8000830:	f7ff fd7a 	bl	8000328 <AT>
 8000834:	f852 fb04 	ldr.w	pc, [r2], #4

08000838 <PAD>:
 8000838:	f842 ed04 	str.w	lr, [r2, #-4]!
 800083c:	f7ff fff4 	bl	8000828 <HERE>
 8000840:	f105 0550 	add.w	r5, r5, #80	; 0x50
 8000844:	f852 fb04 	ldr.w	pc, [r2], #4

08000848 <TIB>:
 8000848:	f841 5d04 	str.w	r5, [r1, #-4]!
 800084c:	6b1d      	ldr	r5, [r3, #48]	; 0x30
 800084e:	4770      	bx	lr

08000850 <ATEXE>:
 8000850:	002c      	movs	r4, r5
 8000852:	f851 5b04 	ldr.w	r5, [r1], #4
 8000856:	6824      	ldr	r4, [r4, #0]
 8000858:	f044 0401 	orr.w	r4, r4, #1
 800085c:	bf18      	it	ne
 800085e:	4720      	bxne	r4
 8000860:	4770      	bx	lr
 8000862:	bf00      	nop

08000864 <CMOVE>:
 8000864:	f851 6b04 	ldr.w	r6, [r1], #4
 8000868:	f851 7b04 	ldr.w	r7, [r1], #4
 800086c:	e003      	b.n	8000876 <CMOV1>

0800086e <CMOV0>:
 800086e:	f817 4b01 	ldrb.w	r4, [r7], #1
 8000872:	f806 4b01 	strb.w	r4, [r6], #1

08000876 <CMOV1>:
 8000876:	002d      	movs	r5, r5
 8000878:	d002      	beq.n	8000880 <CMOV2>
 800087a:	f1a5 0501 	sub.w	r5, r5, #1
 800087e:	e7f6      	b.n	800086e <CMOV0>

08000880 <CMOV2>:
 8000880:	f851 5b04 	ldr.w	r5, [r1], #4
 8000884:	4770      	bx	lr
 8000886:	bf00      	nop

08000888 <MOVE>:
 8000888:	f025 0503 	bic.w	r5, r5, #3
 800088c:	f851 6b04 	ldr.w	r6, [r1], #4
 8000890:	f851 7b04 	ldr.w	r7, [r1], #4
 8000894:	e003      	b.n	800089e <MOVE1>

08000896 <MOVE0>:
 8000896:	f857 4b04 	ldr.w	r4, [r7], #4
 800089a:	f846 4b04 	str.w	r4, [r6], #4

0800089e <MOVE1>:
 800089e:	002d      	movs	r5, r5
 80008a0:	d002      	beq.n	80008a8 <MOVE2>
 80008a2:	f1a5 0504 	sub.w	r5, r5, #4
 80008a6:	e7f6      	b.n	8000896 <MOVE0>

080008a8 <MOVE2>:
 80008a8:	f851 5b04 	ldr.w	r5, [r1], #4
 80008ac:	4770      	bx	lr
 80008ae:	bf00      	nop

080008b0 <FILL>:
 80008b0:	f851 6b04 	ldr.w	r6, [r1], #4
 80008b4:	f851 7b04 	ldr.w	r7, [r1], #4

080008b8 <FILL0>:
 80008b8:	e000      	b.n	80008bc <FILL1>
 80008ba:	462d      	mov	r5, r5

080008bc <FILL1>:
 80008bc:	f807 5b01 	strb.w	r5, [r7], #1
 80008c0:	0036      	movs	r6, r6
 80008c2:	d002      	beq.n	80008ca <FILL2>
 80008c4:	f1a6 0601 	sub.w	r6, r6, #1
 80008c8:	e7f6      	b.n	80008b8 <FILL0>

080008ca <FILL2>:
 80008ca:	f851 5b04 	ldr.w	r5, [r1], #4
 80008ce:	4770      	bx	lr

080008d0 <PACKS>:
 80008d0:	f842 ed04 	str.w	lr, [r2, #-4]!
 80008d4:	f7ff ff66 	bl	80007a4 <ALGND>
 80008d8:	f7ff fd48 	bl	800036c <DUPP>
 80008dc:	f7ff fd38 	bl	8000350 <TOR>
 80008e0:	f7ff fd4c 	bl	800037c <OVER>
 80008e4:	f7ff fd7a 	bl	80003dc <PLUS>
 80008e8:	f7ff fd94 	bl	8000414 <ONEP>
 80008ec:	f7ff fce5 	bl	80002ba <DOLIT>
 80008f0:	fffffffc 			; <UNDEFINED> instruction: 0xfffffffc
 80008f4:	f7ff fd4c 	bl	8000390 <ANDD>
 80008f8:	f7ff fcdf 	bl	80002ba <DOLIT>
 80008fc:	00000000 	andeq	r0, r0, r0
 8000900:	f7ff fd38 	bl	8000374 <SWAP>
 8000904:	f7ff fd0a 	bl	800031c <STORE>
 8000908:	f7ff fd1e 	bl	8000348 <RAT>
 800090c:	f7ff fdc2 	bl	8000494 <DDUP>
 8000910:	f7ff fd0c 	bl	800032c <CSTOR>
 8000914:	f7ff fd7e 	bl	8000414 <ONEP>
 8000918:	f7ff fd2c 	bl	8000374 <SWAP>
 800091c:	f7ff ffa2 	bl	8000864 <CMOVE>
 8000920:	f7ff fd0c 	bl	800033c <RFROM>
 8000924:	f852 fb04 	ldr.w	pc, [r2], #4

08000928 <DIGIT>:
 8000928:	f842 ed04 	str.w	lr, [r2, #-4]!
 800092c:	f7ff fcc5 	bl	80002ba <DOLIT>
 8000930:	00000009 	andeq	r0, r0, r9
 8000934:	f7ff fd22 	bl	800037c <OVER>
 8000938:	f7ff fde2 	bl	8000500 <LESS>
 800093c:	f005 0507 	and.w	r5, r5, #7
 8000940:	f7ff fd4c 	bl	80003dc <PLUS>
 8000944:	f105 0530 	add.w	r5, r5, #48	; 0x30
 8000948:	f852 fb04 	ldr.w	pc, [r2], #4

0800094c <EXTRC>:
 800094c:	f842 ed04 	str.w	lr, [r2, #-4]!
 8000950:	f7ff fcb3 	bl	80002ba <DOLIT>
 8000954:	00000000 	andeq	r0, r0, r0
 8000958:	f7ff fd0c 	bl	8000374 <SWAP>
 800095c:	f7ff fea0 	bl	80006a0 <UMMOD>
 8000960:	f7ff fd08 	bl	8000374 <SWAP>
 8000964:	f7ff ffe0 	bl	8000928 <DIGIT>
 8000968:	f852 fb04 	ldr.w	pc, [r2], #4

0800096c <BDIGS>:
 800096c:	f842 ed04 	str.w	lr, [r2, #-4]!
 8000970:	f7ff ff62 	bl	8000838 <PAD>
 8000974:	f7ff fe4c 	bl	8000610 <HLD>
 8000978:	f7ff fcd0 	bl	800031c <STORE>
 800097c:	f852 fb04 	ldr.w	pc, [r2], #4

08000980 <HOLD>:
 8000980:	f842 ed04 	str.w	lr, [r2, #-4]!
 8000984:	f7ff fe44 	bl	8000610 <HLD>
 8000988:	f7ff fcce 	bl	8000328 <AT>
 800098c:	f7ff fd46 	bl	800041c <ONEM>
 8000990:	f7ff fcec 	bl	800036c <DUPP>
 8000994:	f7ff fe3c 	bl	8000610 <HLD>
 8000998:	f7ff fcc0 	bl	800031c <STORE>
 800099c:	f7ff fcc6 	bl	800032c <CSTOR>
 80009a0:	f852 fb04 	ldr.w	pc, [r2], #4

080009a4 <DIG>:
 80009a4:	f842 ed04 	str.w	lr, [r2, #-4]!
 80009a8:	f7ff fe10 	bl	80005cc <BASE>
 80009ac:	f7ff fcbc 	bl	8000328 <AT>
 80009b0:	f7ff ffcc 	bl	800094c <EXTRC>
 80009b4:	f7ff ffe4 	bl	8000980 <HOLD>
 80009b8:	f852 fb04 	ldr.w	pc, [r2], #4

080009bc <DIGS>:
 80009bc:	f842 ed04 	str.w	lr, [r2, #-4]!

080009c0 <DIGS1>:
 80009c0:	f7ff fff0 	bl	80009a4 <DIG>
 80009c4:	f7ff fcd2 	bl	800036c <DUPP>
 80009c8:	f7ff fc94 	bl	80002f4 <QBRAN>
 80009cc:	200009d2 	ldrdcs	r0, [r0], -r2
 80009d0:	e7f6      	b.n	80009c0 <DIGS1>

080009d2 <DIGS2>:
 80009d2:	f852 fb04 	ldr.w	pc, [r2], #4
 80009d6:	bf00      	nop

080009d8 <SIGN>:
 80009d8:	f842 ed04 	str.w	lr, [r2, #-4]!
 80009dc:	f7ff fcd2 	bl	8000384 <ZLESS>
 80009e0:	f7ff fc88 	bl	80002f4 <QBRAN>
 80009e4:	200009f4 	strdcs	r0, [r0], -r4
 80009e8:	f7ff fc67 	bl	80002ba <DOLIT>
 80009ec:	0000002d 	andeq	r0, r0, sp, lsr #32
 80009f0:	f7ff ffc6 	bl	8000980 <HOLD>

080009f4 <SIGN1>:
 80009f4:	f852 fb04 	ldr.w	pc, [r2], #4

080009f8 <EDIGS>:
 80009f8:	f842 ed04 	str.w	lr, [r2, #-4]!
 80009fc:	f7ff fcb2 	bl	8000364 <DROP>
 8000a00:	f7ff fe06 	bl	8000610 <HLD>
 8000a04:	f7ff fc90 	bl	8000328 <AT>
 8000a08:	f7ff ff16 	bl	8000838 <PAD>
 8000a0c:	f7ff fcb6 	bl	800037c <OVER>
 8000a10:	f7ff fce8 	bl	80003e4 <SUBB>
 8000a14:	f852 fb04 	ldr.w	pc, [r2], #4

08000a18 <STRR>:
 8000a18:	f842 ed04 	str.w	lr, [r2, #-4]!
 8000a1c:	f7ff fca6 	bl	800036c <DUPP>
 8000a20:	f7ff fc96 	bl	8000350 <TOR>
 8000a24:	f7ff fd4e 	bl	80004c4 <ABSS>
 8000a28:	f7ff ffa0 	bl	800096c <BDIGS>
 8000a2c:	f7ff ffc6 	bl	80009bc <DIGS>
 8000a30:	f7ff fc84 	bl	800033c <RFROM>
 8000a34:	f7ff ffd0 	bl	80009d8 <SIGN>
 8000a38:	f7ff ffde 	bl	80009f8 <EDIGS>
 8000a3c:	f852 fb04 	ldr.w	pc, [r2], #4

08000a40 <HEX>:
 8000a40:	f842 ed04 	str.w	lr, [r2, #-4]!
 8000a44:	f7ff fc39 	bl	80002ba <DOLIT>
 8000a48:	00000010 	andeq	r0, r0, r0, lsl r0
 8000a4c:	f7ff fdbe 	bl	80005cc <BASE>
 8000a50:	f7ff fc64 	bl	800031c <STORE>
 8000a54:	f852 fb04 	ldr.w	pc, [r2], #4

08000a58 <DECIM>:
 8000a58:	f842 ed04 	str.w	lr, [r2, #-4]!
 8000a5c:	f7ff fc2d 	bl	80002ba <DOLIT>
 8000a60:	0000000a 	andeq	r0, r0, sl
 8000a64:	f7ff fdb2 	bl	80005cc <BASE>
 8000a68:	f7ff fc58 	bl	800031c <STORE>
 8000a6c:	f852 fb04 	ldr.w	pc, [r2], #4

08000a70 <DIGTQ>:
 8000a70:	f842 ed04 	str.w	lr, [r2, #-4]!
 8000a74:	f7ff fc6c 	bl	8000350 <TOR>
 8000a78:	f7ff fc1f 	bl	80002ba <DOLIT>
 8000a7c:	00000030 	andeq	r0, r0, r0, lsr r0
 8000a80:	f7ff fcb0 	bl	80003e4 <SUBB>
 8000a84:	f7ff fc19 	bl	80002ba <DOLIT>
 8000a88:	00000009 	andeq	r0, r0, r9
 8000a8c:	f7ff fc76 	bl	800037c <OVER>
 8000a90:	f7ff fd36 	bl	8000500 <LESS>
 8000a94:	f7ff fc2e 	bl	80002f4 <QBRAN>
 8000a98:	20000abc 			; <UNDEFINED> instruction: 0x20000abc
 8000a9c:	f7ff fc0d 	bl	80002ba <DOLIT>
 8000aa0:	00000007 	andeq	r0, r0, r7
 8000aa4:	f7ff fc9e 	bl	80003e4 <SUBB>
 8000aa8:	f7ff fc60 	bl	800036c <DUPP>
 8000aac:	f7ff fc05 	bl	80002ba <DOLIT>
 8000ab0:	0000000a 	andeq	r0, r0, sl
 8000ab4:	f7ff fd24 	bl	8000500 <LESS>
 8000ab8:	f7ff fc70 	bl	800039c <ORR>

08000abc <DGTQ1>:
 8000abc:	f7ff fc56 	bl	800036c <DUPP>
 8000ac0:	f7ff fc3c 	bl	800033c <RFROM>
 8000ac4:	f7ff fd14 	bl	80004f0 <ULESS>
 8000ac8:	f852 fb04 	ldr.w	pc, [r2], #4

08000acc <NUMBQ>:
 8000acc:	f842 ed04 	str.w	lr, [r2, #-4]!
 8000ad0:	f7ff fd7c 	bl	80005cc <BASE>
 8000ad4:	f7ff fc28 	bl	8000328 <AT>
 8000ad8:	f7ff fc3a 	bl	8000350 <TOR>
 8000adc:	f7ff fbed 	bl	80002ba <DOLIT>
 8000ae0:	00000000 	andeq	r0, r0, r0
 8000ae4:	f7ff fc4a 	bl	800037c <OVER>
 8000ae8:	f7ff fd3e 	bl	8000568 <COUNT>
 8000aec:	f7ff fc46 	bl	800037c <OVER>
 8000af0:	f7ff fc22 	bl	8000338 <CAT>
 8000af4:	f7ff fbe1 	bl	80002ba <DOLIT>
 8000af8:	00000024 	andeq	r0, r0, r4, lsr #32
 8000afc:	f7ff fcf0 	bl	80004e0 <EQUAL>
 8000b00:	f7ff fbf8 	bl	80002f4 <QBRAN>
 8000b04:	20000b1c 	andcs	r0, r0, ip, lsl fp
 8000b08:	f7ff ff9a 	bl	8000a40 <HEX>
 8000b0c:	f7ff fc32 	bl	8000374 <SWAP>
 8000b10:	f7ff fc80 	bl	8000414 <ONEP>
 8000b14:	f7ff fc2e 	bl	8000374 <SWAP>
 8000b18:	f7ff fc80 	bl	800041c <ONEM>

08000b1c <NUMQ1>:
 8000b1c:	f7ff fc2e 	bl	800037c <OVER>
 8000b20:	f7ff fc0a 	bl	8000338 <CAT>
 8000b24:	f7ff fbc9 	bl	80002ba <DOLIT>
 8000b28:	0000002d 	andeq	r0, r0, sp, lsr #32
 8000b2c:	f7ff fcd8 	bl	80004e0 <EQUAL>
 8000b30:	f7ff fc0e 	bl	8000350 <TOR>
 8000b34:	f7ff fc1e 	bl	8000374 <SWAP>
 8000b38:	f7ff fc06 	bl	8000348 <RAT>
 8000b3c:	f7ff fc52 	bl	80003e4 <SUBB>
 8000b40:	f7ff fc18 	bl	8000374 <SWAP>
 8000b44:	f7ff fc00 	bl	8000348 <RAT>
 8000b48:	f7ff fc48 	bl	80003dc <PLUS>
 8000b4c:	f7ff fc90 	bl	8000470 <QDUP>
 8000b50:	f7ff fbd0 	bl	80002f4 <QBRAN>
 8000b54:	20000be0 	andcs	r0, r0, r0, ror #23
 8000b58:	f7ff fc60 	bl	800041c <ONEM>
 8000b5c:	f7ff fbf8 	bl	8000350 <TOR>

08000b60 <NUMQ2>:
 8000b60:	f7ff fc04 	bl	800036c <DUPP>
 8000b64:	f7ff fbf4 	bl	8000350 <TOR>
 8000b68:	f7ff fbe6 	bl	8000338 <CAT>
 8000b6c:	f7ff fd2e 	bl	80005cc <BASE>
 8000b70:	f7ff fbda 	bl	8000328 <AT>
 8000b74:	f7ff ff7c 	bl	8000a70 <DIGTQ>
 8000b78:	f7ff fbbc 	bl	80002f4 <QBRAN>
 8000b7c:	20000bc4 	andcs	r0, r0, r4, asr #23
 8000b80:	f7ff fbf8 	bl	8000374 <SWAP>
 8000b84:	f7ff fd22 	bl	80005cc <BASE>
 8000b88:	f7ff fbce 	bl	8000328 <AT>
 8000b8c:	f7ff fc30 	bl	80003f0 <STAR>
 8000b90:	f7ff fc24 	bl	80003dc <PLUS>
 8000b94:	f7ff fbd2 	bl	800033c <RFROM>
 8000b98:	f7ff fc3c 	bl	8000414 <ONEP>
 8000b9c:	f7ff fb9b 	bl	80002d6 <DONXT>
 8000ba0:	20000b60 	andcs	r0, r0, r0, ror #22
 8000ba4:	f7ff fbd0 	bl	8000348 <RAT>
 8000ba8:	f7ff fbe4 	bl	8000374 <SWAP>
 8000bac:	f7ff fbda 	bl	8000364 <DROP>
 8000bb0:	f7ff fba0 	bl	80002f4 <QBRAN>
 8000bb4:	20000bbc 			; <UNDEFINED> instruction: 0x20000bbc
 8000bb8:	f7ff fc80 	bl	80004bc <NEGAT>

08000bbc <NUMQ3>:
 8000bbc:	f7ff fbda 	bl	8000374 <SWAP>
 8000bc0:	f000 b80c 	b.w	8000bdc <NUMQ5>

08000bc4 <NUMQ4>:
 8000bc4:	f7ff fbba 	bl	800033c <RFROM>
 8000bc8:	f7ff fbb8 	bl	800033c <RFROM>
 8000bcc:	f7ff fc5c 	bl	8000488 <DDROP>
 8000bd0:	f7ff fc5a 	bl	8000488 <DDROP>
 8000bd4:	f7ff fb71 	bl	80002ba <DOLIT>
 8000bd8:	00000000 	andeq	r0, r0, r0

08000bdc <NUMQ5>:
 8000bdc:	f7ff fbc6 	bl	800036c <DUPP>

08000be0 <NUMQ6>:
 8000be0:	f7ff fbac 	bl	800033c <RFROM>
 8000be4:	f7ff fc50 	bl	8000488 <DDROP>
 8000be8:	f7ff fba8 	bl	800033c <RFROM>
 8000bec:	f7ff fcee 	bl	80005cc <BASE>
 8000bf0:	f7ff fb94 	bl	800031c <STORE>
 8000bf4:	f852 fb04 	ldr.w	pc, [r2], #4

08000bf8 <KEY>:
 8000bf8:	f842 ed04 	str.w	lr, [r2, #-4]!

08000bfc <KEY1>:
 8000bfc:	f7ff fb3a 	bl	8000274 <QKEY>
 8000c00:	f7ff fb78 	bl	80002f4 <QBRAN>
 8000c04:	20000bfc 	strdcs	r0, [r0], -ip
 8000c08:	f852 fb04 	ldr.w	pc, [r2], #4

08000c0c <SPACE>:
 8000c0c:	f842 ed04 	str.w	lr, [r2, #-4]!
 8000c10:	f7ff fc18 	bl	8000444 <BLANK>
 8000c14:	f7ff fb44 	bl	80002a0 <EMIT>
 8000c18:	f852 fb04 	ldr.w	pc, [r2], #4

08000c1c <SPACS>:
 8000c1c:	f842 ed04 	str.w	lr, [r2, #-4]!
 8000c20:	f7ff fb4b 	bl	80002ba <DOLIT>
 8000c24:	00000000 	andeq	r0, r0, r0
 8000c28:	f7ff fc7a 	bl	8000520 <MAX>
 8000c2c:	f7ff fb90 	bl	8000350 <TOR>
 8000c30:	f000 b802 	b.w	8000c38 <CHAR2>

08000c34 <CHAR1>:
 8000c34:	f7ff ffea 	bl	8000c0c <SPACE>

08000c38 <CHAR2>:
 8000c38:	f7ff fb4d 	bl	80002d6 <DONXT>
 8000c3c:	20000c34 	andcs	r0, r0, r4, lsr ip
 8000c40:	f852 fb04 	ldr.w	pc, [r2], #4

08000c44 <TYPEE>:
 8000c44:	f842 ed04 	str.w	lr, [r2, #-4]!
 8000c48:	f7ff fb82 	bl	8000350 <TOR>
 8000c4c:	f000 b806 	b.w	8000c5c <TYPE2>

08000c50 <TYPE1>:
 8000c50:	f7ff fc8a 	bl	8000568 <COUNT>
 8000c54:	f7ff fdae 	bl	80007b4 <TCHAR>
 8000c58:	f7ff fb22 	bl	80002a0 <EMIT>

08000c5c <TYPE2>:
 8000c5c:	f7ff fb3b 	bl	80002d6 <DONXT>
 8000c60:	20000c50 	andcs	r0, r0, r0, asr ip
 8000c64:	f7ff fb7e 	bl	8000364 <DROP>
 8000c68:	f852 fb04 	ldr.w	pc, [r2], #4

08000c6c <CR>:
 8000c6c:	f842 ed04 	str.w	lr, [r2, #-4]!
 8000c70:	f7ff fb23 	bl	80002ba <DOLIT>
 8000c74:	0000000d 	andeq	r0, r0, sp
 8000c78:	f7ff fb12 	bl	80002a0 <EMIT>
 8000c7c:	f7ff fb1d 	bl	80002ba <DOLIT>
 8000c80:	0000000a 	andeq	r0, r0, sl
 8000c84:	f7ff fb0c 	bl	80002a0 <EMIT>
 8000c88:	f852 fb04 	ldr.w	pc, [r2], #4

08000c8c <DOSTR>:
 8000c8c:	f842 ed04 	str.w	lr, [r2, #-4]!
 8000c90:	f7ff fb54 	bl	800033c <RFROM>
 8000c94:	f7ff fb52 	bl	800033c <RFROM>
 8000c98:	f7ff fbc0 	bl	800041c <ONEM>
 8000c9c:	f7ff fb66 	bl	800036c <DUPP>
 8000ca0:	f7ff fc62 	bl	8000568 <COUNT>
 8000ca4:	f7ff fb9a 	bl	80003dc <PLUS>
 8000ca8:	f7ff fd7c 	bl	80007a4 <ALGND>
 8000cac:	f7ff fbb2 	bl	8000414 <ONEP>
 8000cb0:	f7ff fb4e 	bl	8000350 <TOR>
 8000cb4:	f7ff fb5e 	bl	8000374 <SWAP>
 8000cb8:	f7ff fb4a 	bl	8000350 <TOR>
 8000cbc:	f852 fb04 	ldr.w	pc, [r2], #4

08000cc0 <STRQP>:
 8000cc0:	f842 ed04 	str.w	lr, [r2, #-4]!
 8000cc4:	f7ff ffe2 	bl	8000c8c <DOSTR>
 8000cc8:	f852 fb04 	ldr.w	pc, [r2], #4

08000ccc <DOTST>:
 8000ccc:	f842 ed04 	str.w	lr, [r2, #-4]!
 8000cd0:	f7ff fc4a 	bl	8000568 <COUNT>
 8000cd4:	f7ff ffb6 	bl	8000c44 <TYPEE>
 8000cd8:	f852 fb04 	ldr.w	pc, [r2], #4

08000cdc <DOTQP>:
 8000cdc:	f842 ed04 	str.w	lr, [r2, #-4]!
 8000ce0:	f7ff ffd4 	bl	8000c8c <DOSTR>
 8000ce4:	f7ff fff2 	bl	8000ccc <DOTST>
 8000ce8:	f852 fb04 	ldr.w	pc, [r2], #4

08000cec <DOTR>:
 8000cec:	f842 ed04 	str.w	lr, [r2, #-4]!
 8000cf0:	f7ff fb2e 	bl	8000350 <TOR>
 8000cf4:	f7ff fe90 	bl	8000a18 <STRR>
 8000cf8:	f7ff fb20 	bl	800033c <RFROM>
 8000cfc:	f7ff fb3e 	bl	800037c <OVER>
 8000d00:	f7ff fb70 	bl	80003e4 <SUBB>
 8000d04:	f7ff ff8a 	bl	8000c1c <SPACS>
 8000d08:	f7ff ff9c 	bl	8000c44 <TYPEE>
 8000d0c:	f852 fb04 	ldr.w	pc, [r2], #4

08000d10 <UDOTR>:
 8000d10:	f842 ed04 	str.w	lr, [r2, #-4]!
 8000d14:	f7ff fb1c 	bl	8000350 <TOR>
 8000d18:	f7ff fe28 	bl	800096c <BDIGS>
 8000d1c:	f7ff fe4e 	bl	80009bc <DIGS>
 8000d20:	f7ff fe6a 	bl	80009f8 <EDIGS>
 8000d24:	f7ff fb0a 	bl	800033c <RFROM>
 8000d28:	f7ff fb28 	bl	800037c <OVER>
 8000d2c:	f7ff fb5a 	bl	80003e4 <SUBB>
 8000d30:	f7ff ff74 	bl	8000c1c <SPACS>
 8000d34:	f7ff ff86 	bl	8000c44 <TYPEE>
 8000d38:	f852 fb04 	ldr.w	pc, [r2], #4

08000d3c <UDOT>:
 8000d3c:	f842 ed04 	str.w	lr, [r2, #-4]!
 8000d40:	f7ff fe14 	bl	800096c <BDIGS>
 8000d44:	f7ff fe3a 	bl	80009bc <DIGS>
 8000d48:	f7ff fe56 	bl	80009f8 <EDIGS>
 8000d4c:	f7ff ff5e 	bl	8000c0c <SPACE>
 8000d50:	f7ff ff78 	bl	8000c44 <TYPEE>
 8000d54:	f852 fb04 	ldr.w	pc, [r2], #4

08000d58 <HDOT>:
 8000d58:	f842 ed04 	str.w	lr, [r2, #-4]!
 8000d5c:	f7ff fc36 	bl	80005cc <BASE>
 8000d60:	f7ff fae2 	bl	8000328 <AT>
 8000d64:	f7ff faf4 	bl	8000350 <TOR>
 8000d68:	f7ff fe6a 	bl	8000a40 <HEX>
 8000d6c:	f7ff ffe6 	bl	8000d3c <UDOT>
 8000d70:	f7ff fae4 	bl	800033c <RFROM>
 8000d74:	f7ff fc2a 	bl	80005cc <BASE>
 8000d78:	f7ff fad0 	bl	800031c <STORE>
 8000d7c:	f852 fb04 	ldr.w	pc, [r2], #4

08000d80 <DOT>:
 8000d80:	f842 ed04 	str.w	lr, [r2, #-4]!
 8000d84:	f7ff fc22 	bl	80005cc <BASE>
 8000d88:	f7ff face 	bl	8000328 <AT>
 8000d8c:	f7ff fa95 	bl	80002ba <DOLIT>
 8000d90:	0000000a 	andeq	r0, r0, sl
 8000d94:	f7ff fb08 	bl	80003a8 <XORR>
 8000d98:	f7ff faac 	bl	80002f4 <QBRAN>
 8000d9c:	20000da8 	andcs	r0, r0, r8, lsr #27
 8000da0:	f7ff ffcc 	bl	8000d3c <UDOT>
 8000da4:	f852 fb04 	ldr.w	pc, [r2], #4

08000da8 <DOT1>:
 8000da8:	f7ff fe36 	bl	8000a18 <STRR>
 8000dac:	f7ff ff2e 	bl	8000c0c <SPACE>
 8000db0:	f7ff ff48 	bl	8000c44 <TYPEE>
 8000db4:	f852 fb04 	ldr.w	pc, [r2], #4

08000db8 <QUEST>:
 8000db8:	f842 ed04 	str.w	lr, [r2, #-4]!
 8000dbc:	f7ff fab4 	bl	8000328 <AT>
 8000dc0:	f7ff ffde 	bl	8000d80 <DOT>
 8000dc4:	f852 fb04 	ldr.w	pc, [r2], #4

08000dc8 <PARS>:
 8000dc8:	f842 ed04 	str.w	lr, [r2, #-4]!
 8000dcc:	f7ff fc03 	bl	80005d6 <TEMP>
 8000dd0:	f7ff faa4 	bl	800031c <STORE>
 8000dd4:	f7ff fad2 	bl	800037c <OVER>
 8000dd8:	f7ff faba 	bl	8000350 <TOR>
 8000ddc:	f7ff fac6 	bl	800036c <DUPP>
 8000de0:	f7ff fa88 	bl	80002f4 <QBRAN>
 8000de4:	20000ed6 	ldrdcs	r0, [r0], -r6
 8000de8:	f7ff fb18 	bl	800041c <ONEM>
 8000dec:	f7ff fbf3 	bl	80005d6 <TEMP>
 8000df0:	f7ff fa9a 	bl	8000328 <AT>
 8000df4:	f7ff fb26 	bl	8000444 <BLANK>
 8000df8:	f7ff fb72 	bl	80004e0 <EQUAL>
 8000dfc:	f7ff fa7a 	bl	80002f4 <QBRAN>
 8000e00:	20000e50 	andcs	r0, r0, r0, asr lr
 8000e04:	f7ff faa4 	bl	8000350 <TOR>

08000e08 <PARS1>:
 8000e08:	f7ff fb1c 	bl	8000444 <BLANK>
 8000e0c:	f7ff fab6 	bl	800037c <OVER>
 8000e10:	f7ff fa92 	bl	8000338 <CAT>
 8000e14:	f7ff fae6 	bl	80003e4 <SUBB>
 8000e18:	f7ff fab4 	bl	8000384 <ZLESS>
 8000e1c:	f7ff fb4a 	bl	80004b4 <INVER>
 8000e20:	f7ff fa68 	bl	80002f4 <QBRAN>
 8000e24:	20000e4c 	andcs	r0, r0, ip, asr #28
 8000e28:	f7ff faf4 	bl	8000414 <ONEP>
 8000e2c:	f7ff fa53 	bl	80002d6 <DONXT>
 8000e30:	20000e08 	andcs	r0, r0, r8, lsl #28
 8000e34:	f7ff fa82 	bl	800033c <RFROM>
 8000e38:	f7ff fa94 	bl	8000364 <DROP>
 8000e3c:	f7ff fa3d 	bl	80002ba <DOLIT>
 8000e40:	00000000 	andeq	r0, r0, r0
 8000e44:	f7ff fa92 	bl	800036c <DUPP>
 8000e48:	f852 fb04 	ldr.w	pc, [r2], #4

08000e4c <PARS2>:
 8000e4c:	f7ff fa76 	bl	800033c <RFROM>

08000e50 <PARS3>:
 8000e50:	f7ff fa94 	bl	800037c <OVER>
 8000e54:	f7ff fa8e 	bl	8000374 <SWAP>
 8000e58:	f7ff fa7a 	bl	8000350 <TOR>

08000e5c <PARS4>:
 8000e5c:	f7ff fbbb 	bl	80005d6 <TEMP>
 8000e60:	f7ff fa62 	bl	8000328 <AT>
 8000e64:	f7ff fa8a 	bl	800037c <OVER>
 8000e68:	f7ff fa66 	bl	8000338 <CAT>
 8000e6c:	f7ff faba 	bl	80003e4 <SUBB>
 8000e70:	f7ff fbb1 	bl	80005d6 <TEMP>
 8000e74:	f7ff fa58 	bl	8000328 <AT>
 8000e78:	f7ff fae4 	bl	8000444 <BLANK>
 8000e7c:	f7ff fb30 	bl	80004e0 <EQUAL>
 8000e80:	f7ff fa38 	bl	80002f4 <QBRAN>
 8000e84:	20000e8c 	andcs	r0, r0, ip, lsl #29
 8000e88:	f7ff fa7c 	bl	8000384 <ZLESS>

08000e8c <PARS5>:
 8000e8c:	f7ff fa32 	bl	80002f4 <QBRAN>
 8000e90:	20000eaa 	andcs	r0, r0, sl, lsr #29
 8000e94:	f7ff fabe 	bl	8000414 <ONEP>
 8000e98:	f7ff fa1d 	bl	80002d6 <DONXT>
 8000e9c:	20000e5c 	andcs	r0, r0, ip, asr lr
 8000ea0:	f7ff fa64 	bl	800036c <DUPP>
 8000ea4:	f7ff fa54 	bl	8000350 <TOR>
 8000ea8:	e009      	b.n	8000ebe <PARS7>

08000eaa <PARS6>:
 8000eaa:	f7ff fa47 	bl	800033c <RFROM>
 8000eae:	f7ff fa59 	bl	8000364 <DROP>
 8000eb2:	f7ff fa5b 	bl	800036c <DUPP>
 8000eb6:	f7ff faad 	bl	8000414 <ONEP>
 8000eba:	f7ff fa49 	bl	8000350 <TOR>

08000ebe <PARS7>:
 8000ebe:	f7ff fa5d 	bl	800037c <OVER>
 8000ec2:	f7ff fa8f 	bl	80003e4 <SUBB>
 8000ec6:	f7ff fa39 	bl	800033c <RFROM>
 8000eca:	f7ff fa37 	bl	800033c <RFROM>
 8000ece:	f7ff fa89 	bl	80003e4 <SUBB>
 8000ed2:	f852 fb04 	ldr.w	pc, [r2], #4

08000ed6 <PARS8>:
 8000ed6:	f7ff fa51 	bl	800037c <OVER>
 8000eda:	f7ff fa2f 	bl	800033c <RFROM>
 8000ede:	f7ff fa81 	bl	80003e4 <SUBB>
 8000ee2:	f852 fb04 	ldr.w	pc, [r2], #4
 8000ee6:	bf00      	nop

08000ee8 <PARSE>:
 8000ee8:	f842 ed04 	str.w	lr, [r2, #-4]!
 8000eec:	f7ff fa30 	bl	8000350 <TOR>
 8000ef0:	f7ff fcaa 	bl	8000848 <TIB>
 8000ef4:	f7ff fb7a 	bl	80005ec <INN>
 8000ef8:	f7ff fa16 	bl	8000328 <AT>
 8000efc:	f7ff fa6e 	bl	80003dc <PLUS>
 8000f00:	f7ff fb7a 	bl	80005f8 <NTIB>
 8000f04:	f7ff fa10 	bl	8000328 <AT>
 8000f08:	f7ff fb70 	bl	80005ec <INN>
 8000f0c:	f7ff fa0c 	bl	8000328 <AT>
 8000f10:	f7ff fa68 	bl	80003e4 <SUBB>
 8000f14:	f7ff fa12 	bl	800033c <RFROM>
 8000f18:	f7ff ff56 	bl	8000dc8 <PARS>
 8000f1c:	f7ff fb66 	bl	80005ec <INN>
 8000f20:	f7ff fb0a 	bl	8000538 <PSTOR>
 8000f24:	f852 fb04 	ldr.w	pc, [r2], #4

08000f28 <DOTPR>:
 8000f28:	f842 ed04 	str.w	lr, [r2, #-4]!
 8000f2c:	f7ff f9c5 	bl	80002ba <DOLIT>
 8000f30:	00000029 	andeq	r0, r0, r9, lsr #32
 8000f34:	f7ff ffd8 	bl	8000ee8 <PARSE>
 8000f38:	f7ff fe84 	bl	8000c44 <TYPEE>
 8000f3c:	f852 fb04 	ldr.w	pc, [r2], #4

08000f40 <PAREN>:
 8000f40:	f842 ed04 	str.w	lr, [r2, #-4]!
 8000f44:	f7ff f9b9 	bl	80002ba <DOLIT>
 8000f48:	00000029 	andeq	r0, r0, r9, lsr #32
 8000f4c:	f7ff ffcc 	bl	8000ee8 <PARSE>
 8000f50:	f7ff fa9a 	bl	8000488 <DDROP>
 8000f54:	f852 fb04 	ldr.w	pc, [r2], #4

08000f58 <BKSLA>:
 8000f58:	f842 ed04 	str.w	lr, [r2, #-4]!
 8000f5c:	f7ff fb4c 	bl	80005f8 <NTIB>
 8000f60:	f7ff f9e2 	bl	8000328 <AT>
 8000f64:	f7ff fb42 	bl	80005ec <INN>
 8000f68:	f7ff f9d8 	bl	800031c <STORE>
 8000f6c:	f852 fb04 	ldr.w	pc, [r2], #4

08000f70 <CAHR>:
 8000f70:	f842 ed04 	str.w	lr, [r2, #-4]!
 8000f74:	f7ff fa66 	bl	8000444 <BLANK>
 8000f78:	f7ff ffb6 	bl	8000ee8 <PARSE>
 8000f7c:	f7ff f9f2 	bl	8000364 <DROP>
 8000f80:	f7ff f9da 	bl	8000338 <CAT>
 8000f84:	f852 fb04 	ldr.w	pc, [r2], #4

08000f88 <WORDD>:
 8000f88:	f842 ed04 	str.w	lr, [r2, #-4]!
 8000f8c:	f7ff ffac 	bl	8000ee8 <PARSE>
 8000f90:	f7ff fc4a 	bl	8000828 <HERE>
 8000f94:	f7ff fa4e 	bl	8000434 <CELLP>
 8000f98:	f7ff fc9a 	bl	80008d0 <PACKS>
 8000f9c:	f852 fb04 	ldr.w	pc, [r2], #4

08000fa0 <TOKEN>:
 8000fa0:	f842 ed04 	str.w	lr, [r2, #-4]!
 8000fa4:	f7ff fa4e 	bl	8000444 <BLANK>
 8000fa8:	f7ff ffee 	bl	8000f88 <WORDD>
 8000fac:	f852 fb04 	ldr.w	pc, [r2], #4

08000fb0 <TOCFA>:
 8000fb0:	f842 ed04 	str.w	lr, [r2, #-4]!
 8000fb4:	f7ff fad8 	bl	8000568 <COUNT>
 8000fb8:	f7ff f97f 	bl	80002ba <DOLIT>
 8000fbc:	0000001f 	andeq	r0, r0, pc, lsl r0
 8000fc0:	f7ff f9e6 	bl	8000390 <ANDD>
 8000fc4:	f7ff fa0a 	bl	80003dc <PLUS>
 8000fc8:	f7ff fbec 	bl	80007a4 <ALGND>
 8000fcc:	f852 fb04 	ldr.w	pc, [r2], #4

08000fd0 <NAMET>:
 8000fd0:	f842 ed04 	str.w	lr, [r2, #-4]!
 8000fd4:	f7ff ffec 	bl	8000fb0 <TOCFA>
 8000fd8:	f7ff f9a6 	bl	8000328 <AT>
 8000fdc:	f852 fb04 	ldr.w	pc, [r2], #4

08000fe0 <SAMEQ>:
 8000fe0:	f842 ed04 	str.w	lr, [r2, #-4]!
 8000fe4:	f7ff f9b4 	bl	8000350 <TOR>
 8000fe8:	f000 b81e 	b.w	8001028 <SAME2>

08000fec <SAME1>:
 8000fec:	f7ff f9c6 	bl	800037c <OVER>
 8000ff0:	f7ff f9aa 	bl	8000348 <RAT>
 8000ff4:	f7ff f9f2 	bl	80003dc <PLUS>
 8000ff8:	f7ff f99e 	bl	8000338 <CAT>
 8000ffc:	f7ff f9be 	bl	800037c <OVER>
 8001000:	f7ff f9a2 	bl	8000348 <RAT>
 8001004:	f7ff f9ea 	bl	80003dc <PLUS>
 8001008:	f7ff f996 	bl	8000338 <CAT>
 800100c:	f7ff f9ea 	bl	80003e4 <SUBB>
 8001010:	f7ff fa2e 	bl	8000470 <QDUP>
 8001014:	f7ff f96e 	bl	80002f4 <QBRAN>
 8001018:	20001028 	andcs	r1, r0, r8, lsr #32
 800101c:	f7ff f98e 	bl	800033c <RFROM>
 8001020:	f7ff f9a0 	bl	8000364 <DROP>
 8001024:	f852 fb04 	ldr.w	pc, [r2], #4

08001028 <SAME2>:
 8001028:	f7ff f955 	bl	80002d6 <DONXT>
 800102c:	20000fec 	andcs	r0, r0, ip, ror #31
 8001030:	f7ff f943 	bl	80002ba <DOLIT>
 8001034:	00000000 	andeq	r0, r0, r0
 8001038:	f852 fb04 	ldr.w	pc, [r2], #4

0800103c <FIND>:
 800103c:	f842 ed04 	str.w	lr, [r2, #-4]!
 8001040:	f7ff f998 	bl	8000374 <SWAP>
 8001044:	f7ff fa90 	bl	8000568 <COUNT>
 8001048:	f7ff f990 	bl	800036c <DUPP>
 800104c:	f7ff fac3 	bl	80005d6 <TEMP>
 8001050:	f7ff f964 	bl	800031c <STORE>
 8001054:	f7ff f97c 	bl	8000350 <TOR>
 8001058:	f7ff f98c 	bl	8000374 <SWAP>

0800105c <FIND1>:
 800105c:	f7ff f986 	bl	800036c <DUPP>
 8001060:	f7ff f948 	bl	80002f4 <QBRAN>
 8001064:	200010ac 	andcs	r1, r0, ip, lsr #1
 8001068:	f7ff f980 	bl	800036c <DUPP>
 800106c:	f7ff f964 	bl	8000338 <CAT>
 8001070:	f7ff f923 	bl	80002ba <DOLIT>
 8001074:	ffffff1f 			; <UNDEFINED> instruction: 0xffffff1f
 8001078:	f7ff f98a 	bl	8000390 <ANDD>
 800107c:	f7ff f964 	bl	8000348 <RAT>
 8001080:	f7ff f992 	bl	80003a8 <XORR>
 8001084:	f7ff f936 	bl	80002f4 <QBRAN>
 8001088:	20001098 	mulcs	r0, r8, r0
 800108c:	f7ff f9d6 	bl	800043c <CELLM>
 8001090:	f7ff f94a 	bl	8000328 <AT>
 8001094:	f7ff bfe2 	b.w	800105c <FIND1>

08001098 <FIND2>:
 8001098:	f7ff f9bc 	bl	8000414 <ONEP>
 800109c:	f7ff fa9b 	bl	80005d6 <TEMP>
 80010a0:	f7ff f942 	bl	8000328 <AT>
 80010a4:	f7ff ff9c 	bl	8000fe0 <SAMEQ>

080010a8 <FIND3>:
 80010a8:	f000 b80c 	b.w	80010c4 <FIND4>

080010ac <FIND6>:
 80010ac:	f7ff f946 	bl	800033c <RFROM>
 80010b0:	f7ff f958 	bl	8000364 <DROP>
 80010b4:	f7ff f95e 	bl	8000374 <SWAP>
 80010b8:	f7ff f9b0 	bl	800041c <ONEM>
 80010bc:	f7ff f95a 	bl	8000374 <SWAP>
 80010c0:	f852 fb04 	ldr.w	pc, [r2], #4

080010c4 <FIND4>:
 80010c4:	f7ff f916 	bl	80002f4 <QBRAN>
 80010c8:	200010dc 	ldrdcs	r1, [r0], -ip
 80010cc:	f7ff f9a6 	bl	800041c <ONEM>
 80010d0:	f7ff f9b4 	bl	800043c <CELLM>
 80010d4:	f7ff f928 	bl	8000328 <AT>
 80010d8:	f7ff bfc0 	b.w	800105c <FIND1>

080010dc <FIND5>:
 80010dc:	f7ff f92e 	bl	800033c <RFROM>
 80010e0:	f7ff f940 	bl	8000364 <DROP>
 80010e4:	f7ff f946 	bl	8000374 <SWAP>
 80010e8:	f7ff f93c 	bl	8000364 <DROP>
 80010ec:	f7ff f996 	bl	800041c <ONEM>
 80010f0:	f7ff f93c 	bl	800036c <DUPP>
 80010f4:	f7ff ff6c 	bl	8000fd0 <NAMET>
 80010f8:	f7ff f93c 	bl	8000374 <SWAP>
 80010fc:	f852 fb04 	ldr.w	pc, [r2], #4

08001100 <NAMEQ>:
 8001100:	f842 ed04 	str.w	lr, [r2, #-4]!
 8001104:	f7ff fa8a 	bl	800061c <CNTXT>
 8001108:	f7ff f90e 	bl	8000328 <AT>
 800110c:	f7ff ff96 	bl	800103c <FIND>
 8001110:	f852 fb04 	ldr.w	pc, [r2], #4

08001114 <BKSP>:
 8001114:	f842 ed04 	str.w	lr, [r2, #-4]!
 8001118:	f7ff f91a 	bl	8000350 <TOR>
 800111c:	f7ff f92e 	bl	800037c <OVER>
 8001120:	f7ff f90c 	bl	800033c <RFROM>
 8001124:	f7ff f926 	bl	8000374 <SWAP>
 8001128:	f7ff f928 	bl	800037c <OVER>
 800112c:	f7ff f93c 	bl	80003a8 <XORR>
 8001130:	f7ff f8e0 	bl	80002f4 <QBRAN>
 8001134:	2000115c 	andcs	r1, r0, ip, asr r1
 8001138:	f7ff f8bf 	bl	80002ba <DOLIT>
 800113c:	00000008 	andeq	r0, r0, r8
 8001140:	f7ff f8ae 	bl	80002a0 <EMIT>
 8001144:	f7ff f96a 	bl	800041c <ONEM>
 8001148:	f7ff f97c 	bl	8000444 <BLANK>
 800114c:	f7ff f8a8 	bl	80002a0 <EMIT>
 8001150:	f7ff f8b3 	bl	80002ba <DOLIT>
 8001154:	00000008 	andeq	r0, r0, r8
 8001158:	f7ff f8a2 	bl	80002a0 <EMIT>

0800115c <BACK1>:
 800115c:	f852 fb04 	ldr.w	pc, [r2], #4

08001160 <TAP>:
 8001160:	f842 ed04 	str.w	lr, [r2, #-4]!
 8001164:	f7ff f902 	bl	800036c <DUPP>
 8001168:	f7ff f89a 	bl	80002a0 <EMIT>
 800116c:	f7ff f906 	bl	800037c <OVER>
 8001170:	f7ff f8dc 	bl	800032c <CSTOR>
 8001174:	f7ff f94e 	bl	8000414 <ONEP>
 8001178:	f852 fb04 	ldr.w	pc, [r2], #4

0800117c <KTAP>:
 800117c:	f842 ed04 	str.w	lr, [r2, #-4]!
 8001180:	f7ff f8f4 	bl	800036c <DUPP>
 8001184:	f7ff f899 	bl	80002ba <DOLIT>
 8001188:	0000000d 	andeq	r0, r0, sp
 800118c:	f7ff f90c 	bl	80003a8 <XORR>
 8001190:	f7ff f8b0 	bl	80002f4 <QBRAN>
 8001194:	200011c4 	andcs	r1, r0, r4, asr #3
 8001198:	f7ff f88f 	bl	80002ba <DOLIT>
 800119c:	00000008 	andeq	r0, r0, r8
 80011a0:	f7ff f902 	bl	80003a8 <XORR>
 80011a4:	f7ff f8a6 	bl	80002f4 <QBRAN>
 80011a8:	200011bc 			; <UNDEFINED> instruction: 0x200011bc
 80011ac:	f7ff f94a 	bl	8000444 <BLANK>
 80011b0:	f7ff ffd6 	bl	8001160 <TAP>
 80011b4:	f852 fb04 	ldr.w	pc, [r2], #4
 80011b8:	00000000 	andeq	r0, r0, r0

080011bc <KTAP1>:
 80011bc:	f7ff ffaa 	bl	8001114 <BKSP>
 80011c0:	f852 fb04 	ldr.w	pc, [r2], #4

080011c4 <KTAP2>:
 80011c4:	f7ff f8ce 	bl	8000364 <DROP>
 80011c8:	f7ff f8d4 	bl	8000374 <SWAP>
 80011cc:	f7ff f8ca 	bl	8000364 <DROP>
 80011d0:	f7ff f8cc 	bl	800036c <DUPP>
 80011d4:	f852 fb04 	ldr.w	pc, [r2], #4

080011d8 <ACCEP>:
 80011d8:	f842 ed04 	str.w	lr, [r2, #-4]!
 80011dc:	f7ff f8ce 	bl	800037c <OVER>
 80011e0:	f7ff f8fc 	bl	80003dc <PLUS>
 80011e4:	f7ff f8ca 	bl	800037c <OVER>

080011e8 <ACCP1>:
 80011e8:	f7ff f954 	bl	8000494 <DDUP>
 80011ec:	f7ff f8dc 	bl	80003a8 <XORR>
 80011f0:	f7ff f880 	bl	80002f4 <QBRAN>
 80011f4:	20001224 	andcs	r1, r0, r4, lsr #4
 80011f8:	f7ff fcfe 	bl	8000bf8 <KEY>
 80011fc:	f7ff f8b6 	bl	800036c <DUPP>
 8001200:	f7ff f920 	bl	8000444 <BLANK>
 8001204:	f7ff f859 	bl	80002ba <DOLIT>
 8001208:	0000007f 	andeq	r0, r0, pc, ror r0
 800120c:	f7ff fa38 	bl	8000680 <WITHI>
 8001210:	f7ff f870 	bl	80002f4 <QBRAN>
 8001214:	2000121e 	andcs	r1, r0, lr, lsl r2
 8001218:	f7ff ffa2 	bl	8001160 <TAP>
 800121c:	e001      	b.n	8001222 <ACCP3>

0800121e <ACCP2>:
 800121e:	f7ff ffad 	bl	800117c <KTAP>

08001222 <ACCP3>:
 8001222:	e7e1      	b.n	80011e8 <ACCP1>

08001224 <ACCP4>:
 8001224:	f7ff f89e 	bl	8000364 <DROP>
 8001228:	f7ff f8a8 	bl	800037c <OVER>
 800122c:	f7ff f8da 	bl	80003e4 <SUBB>
 8001230:	f852 fb04 	ldr.w	pc, [r2], #4

08001234 <QUERY>:
 8001234:	f842 ed04 	str.w	lr, [r2, #-4]!
 8001238:	f7ff fb06 	bl	8000848 <TIB>
 800123c:	f7ff f83d 	bl	80002ba <DOLIT>
 8001240:	00000050 	andeq	r0, r0, r0, asr r0
 8001244:	f7ff ffc8 	bl	80011d8 <ACCEP>
 8001248:	f7ff f9d6 	bl	80005f8 <NTIB>
 800124c:	f7ff f866 	bl	800031c <STORE>
 8001250:	f7ff f888 	bl	8000364 <DROP>
 8001254:	f7ff f831 	bl	80002ba <DOLIT>
 8001258:	00000000 	andeq	r0, r0, r0
 800125c:	f7ff f9c6 	bl	80005ec <INN>
 8001260:	f7ff f85c 	bl	800031c <STORE>
 8001264:	f852 fb04 	ldr.w	pc, [r2], #4

08001268 <ABORT>:
 8001268:	f842 ed04 	str.w	lr, [r2, #-4]!
 800126c:	f7ff fcce 	bl	8000c0c <SPACE>

08001270 <ABORT1>:
 8001270:	f7ff f97a 	bl	8000568 <COUNT>
 8001274:	f7ff fce6 	bl	8000c44 <TYPEE>
 8001278:	f7ff f81f 	bl	80002ba <DOLIT>
 800127c:	0000003f 	andeq	r0, r0, pc, lsr r0
 8001280:	f7ff f80e 	bl	80002a0 <EMIT>
 8001284:	f7ff fcf2 	bl	8000c6c <CR>
 8001288:	f000 f88a 	bl	80013a0 <PRESE>
 800128c:	f000 b892 	b.w	80013b4 <QUIT>

08001290 <ABORQ>:
 8001290:	f842 ed04 	str.w	lr, [r2, #-4]!
 8001294:	f7ff fcfa 	bl	8000c8c <DOSTR>
 8001298:	f7ff f86c 	bl	8000374 <SWAP>
 800129c:	f7ff f82a 	bl	80002f4 <QBRAN>
 80012a0:	200012a6 	andcs	r1, r0, r6, lsr #5
 80012a4:	e7e4      	b.n	8001270 <ABORT1>
 80012a6:	f7ff f85d 	bl	8000364 <DROP>
 80012aa:	f852 fb04 	ldr.w	pc, [r2], #4
 80012ae:	bf00      	nop

080012b0 <INTER>:
 80012b0:	f842 ed04 	str.w	lr, [r2, #-4]!
 80012b4:	f7ff ff24 	bl	8001100 <NAMEQ>
 80012b8:	f7ff f8da 	bl	8000470 <QDUP>
 80012bc:	f7ff f81a 	bl	80002f4 <QBRAN>
 80012c0:	200012f0 	strdcs	r1, [r0], -r0
 80012c4:	f7ff f830 	bl	8000328 <AT>
 80012c8:	f7fe fff7 	bl	80002ba <DOLIT>
 80012cc:	00000040 	andeq	r0, r0, r0, asr #32
 80012d0:	f7ff f85e 	bl	8000390 <ANDD>
 80012d4:	f7ff ffdc 	bl	8001290 <ABORQ>
 80012d8:	6f63200d 	svcvs	0x0063200d
 80012dc:	6c69706d 	stclvs	0, cr7, [r9], #-436	; 0xfffffe4c
 80012e0:	6e6f2065 	cdpvs	0, 6, cr2, cr15, cr5, {3}
 80012e4:	bf00796c 	svclt	0x0000796c
 80012e8:	f7fe fff0 	bl	80002cc <EXECU>
 80012ec:	f852 fb04 	ldr.w	pc, [r2], #4

080012f0 <INTE1>:
 80012f0:	f7ff fbec 	bl	8000acc <NUMBQ>
 80012f4:	f7fe fffe 	bl	80002f4 <QBRAN>
 80012f8:	20001300 	andcs	r1, r0, r0, lsl #6
 80012fc:	f852 fb04 	ldr.w	pc, [r2], #4

08001300 <INTE2>:
 8001300:	f7ff bfb2 	b.w	8001268 <ABORT>

08001304 <LBRAC>:
 8001304:	f842 ed04 	str.w	lr, [r2, #-4]!
 8001308:	f7fe ffd7 	bl	80002ba <DOLIT>
 800130c:	200012b0 			; <UNDEFINED> instruction: 0x200012b0
 8001310:	f7ff f978 	bl	8000604 <TEVAL>
 8001314:	f7ff f802 	bl	800031c <STORE>
 8001318:	f852 fb04 	ldr.w	pc, [r2], #4

0800131c <DOTOK>:
 800131c:	f842 ed04 	str.w	lr, [r2, #-4]!
 8001320:	f7fe ffcb 	bl	80002ba <DOLIT>
 8001324:	200012b0 			; <UNDEFINED> instruction: 0x200012b0
 8001328:	f7ff f96c 	bl	8000604 <TEVAL>
 800132c:	f7fe fffc 	bl	8000328 <AT>
 8001330:	f7ff f8d6 	bl	80004e0 <EQUAL>
 8001334:	f7fe ffde 	bl	80002f4 <QBRAN>
 8001338:	20001344 	andcs	r1, r0, r4, asr #6
 800133c:	f7ff fcce 	bl	8000cdc <DOTQP>
 8001340:	6b6f2003 	blvs	9bc9354 <FLASH_HIDDEN_END+0x1ba9354>

08001344 <DOTO1>:
 8001344:	f7ff fc92 	bl	8000c6c <CR>
 8001348:	f852 fb04 	ldr.w	pc, [r2], #4

0800134c <QSTAC>:
 800134c:	f842 ed04 	str.w	lr, [r2, #-4]!
 8001350:	f7ff fa50 	bl	80007f4 <DEPTH>
 8001354:	f7ff f816 	bl	8000384 <ZLESS>
 8001358:	f7ff ff9a 	bl	8001290 <ABORQ>
 800135c:	6e75200a 	cdpvs	0, 7, cr2, cr5, cr10, {0}
 8001360:	66726564 	ldrbtvs	r6, [r2], -r4, ror #10
 8001364:	00776f6c 	rsbseq	r6, r7, ip, ror #30
 8001368:	f852 fb04 	ldr.w	pc, [r2], #4

0800136c <EVAL>:
 800136c:	f842 ed04 	str.w	lr, [r2, #-4]!

08001370 <EVAL1>:
 8001370:	f7ff fe16 	bl	8000fa0 <TOKEN>
 8001374:	f7fe fffa 	bl	800036c <DUPP>
 8001378:	f7fe ffde 	bl	8000338 <CAT>
 800137c:	f7fe ffba 	bl	80002f4 <QBRAN>
 8001380:	20001394 	mulcs	r0, r4, r3
 8001384:	f7ff f93e 	bl	8000604 <TEVAL>
 8001388:	f7ff fa62 	bl	8000850 <ATEXE>
 800138c:	f7ff ffde 	bl	800134c <QSTAC>
 8001390:	f7ff bfee 	b.w	8001370 <EVAL1>

08001394 <EVAL2>:
 8001394:	f7fe ffe6 	bl	8000364 <DROP>
 8001398:	f7ff ffc0 	bl	800131c <DOTOK>
 800139c:	f852 fb04 	ldr.w	pc, [r2], #4

080013a0 <PRESE>:
 80013a0:	f842 ed04 	str.w	lr, [r2, #-4]!
 80013a4:	f44f 419d 	mov.w	r1, #20096	; 0x4e80
 80013a8:	f2c2 0100 	movt	r1, #8192	; 0x2000
 80013ac:	ea85 0505 	eor.w	r5, r5, r5
 80013b0:	f852 fb04 	ldr.w	pc, [r2], #4

080013b4 <QUIT>:
 80013b4:	f842 ed04 	str.w	lr, [r2, #-4]!
 80013b8:	f44f 429f 	mov.w	r2, #20352	; 0x4f80
 80013bc:	f2c2 0200 	movt	r2, #8192	; 0x2000

080013c0 <QUIT1>:
 80013c0:	f7ff ffa0 	bl	8001304 <LBRAC>

080013c4 <QUIT2>:
 80013c4:	f7ff ff36 	bl	8001234 <QUERY>
 80013c8:	f7ff ffd0 	bl	800136c <EVAL>
 80013cc:	f7fe ff9e 	bl	800030c <BRAN>
 80013d0:	200013c4 	andcs	r1, r0, r4, asr #7

080013d4 <UNLOCK>:
 80013d4:	f842 ed04 	str.w	lr, [r2, #-4]!
 80013d8:	f7fe ff8c 	bl	80002f4 <QBRAN>
 80013dc:	200013fc 	strdcs	r1, [r0], -ip
 80013e0:	48d5      	ldr	r0, [pc, #852]	; (8001738 <flash_regs>)
 80013e2:	f04f 0434 	mov.w	r4, #52	; 0x34
 80013e6:	60c4      	str	r4, [r0, #12]
 80013e8:	6904      	ldr	r4, [r0, #16]
 80013ea:	f014 0f80 	tst.w	r4, #128	; 0x80
 80013ee:	d003      	beq.n	80013f8 <UNLOCK+0x24>
 80013f0:	4cd2      	ldr	r4, [pc, #840]	; (800173c <flash_regs+0x4>)
 80013f2:	6044      	str	r4, [r0, #4]
 80013f4:	4cd2      	ldr	r4, [pc, #840]	; (8001740 <flash_regs+0x8>)
 80013f6:	6044      	str	r4, [r0, #4]
 80013f8:	f852 fb04 	ldr.w	pc, [r2], #4

080013fc <LOCK>:
 80013fc:	48ce      	ldr	r0, [pc, #824]	; (8001738 <flash_regs>)
 80013fe:	f04f 0480 	mov.w	r4, #128	; 0x80
 8001402:	6104      	str	r4, [r0, #16]
 8001404:	f852 fb04 	ldr.w	pc, [r2], #4

08001408 <WAIT_BSY>:
 8001408:	48cb      	ldr	r0, [pc, #812]	; (8001738 <flash_regs>)

0800140a <WAIT1>:
 800140a:	68c4      	ldr	r4, [r0, #12]
 800140c:	f014 0401 	ands.w	r4, r4, #1
 8001410:	d1fb      	bne.n	800140a <WAIT1>
 8001412:	4770      	bx	lr

08001414 <EPAGE>:
 8001414:	f842 ed04 	str.w	lr, [r2, #-4]!
 8001418:	f7ff fff6 	bl	8001408 <WAIT_BSY>
 800141c:	f7fe ff4d 	bl	80002ba <DOLIT>
 8001420:	00000001 	andeq	r0, r0, r1
 8001424:	f7ff ffd6 	bl	80013d4 <UNLOCK>
 8001428:	48c3      	ldr	r0, [pc, #780]	; (8001738 <flash_regs>)
 800142a:	f04f 0402 	mov.w	r4, #2
 800142e:	6104      	str	r4, [r0, #16]
 8001430:	6145      	str	r5, [r0, #20]
 8001432:	6904      	ldr	r4, [r0, #16]
 8001434:	f044 0440 	orr.w	r4, r4, #64	; 0x40
 8001438:	6104      	str	r4, [r0, #16]
 800143a:	f7ff ffe5 	bl	8001408 <WAIT_BSY>
 800143e:	f7fe ff3c 	bl	80002ba <DOLIT>
 8001442:	00000000 	andeq	r0, r0, r0
 8001446:	f7ff ffc5 	bl	80013d4 <UNLOCK>
 800144a:	68c5      	ldr	r5, [r0, #12]
 800144c:	f005 0514 	and.w	r5, r5, #20
 8001450:	f7ff ff1e 	bl	8001290 <ABORQ>
 8001454:	7265200d 	rsbvc	r2, r5, #13
 8001458:	20657361 	rsbcs	r7, r5, r1, ror #6
 800145c:	6f727265 	svcvs	0x00727265
 8001460:	bf002172 	svclt	0x00002172
 8001464:	f852 fb04 	ldr.w	pc, [r2], #4

08001468 <HWORD_WRITE>:
 8001468:	f842 ed04 	str.w	lr, [r2, #-4]!
 800146c:	6904      	ldr	r4, [r0, #16]
 800146e:	f04f 0401 	mov.w	r4, #1
 8001472:	6104      	str	r4, [r0, #16]
 8001474:	462e      	mov	r6, r5
 8001476:	f851 5b04 	ldr.w	r5, [r1], #4
 800147a:	8035      	strh	r5, [r6, #0]
 800147c:	f7ff ffc4 	bl	8001408 <WAIT_BSY>
 8001480:	68c5      	ldr	r5, [r0, #12]
 8001482:	f005 0514 	and.w	r5, r5, #20
 8001486:	f7fe ff35 	bl	80002f4 <QBRAN>
 800148a:	200014a0 	andcs	r1, r0, r0, lsr #9
 800148e:	f7ff feff 	bl	8001290 <ABORQ>
 8001492:	7277200d 	rsbsvc	r2, r7, #13
 8001496:	20657469 	rsbcs	r7, r5, r9, ror #8
 800149a:	6f727265 	svcvs	0x00727265
 800149e:	f8522172 			; <UNDEFINED> instruction: 0xf8522172
 80014a2:	fb04  			; <UNDEFINED> instruction: 0xfb04f842

080014a4 <ISTOR>:
 80014a4:	f842 ed04 	str.w	lr, [r2, #-4]!
 80014a8:	f7ff ffae 	bl	8001408 <WAIT_BSY>
 80014ac:	f7fe ff05 	bl	80002ba <DOLIT>
 80014b0:	00000001 	andeq	r0, r0, r1
 80014b4:	f7ff ff8e 	bl	80013d4 <UNLOCK>
 80014b8:	f7fe ffec 	bl	8000494 <DDUP>
 80014bc:	f7fe ff48 	bl	8000350 <TOR>
 80014c0:	f7fe ff46 	bl	8000350 <TOR>
 80014c4:	f7ff ffd0 	bl	8001468 <HWORD_WRITE>
 80014c8:	f7fe ff38 	bl	800033c <RFROM>
 80014cc:	ea4f 4535 	mov.w	r5, r5, ror #16
 80014d0:	f7fe ff34 	bl	800033c <RFROM>
 80014d4:	f105 0502 	add.w	r5, r5, #2
 80014d8:	f7ff ffc6 	bl	8001468 <HWORD_WRITE>
 80014dc:	f7fe feed 	bl	80002ba <DOLIT>
 80014e0:	00000000 	andeq	r0, r0, r0
 80014e4:	f7ff ff76 	bl	80013d4 <UNLOCK>
 80014e8:	f852 fb04 	ldr.w	pc, [r2], #4

080014ec <IMG_SIZE>:
 80014ec:	f842 ed04 	str.w	lr, [r2, #-4]!
 80014f0:	f7fe fee3 	bl	80002ba <DOLIT>
 80014f4:	00000038 	andeq	r0, r0, r8, lsr r0
 80014f8:	f7ff f8ae 	bl	8000658 <USER_END>
 80014fc:	f7ff f8a6 	bl	800064c <USER_BEGIN>
 8001500:	f7fe ff70 	bl	80003e4 <SUBB>
 8001504:	f7fe ff6a 	bl	80003dc <PLUS>
 8001508:	f7fe fed7 	bl	80002ba <DOLIT>
 800150c:	00000400 	andeq	r0, r0, r0, lsl #8
 8001510:	f7ff f914 	bl	800073c <SLMOD>
 8001514:	f7fe ff2e 	bl	8000374 <SWAP>
 8001518:	f7fe feec 	bl	80002f4 <QBRAN>
 800151c:	20001524 	andcs	r1, r0, r4, lsr #10
 8001520:	f7fe ff78 	bl	8000414 <ONEP>
 8001524:	f852 fb04 	ldr.w	pc, [r2], #4

08001528 <IMGQ>:
 8001528:	f842 ed04 	str.w	lr, [r2, #-4]!
 800152c:	f7ff f89c 	bl	8000668 <IMG_ADR>
 8001530:	f7fe fefa 	bl	8000328 <AT>
 8001534:	f7ff f89e 	bl	8000674 <IMG_SIGN>
 8001538:	f7fe fef6 	bl	8000328 <AT>
 800153c:	f7fe ff34 	bl	80003a8 <XORR>
 8001540:	f7fe ffc6 	bl	80004d0 <ZEQUAL>
 8001544:	f852 fb04 	ldr.w	pc, [r2], #4

08001548 <LOAD_IMG>:
 8001548:	f842 ed04 	str.w	lr, [r2, #-4]!
 800154c:	f7ff ffec 	bl	8001528 <IMGQ>
 8001550:	f7fe fed0 	bl	80002f4 <QBRAN>
 8001554:	2000159c 	mulcs	r0, ip, r5
 8001558:	f7ff f886 	bl	8000668 <IMG_ADR>
 800155c:	f7fe ff06 	bl	800036c <DUPP>
 8001560:	f7fe fef6 	bl	8000350 <TOR>
 8001564:	f7ff f886 	bl	8000674 <IMG_SIGN>
 8001568:	f841 5d04 	str.w	r5, [r1, #-4]!
 800156c:	f04f 0538 	mov.w	r5, #56	; 0x38
 8001570:	f7fe fefc 	bl	800036c <DUPP>
 8001574:	f7fe feec 	bl	8000350 <TOR>
 8001578:	f7ff f986 	bl	8000888 <MOVE>
 800157c:	f7fe fede 	bl	800033c <RFROM>
 8001580:	f7fe fedc 	bl	800033c <RFROM>
 8001584:	f7fe ff2a 	bl	80003dc <PLUS>
 8001588:	f7ff f860 	bl	800064c <USER_BEGIN>
 800158c:	f7ff f94c 	bl	8000828 <HERE>
 8001590:	f7fe fef4 	bl	800037c <OVER>
 8001594:	f7fe ff26 	bl	80003e4 <SUBB>
 8001598:	f7ff f976 	bl	8000888 <MOVE>
 800159c:	f852 fb04 	ldr.w	pc, [r2], #4

080015a0 <ERASE_MPG>:
 80015a0:	f842 ed04 	str.w	lr, [r2, #-4]!
 80015a4:	f7fe fed4 	bl	8000350 <TOR>
 80015a8:	f000 f840 	bl	800162c <PG_TO_ADR>
 80015ac:	f7fe feae 	bl	800030c <BRAN>
 80015b0:	200015c8 	andcs	r1, r0, r8, asr #11
 80015b4:	f7fe feda 	bl	800036c <DUPP>
 80015b8:	f7fe feca 	bl	8000350 <TOR>
 80015bc:	f7ff ff2a 	bl	8001414 <EPAGE>
 80015c0:	f7fe febc 	bl	800033c <RFROM>
 80015c4:	f505 6580 	add.w	r5, r5, #1024	; 0x400
 80015c8:	f7fe fe85 	bl	80002d6 <DONXT>
 80015cc:	200015b4 			; <UNDEFINED> instruction: 0x200015b4
 80015d0:	f851 5b04 	ldr.w	r5, [r1], #4
 80015d4:	f852 fb04 	ldr.w	pc, [r2], #4

080015d8 <FLSH_WR>:
 80015d8:	f842 ed04 	str.w	lr, [r2, #-4]!
 80015dc:	f7fe feb8 	bl	8000350 <TOR>
 80015e0:	f7fe fe94 	bl	800030c <BRAN>
 80015e4:	20001608 	andcs	r1, r0, r8, lsl #12
 80015e8:	f7fe feb2 	bl	8000350 <TOR>
 80015ec:	f7fe febe 	bl	800036c <DUPP>
 80015f0:	f7fe fe9a 	bl	8000328 <AT>
 80015f4:	f7fe fea8 	bl	8000348 <RAT>
 80015f8:	f7ff ff54 	bl	80014a4 <ISTOR>
 80015fc:	f7fe ff1a 	bl	8000434 <CELLP>
 8001600:	f7fe fe9c 	bl	800033c <RFROM>
 8001604:	f7fe ff16 	bl	8000434 <CELLP>
 8001608:	f7fe fe65 	bl	80002d6 <DONXT>
 800160c:	200015e8 	andcs	r1, r0, r8, ror #11
 8001610:	f7fe fe9e 	bl	8000350 <TOR>
 8001614:	f7fe fea6 	bl	8000364 <DROP>
 8001618:	f7fe fe90 	bl	800033c <RFROM>
 800161c:	f852 fb04 	ldr.w	pc, [r2], #4

08001620 <ADR_TO_PG>:
 8001620:	ea4f 2595 	mov.w	r5, r5, lsr #10
 8001624:	f005 057f 	and.w	r5, r5, #127	; 0x7f
 8001628:	4770      	bx	lr
 800162a:	bf00      	nop

0800162c <PG_TO_ADR>:
 800162c:	f2c0 0502 	movt	r5, #2
 8001630:	ea4f 2585 	mov.w	r5, r5, lsl #10
 8001634:	4770      	bx	lr
 8001636:	bf00      	nop

08001638 <ERASE_IMG>:
 8001638:	f842 ed04 	str.w	lr, [r2, #-4]!
 800163c:	f7ff f814 	bl	8000668 <IMG_ADR>
 8001640:	f7ff ff54 	bl	80014ec <IMG_SIZE>
 8001644:	f7fe fe84 	bl	8000350 <TOR>
 8001648:	f7fe fe60 	bl	800030c <BRAN>
 800164c:	2000165c 	andcs	r1, r0, ip, asr r6
 8001650:	f7fe fe8c 	bl	800036c <DUPP>
 8001654:	f7ff fede 	bl	8001414 <EPAGE>
 8001658:	f505 6580 	add.w	r5, r5, #1024	; 0x400
 800165c:	f7fe fe3b 	bl	80002d6 <DONXT>
 8001660:	20001650 	andcs	r1, r0, r0, asr r6
 8001664:	f7fe fe7e 	bl	8000364 <DROP>
 8001668:	f852 fb04 	ldr.w	pc, [r2], #4

0800166c <SAVE_IMG>:
 800166c:	f842 ed04 	str.w	lr, [r2, #-4]!
 8001670:	f7ff f8da 	bl	8000828 <HERE>
 8001674:	f7fe ffea 	bl	800064c <USER_BEGIN>
 8001678:	f7fe ff32 	bl	80004e0 <EQUAL>
 800167c:	f7fe fe3a 	bl	80002f4 <QBRAN>
 8001680:	20001688 	andcs	r1, r0, r8, lsl #13
 8001684:	f852 fb04 	ldr.w	pc, [r2], #4
 8001688:	f7ff ff4e 	bl	8001528 <IMGQ>
 800168c:	f7fe fe32 	bl	80002f4 <QBRAN>
 8001690:	20001698 	mulcs	r0, r8, r6
 8001694:	f7ff ffd0 	bl	8001638 <ERASE_IMG>
 8001698:	f7fe ffec 	bl	8000674 <IMG_SIGN>
 800169c:	f7fe ffe4 	bl	8000668 <IMG_ADR>
 80016a0:	f841 5d04 	str.w	r5, [r1, #-4]!
 80016a4:	f04f 0538 	mov.w	r5, #56	; 0x38
 80016a8:	f7fe fed6 	bl	8000458 <CELLSL>
 80016ac:	f7ff ff94 	bl	80015d8 <FLSH_WR>
 80016b0:	f7fe ffcc 	bl	800064c <USER_BEGIN>
 80016b4:	f7fe fe5e 	bl	8000374 <SWAP>
 80016b8:	f7ff f8b6 	bl	8000828 <HERE>
 80016bc:	f7fe ffc6 	bl	800064c <USER_BEGIN>
 80016c0:	f7fe fe90 	bl	80003e4 <SUBB>
 80016c4:	f7fe fec8 	bl	8000458 <CELLSL>
 80016c8:	f7ff ff86 	bl	80015d8 <FLSH_WR>
 80016cc:	f852 fb04 	ldr.w	pc, [r2], #4

080016d0 <TURNKEY>:
 80016d0:	f842 ed04 	str.w	lr, [r2, #-4]!
 80016d4:	f000 f836 	bl	8001744 <TICK>
 80016d8:	f7fe ff72 	bl	80005c0 <TBOOT>
 80016dc:	f7fe fe1e 	bl	800031c <STORE>
 80016e0:	f7ff ffc4 	bl	800166c <SAVE_IMG>
 80016e4:	f852 fb04 	ldr.w	pc, [r2], #4

080016e8 <FORGET>:
 80016e8:	f842 ed04 	str.w	lr, [r2, #-4]!
 80016ec:	f7ff fc58 	bl	8000fa0 <TOKEN>
 80016f0:	f7fe fe3c 	bl	800036c <DUPP>
 80016f4:	f7fe fdfe 	bl	80002f4 <QBRAN>
 80016f8:	f7fe fddf 	bl	80002ba <DOLIT>
 80016fc:	20001734 	andcs	r1, r0, r4, lsr r7
 8001700:	f7ff fcfe 	bl	8001100 <NAMEQ>
 8001704:	f7fe feb4 	bl	8000470 <QDUP>
 8001708:	f7fe fdf4 	bl	80002f4 <QBRAN>
 800170c:	20001730 	andcs	r1, r0, r0, lsr r7
 8001710:	f7fe fe94 	bl	800043c <CELLM>
 8001714:	f7fe fe2a 	bl	800036c <DUPP>
 8001718:	f7fe ff86 	bl	8000628 <CPP>
 800171c:	f7fe fdfe 	bl	800031c <STORE>
 8001720:	f7fe fe02 	bl	8000328 <AT>
 8001724:	f7fe ff8c 	bl	8000640 <LAST>
 8001728:	f7fe fdf8 	bl	800031c <STORE>
 800172c:	f000 f9a0 	bl	8001a70 <OVERT>
 8001730:	f7fe fe18 	bl	8000364 <DROP>
 8001734:	f852 fb04 	ldr.w	pc, [r2], #4

08001738 <flash_regs>:
 8001738:	40022000 	andmi	r2, r2, r0
 800173c:	45670123 	strbmi	r0, [r7, #-291]!	; 0xfffffedd
 8001740:	cdef89ab 			; <UNDEFINED> instruction: 0xcdef89ab

08001744 <TICK>:
 8001744:	f842 ed04 	str.w	lr, [r2, #-4]!
 8001748:	f7ff fc2a 	bl	8000fa0 <TOKEN>
 800174c:	f7ff fcd8 	bl	8001100 <NAMEQ>
 8001750:	f7fe fdd0 	bl	80002f4 <QBRAN>
 8001754:	2000175c 	andcs	r1, r0, ip, asr r7
 8001758:	f852 fb04 	ldr.w	pc, [r2], #4

0800175c <TICK1>:
 800175c:	f7ff bd84 	b.w	8001268 <ABORT>

08001760 <ALLOT>:
 8001760:	f842 ed04 	str.w	lr, [r2, #-4]!
 8001764:	f7fe ff60 	bl	8000628 <CPP>
 8001768:	f7fe fee6 	bl	8000538 <PSTOR>
 800176c:	f852 fb04 	ldr.w	pc, [r2], #4

08001770 <COMMA>:
 8001770:	f842 ed04 	str.w	lr, [r2, #-4]!
 8001774:	f7ff f858 	bl	8000828 <HERE>
 8001778:	f7fe fdf8 	bl	800036c <DUPP>
 800177c:	f7fe fe5a 	bl	8000434 <CELLP>
 8001780:	f7fe ff52 	bl	8000628 <CPP>
 8001784:	f7fe fdca 	bl	800031c <STORE>
 8001788:	f7fe fdc8 	bl	800031c <STORE>
 800178c:	f852 fb04 	ldr.w	pc, [r2], #4

08001790 <BCOMP>:
 8001790:	f842 ed04 	str.w	lr, [r2, #-4]!
 8001794:	f7ff ffd6 	bl	8001744 <TICK>
 8001798:	f7ff ffea 	bl	8001770 <COMMA>
 800179c:	f852 fb04 	ldr.w	pc, [r2], #4

080017a0 <COMPI>:
 80017a0:	f842 ed04 	str.w	lr, [r2, #-4]!
 80017a4:	f7fe fdca 	bl	800033c <RFROM>
 80017a8:	f025 0501 	bic.w	r5, r5, #1
 80017ac:	f7fe fdde 	bl	800036c <DUPP>
 80017b0:	f7fe fdba 	bl	8000328 <AT>
 80017b4:	f000 f9a3 	bl	8001afe <CALLC>
 80017b8:	f7fe fe3c 	bl	8000434 <CELLP>
 80017bc:	f045 0501 	orr.w	r5, r5, #1
 80017c0:	f7fe fdc6 	bl	8000350 <TOR>
 80017c4:	f852 fb04 	ldr.w	pc, [r2], #4

080017c8 <LITER>:
 80017c8:	20002f34 	andcs	r2, r0, r4, lsr pc
 80017cc:	f842 ed04 	str.w	lr, [r2, #-4]!
 80017d0:	f7ff ffe6 	bl	80017a0 <COMPI>
 80017d4:	200002ba 			; <UNDEFINED> instruction: 0x200002ba
 80017d8:	f7ff ffca 	bl	8001770 <COMMA>
 80017dc:	f852 fb04 	ldr.w	pc, [r2], #4

080017e0 <STRCQ>:
 80017e0:	f842 ed04 	str.w	lr, [r2, #-4]!
 80017e4:	f7fe fd69 	bl	80002ba <DOLIT>
 80017e8:	fffffffc 			; <UNDEFINED> instruction: 0xfffffffc
 80017ec:	f7fe ff1c 	bl	8000628 <CPP>
 80017f0:	f7fe fea2 	bl	8000538 <PSTOR>
 80017f4:	f7fe fd61 	bl	80002ba <DOLIT>
 80017f8:	00000022 	andeq	r0, r0, r2, lsr #32
 80017fc:	f7ff fbc4 	bl	8000f88 <WORDD>
 8001800:	f7fe feb2 	bl	8000568 <COUNT>
 8001804:	f7fe fdea 	bl	80003dc <PLUS>
 8001808:	f7fe ffcc 	bl	80007a4 <ALGND>
 800180c:	f7fe ff0c 	bl	8000628 <CPP>
 8001810:	f7fe fd84 	bl	800031c <STORE>
 8001814:	f852 fb04 	ldr.w	pc, [r2], #4

08001818 <FOR>:
 8001818:	f842 ed04 	str.w	lr, [r2, #-4]!
 800181c:	f7ff ffc0 	bl	80017a0 <COMPI>
 8001820:	20000350 	andcs	r0, r0, r0, asr r3
 8001824:	f7ff f800 	bl	8000828 <HERE>
 8001828:	f852 fb04 	ldr.w	pc, [r2], #4

0800182c <BEGIN>:
 800182c:	f842 ed04 	str.w	lr, [r2, #-4]!
 8001830:	f7fe fffa 	bl	8000828 <HERE>
 8001834:	f852 fb04 	ldr.w	pc, [r2], #4

08001838 <NEXT>:
 8001838:	f842 ed04 	str.w	lr, [r2, #-4]!
 800183c:	f7ff ffb0 	bl	80017a0 <COMPI>
 8001840:	200002d6 	ldrdcs	r0, [r0], -r6
 8001844:	f7ff ff94 	bl	8001770 <COMMA>
 8001848:	f852 fb04 	ldr.w	pc, [r2], #4

0800184c <UNTIL>:
 800184c:	f842 ed04 	str.w	lr, [r2, #-4]!
 8001850:	f7ff ffa6 	bl	80017a0 <COMPI>
 8001854:	200002f4 	strdcs	r0, [r0], -r4
 8001858:	f7ff ff8a 	bl	8001770 <COMMA>
 800185c:	f852 fb04 	ldr.w	pc, [r2], #4

08001860 <AGAIN>:
 8001860:	f842 ed04 	str.w	lr, [r2, #-4]!
 8001864:	f7ff ff9c 	bl	80017a0 <COMPI>
 8001868:	2000030c 	andcs	r0, r0, ip, lsl #6
 800186c:	f7ff ff80 	bl	8001770 <COMMA>
 8001870:	f852 fb04 	ldr.w	pc, [r2], #4

08001874 <IFF>:
 8001874:	f842 ed04 	str.w	lr, [r2, #-4]!
 8001878:	f7ff ff92 	bl	80017a0 <COMPI>
 800187c:	200002f4 	strdcs	r0, [r0], -r4
 8001880:	f7fe ffd2 	bl	8000828 <HERE>
 8001884:	f7fe fd19 	bl	80002ba <DOLIT>
 8001888:	00000004 	andeq	r0, r0, r4
 800188c:	f7fe fecc 	bl	8000628 <CPP>
 8001890:	f7fe fe52 	bl	8000538 <PSTOR>
 8001894:	f852 fb04 	ldr.w	pc, [r2], #4

08001898 <AHEAD>:
 8001898:	f842 ed04 	str.w	lr, [r2, #-4]!
 800189c:	f7ff ff80 	bl	80017a0 <COMPI>
 80018a0:	2000030c 	andcs	r0, r0, ip, lsl #6
 80018a4:	f7fe ffc0 	bl	8000828 <HERE>
 80018a8:	f7fe fd07 	bl	80002ba <DOLIT>
 80018ac:	00000004 	andeq	r0, r0, r4
 80018b0:	f7fe feba 	bl	8000628 <CPP>
 80018b4:	f7fe fe40 	bl	8000538 <PSTOR>
 80018b8:	f852 fb04 	ldr.w	pc, [r2], #4

080018bc <REPEA>:
 80018bc:	f842 ed04 	str.w	lr, [r2, #-4]!
 80018c0:	f7ff ffce 	bl	8001860 <AGAIN>
 80018c4:	f7fe ffb0 	bl	8000828 <HERE>
 80018c8:	f7fe fd54 	bl	8000374 <SWAP>
 80018cc:	f7fe fd26 	bl	800031c <STORE>
 80018d0:	f852 fb04 	ldr.w	pc, [r2], #4

080018d4 <THENN>:
 80018d4:	f842 ed04 	str.w	lr, [r2, #-4]!
 80018d8:	f7fe ffa6 	bl	8000828 <HERE>
 80018dc:	f7fe fd4a 	bl	8000374 <SWAP>
 80018e0:	f7fe fd1c 	bl	800031c <STORE>
 80018e4:	f852 fb04 	ldr.w	pc, [r2], #4

080018e8 <AFT>:
 80018e8:	f842 ed04 	str.w	lr, [r2, #-4]!
 80018ec:	f7fe fd3a 	bl	8000364 <DROP>
 80018f0:	f7ff ffd2 	bl	8001898 <AHEAD>
 80018f4:	f7ff ff9a 	bl	800182c <BEGIN>
 80018f8:	f7fe fd3c 	bl	8000374 <SWAP>
 80018fc:	f852 fb04 	ldr.w	pc, [r2], #4

08001900 <ELSEE>:
 8001900:	f842 ed04 	str.w	lr, [r2, #-4]!
 8001904:	f7ff ffc8 	bl	8001898 <AHEAD>
 8001908:	f7fe fd34 	bl	8000374 <SWAP>
 800190c:	f7ff ffe2 	bl	80018d4 <THENN>
 8001910:	f852 fb04 	ldr.w	pc, [r2], #4

08001914 <WHILE>:
 8001914:	f842 ed04 	str.w	lr, [r2, #-4]!
 8001918:	f7ff ffac 	bl	8001874 <IFF>
 800191c:	f7fe fd2a 	bl	8000374 <SWAP>
 8001920:	f852 fb04 	ldr.w	pc, [r2], #4

08001924 <ABRTQ>:
 8001924:	f842 ed04 	str.w	lr, [r2, #-4]!
 8001928:	f7ff ff3a 	bl	80017a0 <COMPI>
 800192c:	20001290 	mulcs	r0, r0, r2
 8001930:	f7ff ff56 	bl	80017e0 <STRCQ>
 8001934:	f852 fb04 	ldr.w	pc, [r2], #4

08001938 <STRQ>:
 8001938:	f842 ed04 	str.w	lr, [r2, #-4]!
 800193c:	f7ff ff30 	bl	80017a0 <COMPI>
 8001940:	20000cc0 	andcs	r0, r0, r0, asr #25
 8001944:	f7ff ff4c 	bl	80017e0 <STRCQ>
 8001948:	f852 fb04 	ldr.w	pc, [r2], #4

0800194c <DOTQ>:
 800194c:	f842 ed04 	str.w	lr, [r2, #-4]!
 8001950:	f7ff ff26 	bl	80017a0 <COMPI>
 8001954:	20000cdc 	ldrdcs	r0, [r0], -ip
 8001958:	f7ff ff42 	bl	80017e0 <STRCQ>
 800195c:	f852 fb04 	ldr.w	pc, [r2], #4

08001960 <UNIQU>:
 8001960:	f842 ed04 	str.w	lr, [r2, #-4]!
 8001964:	f7fe fd02 	bl	800036c <DUPP>
 8001968:	f7ff fbca 	bl	8001100 <NAMEQ>
 800196c:	f7fe fcc2 	bl	80002f4 <QBRAN>
 8001970:	2000198c 	andcs	r1, r0, ip, lsl #19
 8001974:	f7ff f9b2 	bl	8000cdc <DOTQP>
 8001978:	65722007 	ldrbvs	r2, [r2, #-7]!
 800197c:	20666544 	rsbcs	r6, r6, r4, asr #10
 8001980:	f7fe fcfc 	bl	800037c <OVER>
 8001984:	f7fe fdf0 	bl	8000568 <COUNT>
 8001988:	f7ff f95c 	bl	8000c44 <TYPEE>

0800198c <UNIQ1>:
 800198c:	f7fe fcea 	bl	8000364 <DROP>
 8001990:	f852 fb04 	ldr.w	pc, [r2], #4

08001994 <SNAME>:
 8001994:	f842 ed04 	str.w	lr, [r2, #-4]!
 8001998:	f7fe fce8 	bl	800036c <DUPP>
 800199c:	f7fe fccc 	bl	8000338 <CAT>
 80019a0:	f7fe fca8 	bl	80002f4 <QBRAN>
 80019a4:	200019dc 	ldrdcs	r1, [r0], -ip
 80019a8:	f7ff ffda 	bl	8001960 <UNIQU>
 80019ac:	f7fe fe48 	bl	8000640 <LAST>
 80019b0:	f7fe fcba 	bl	8000328 <AT>
 80019b4:	f7ff fedc 	bl	8001770 <COMMA>
 80019b8:	f7fe fcd8 	bl	800036c <DUPP>
 80019bc:	f7fe fe40 	bl	8000640 <LAST>
 80019c0:	f7fe fcac 	bl	800031c <STORE>
 80019c4:	f7fe fdd0 	bl	8000568 <COUNT>
 80019c8:	f7fe fd08 	bl	80003dc <PLUS>
 80019cc:	f7fe feea 	bl	80007a4 <ALGND>
 80019d0:	f7fe fe2a 	bl	8000628 <CPP>
 80019d4:	f7fe fca2 	bl	800031c <STORE>
 80019d8:	f852 fb04 	ldr.w	pc, [r2], #4

080019dc <SNAM1>:
 80019dc:	f7ff f970 	bl	8000cc0 <STRQP>
 80019e0:	616e2007 	cmnvs	lr, r7
 80019e4:	203f656d 	eorscs	r6, pc, sp, ror #10
 80019e8:	f7ff bc3e 	b.w	8001268 <ABORT>

080019ec <SCOMP>:
 80019ec:	f842 ed04 	str.w	lr, [r2, #-4]!
 80019f0:	f7ff fb86 	bl	8001100 <NAMEQ>
 80019f4:	f7fe fd3c 	bl	8000470 <QDUP>
 80019f8:	f7fe fc7c 	bl	80002f4 <QBRAN>
 80019fc:	20001a28 	andcs	r1, r0, r8, lsr #20
 8001a00:	f7fe fc92 	bl	8000328 <AT>
 8001a04:	f7fe fc59 	bl	80002ba <DOLIT>
 8001a08:	00000080 	andeq	r0, r0, r0, lsl #1
 8001a0c:	f7fe fcc0 	bl	8000390 <ANDD>
 8001a10:	f7fe fc70 	bl	80002f4 <QBRAN>
 8001a14:	20001a20 	andcs	r1, r0, r0, lsr #20
 8001a18:	f7fe fc58 	bl	80002cc <EXECU>
 8001a1c:	f852 fb04 	ldr.w	pc, [r2], #4

08001a20 <SCOM1>:
 8001a20:	f000 f86d 	bl	8001afe <CALLC>
 8001a24:	f852 fb04 	ldr.w	pc, [r2], #4

08001a28 <SCOM2>:
 8001a28:	f7ff f850 	bl	8000acc <NUMBQ>
 8001a2c:	f7fe fc62 	bl	80002f4 <QBRAN>
 8001a30:	20001a3c 	andcs	r1, r0, ip, lsr sl
 8001a34:	f7ff fec8 	bl	80017c8 <LITER>
 8001a38:	f852 fb04 	ldr.w	pc, [r2], #4

08001a3c <SCOM3>:
 8001a3c:	f000 f802 	bl	8001a44 <COLON_ABORT>
 8001a40:	f7ff bc12 	b.w	8001268 <ABORT>

08001a44 <COLON_ABORT>:
 8001a44:	f842 ed04 	str.w	lr, [r2, #-4]!
 8001a48:	f7fe fdfa 	bl	8000640 <LAST>
 8001a4c:	f7fe fc6c 	bl	8000328 <AT>
 8001a50:	f7fe fcf4 	bl	800043c <CELLM>
 8001a54:	f7fe fc8a 	bl	800036c <DUPP>
 8001a58:	f7fe fde6 	bl	8000628 <CPP>
 8001a5c:	f7fe fc5e 	bl	800031c <STORE>
 8001a60:	f7fe fc62 	bl	8000328 <AT>
 8001a64:	f7fe fdec 	bl	8000640 <LAST>
 8001a68:	f7fe fc58 	bl	800031c <STORE>
 8001a6c:	f852 fb04 	ldr.w	pc, [r2], #4

08001a70 <OVERT>:
 8001a70:	f842 ed04 	str.w	lr, [r2, #-4]!
 8001a74:	f7fe fde4 	bl	8000640 <LAST>
 8001a78:	f7fe fc56 	bl	8000328 <AT>
 8001a7c:	f7fe fdce 	bl	800061c <CNTXT>
 8001a80:	f7fe fc4c 	bl	800031c <STORE>
 8001a84:	f852 fb04 	ldr.w	pc, [r2], #4

08001a88 <SEMIS>:
 8001a88:	f842 ed04 	str.w	lr, [r2, #-4]!
 8001a8c:	f7fe fc15 	bl	80002ba <DOLIT>
 8001a90:	f852 fb04 	ldr.w	pc, [r2], #4
 8001a94:	f7ff fe6c 	bl	8001770 <COMMA>
 8001a98:	f7ff fc34 	bl	8001304 <LBRAC>
 8001a9c:	f7ff ffe8 	bl	8001a70 <OVERT>
 8001aa0:	f852 fb04 	ldr.w	pc, [r2], #4

08001aa4 <RBRAC>:
 8001aa4:	f842 ed04 	str.w	lr, [r2, #-4]!
 8001aa8:	f7fe fc07 	bl	80002ba <DOLIT>
 8001aac:	200019ec 	andcs	r1, r0, ip, ror #19
 8001ab0:	f7fe fda8 	bl	8000604 <TEVAL>
 8001ab4:	f7fe fc32 	bl	800031c <STORE>
 8001ab8:	f852 fb04 	ldr.w	pc, [r2], #4

08001abc <COMPILE_BLW>:
 8001abc:	ea4f 0565 	mov.w	r5, r5, asr #1
 8001ac0:	f44f 4450 	mov.w	r4, #53248	; 0xd000
 8001ac4:	f2cf 0400 	movt	r4, #61440	; 0xf000
 8001ac8:	f365 040a 	bfi	r4, r5, #0, #11
 8001acc:	ea4f 25d5 	mov.w	r5, r5, lsr #11
 8001ad0:	f365 4419 	bfi	r4, r5, #16, #10
 8001ad4:	ea4f 25a5 	mov.w	r5, r5, asr #10
 8001ad8:	f365 24cb 	bfi	r4, r5, #11, #1
 8001adc:	ea4f 0565 	mov.w	r5, r5, asr #1
 8001ae0:	f365 344d 	bfi	r4, r5, #13, #1
 8001ae4:	ea4f 0565 	mov.w	r5, r5, asr #1
 8001ae8:	f365 649a 	bfi	r4, r5, #26, #1
 8001aec:	f014 6f80 	tst.w	r4, #67108864	; 0x4000000
 8001af0:	d102      	bne.n	8001af8 <COMPILE_BLW+0x3c>
 8001af2:	bf00      	nop
 8001af4:	f484 5420 	eor.w	r4, r4, #10240	; 0x2800
 8001af8:	ea4f 4534 	mov.w	r5, r4, ror #16
 8001afc:	4770      	bx	lr

08001afe <CALLC>:
 8001afe:	f842 ed04 	str.w	lr, [r2, #-4]!
 8001b02:	f025 0501 	bic.w	r5, r5, #1
 8001b06:	f7fe fe8f 	bl	8000828 <HERE>
 8001b0a:	f7fe fc6b 	bl	80003e4 <SUBB>
 8001b0e:	f1a5 0504 	sub.w	r5, r5, #4
 8001b12:	f7ff ffd3 	bl	8001abc <COMPILE_BLW>
 8001b16:	f7ff fe2b 	bl	8001770 <COMMA>
 8001b1a:	f852 fb04 	ldr.w	pc, [r2], #4
 8001b1e:	bf00      	nop

08001b20 <COLON>:
 8001b20:	f842 ed04 	str.w	lr, [r2, #-4]!
 8001b24:	f000 f83a 	bl	8001b9c <HEAD>
 8001b28:	f7ff ffbc 	bl	8001aa4 <RBRAC>
 8001b2c:	f852 fb04 	ldr.w	pc, [r2], #4

08001b30 <IMMED>:
 8001b30:	f842 ed04 	str.w	lr, [r2, #-4]!
 8001b34:	f7fe fbc1 	bl	80002ba <DOLIT>
 8001b38:	00000080 	andeq	r0, r0, r0, lsl #1
 8001b3c:	f7fe fd80 	bl	8000640 <LAST>
 8001b40:	f7fe fbf2 	bl	8000328 <AT>
 8001b44:	f7fe fbf0 	bl	8000328 <AT>
 8001b48:	f7fe fc28 	bl	800039c <ORR>
 8001b4c:	f7fe fd78 	bl	8000640 <LAST>
 8001b50:	f7fe fbea 	bl	8000328 <AT>
 8001b54:	f7fe fbe2 	bl	800031c <STORE>
 8001b58:	f852 fb04 	ldr.w	pc, [r2], #4

08001b5c <ICOLON>:
 8001b5c:	f842 ed04 	str.w	lr, [r2, #-4]!
 8001b60:	f7fe fe62 	bl	8000828 <HERE>
 8001b64:	f7fe fba9 	bl	80002ba <DOLIT>
 8001b68:	f842 ed04 	str.w	lr, [r2, #-4]!
 8001b6c:	f7ff fe00 	bl	8001770 <COMMA>
 8001b70:	f7ff ff98 	bl	8001aa4 <RBRAC>
 8001b74:	f852 fb04 	ldr.w	pc, [r2], #4

08001b78 <ISEMIS>:
 8001b78:	f842 ed04 	str.w	lr, [r2, #-4]!
 8001b7c:	f7fe fb9d 	bl	80002ba <DOLIT>
 8001b80:	f852 eb04 	ldr.w	lr, [r2], #4
 8001b84:	f7ff fdf4 	bl	8001770 <COMMA>
 8001b88:	f7fe fb97 	bl	80002ba <DOLIT>
 8001b8c:	4770      	bx	lr
 8001b8e:	bf00      	nop
 8001b90:	f7ff fdee 	bl	8001770 <COMMA>
 8001b94:	f7ff fbb6 	bl	8001304 <LBRAC>
 8001b98:	f852 fb04 	ldr.w	pc, [r2], #4

08001b9c <HEAD>:
 8001b9c:	f842 ed04 	str.w	lr, [r2, #-4]!
 8001ba0:	f7ff f9fe 	bl	8000fa0 <TOKEN>
 8001ba4:	f7ff fef6 	bl	8001994 <SNAME>
 8001ba8:	f7fe fe3e 	bl	8000828 <HERE>
 8001bac:	f7fe fc42 	bl	8000434 <CELLP>
 8001bb0:	f7ff fdde 	bl	8001770 <COMMA>
 8001bb4:	f7fe fb81 	bl	80002ba <DOLIT>
 8001bb8:	f842 ed04 	str.w	lr, [r2, #-4]!
 8001bbc:	f7ff fdd8 	bl	8001770 <COMMA>
 8001bc0:	f852 fb04 	ldr.w	pc, [r2], #4

08001bc4 <CONST>:
 8001bc4:	f842 ed04 	str.w	lr, [r2, #-4]!
 8001bc8:	f7ff ffe8 	bl	8001b9c <HEAD>
 8001bcc:	f7fe fb75 	bl	80002ba <DOLIT>
 8001bd0:	20000590 	mulcs	r0, r0, r5
 8001bd4:	f7ff ff93 	bl	8001afe <CALLC>
 8001bd8:	f7ff fdca 	bl	8001770 <COMMA>
 8001bdc:	f7ff ff48 	bl	8001a70 <OVERT>
 8001be0:	f852 fb04 	ldr.w	pc, [r2], #4

08001be4 <DODOES>:
 8001be4:	f842 ed04 	str.w	lr, [r2, #-4]!
 8001be8:	f7fe fd2a 	bl	8000640 <LAST>
 8001bec:	f7fe fb9c 	bl	8000328 <AT>
 8001bf0:	f7ff f9de 	bl	8000fb0 <TOCFA>
 8001bf4:	f7fe fe18 	bl	8000828 <HERE>
 8001bf8:	f7fe fbc0 	bl	800037c <OVER>
 8001bfc:	f7fe fb8e 	bl	800031c <STORE>
 8001c00:	f7fe fb5b 	bl	80002ba <DOLIT>
 8001c04:	f842 ed04 	str.w	lr, [r2, #-4]!
 8001c08:	f7ff fdb2 	bl	8001770 <COMMA>
 8001c0c:	f7fe fb55 	bl	80002ba <DOLIT>
 8001c10:	0000000c 	andeq	r0, r0, ip
 8001c14:	f7fe fbe2 	bl	80003dc <PLUS>
 8001c18:	f7ff fdd6 	bl	80017c8 <LITER>
 8001c1c:	f7fe fb94 	bl	8000348 <RAT>
 8001c20:	f7fe fbfc 	bl	800041c <ONEM>
 8001c24:	f7fe fc06 	bl	8000434 <CELLP>
 8001c28:	f7ff ff69 	bl	8001afe <CALLC>
 8001c2c:	f7fe fb45 	bl	80002ba <DOLIT>
 8001c30:	f852 fb04 	ldr.w	pc, [r2], #4
 8001c34:	f7ff fd9c 	bl	8001770 <COMMA>
 8001c38:	f7ff ff1a 	bl	8001a70 <OVERT>
 8001c3c:	f852 fb04 	ldr.w	pc, [r2], #4

08001c40 <DOES>:
 8001c40:	f842 ed04 	str.w	lr, [r2, #-4]!
 8001c44:	f7fe fb39 	bl	80002ba <DOLIT>
 8001c48:	20001be4 	andcs	r1, r0, r4, ror #23
 8001c4c:	f7ff ff57 	bl	8001afe <CALLC>
 8001c50:	f7fe fb33 	bl	80002ba <DOLIT>
 8001c54:	f852 fb04 	ldr.w	pc, [r2], #4
 8001c58:	f7ff fd8a 	bl	8001770 <COMMA>
 8001c5c:	f7fe fb2d 	bl	80002ba <DOLIT>
 8001c60:	f842 ed04 	str.w	lr, [r2, #-4]!
 8001c64:	f7ff fd84 	bl	8001770 <COMMA>
 8001c68:	f852 fb04 	ldr.w	pc, [r2], #4

08001c6c <CREAT>:
 8001c6c:	f842 ed04 	str.w	lr, [r2, #-4]!
 8001c70:	f7ff ff94 	bl	8001b9c <HEAD>
 8001c74:	f7fe fb21 	bl	80002ba <DOLIT>
 8001c78:	20000584 	andcs	r0, r0, r4, lsl #11
 8001c7c:	f7ff ff3f 	bl	8001afe <CALLC>
 8001c80:	f852 fb04 	ldr.w	pc, [r2], #4

08001c84 <VARIA>:
 8001c84:	f842 ed04 	str.w	lr, [r2, #-4]!
 8001c88:	f7ff fff0 	bl	8001c6c <CREAT>
 8001c8c:	f7fe fb15 	bl	80002ba <DOLIT>
 8001c90:	00000000 	andeq	r0, r0, r0
 8001c94:	f7ff fd6c 	bl	8001770 <COMMA>
 8001c98:	f7ff feea 	bl	8001a70 <OVERT>
 8001c9c:	f852 fb04 	ldr.w	pc, [r2], #4

08001ca0 <FCALL>:
 8001ca0:	f842 ed04 	str.w	lr, [r2, #-4]!
 8001ca4:	462c      	mov	r4, r5
 8001ca6:	f851 5b04 	ldr.w	r5, [r1], #4
 8001caa:	f044 0401 	orr.w	r4, r4, #1
 8001cae:	47a0      	blx	r4
 8001cb0:	f852 fb04 	ldr.w	pc, [r2], #4

08001cb4 <DEFER>:
 8001cb4:	f842 ed04 	str.w	lr, [r2, #-4]!
 8001cb8:	f7ff ff70 	bl	8001b9c <HEAD>
 8001cbc:	f7fe fafd 	bl	80002ba <DOLIT>
 8001cc0:	200002b8 			; <UNDEFINED> instruction: 0x200002b8
 8001cc4:	f7ff ff1b 	bl	8001afe <CALLC>
 8001cc8:	f7fe faf7 	bl	80002ba <DOLIT>
 8001ccc:	f852 fb04 	ldr.w	pc, [r2], #4
 8001cd0:	f7ff fd4e 	bl	8001770 <COMMA>
 8001cd4:	f7ff fecc 	bl	8001a70 <OVERT>
 8001cd8:	f852 fb04 	ldr.w	pc, [r2], #4

08001cdc <DEFERSTO>:
 8001cdc:	f842 ed04 	str.w	lr, [r2, #-4]!
 8001ce0:	f025 0501 	bic.w	r5, r5, #1
 8001ce4:	f7ff fd2e 	bl	8001744 <TICK>
 8001ce8:	f7fe fba4 	bl	8000434 <CELLP>
 8001cec:	f7fe fb3e 	bl	800036c <DUPP>
 8001cf0:	f7fe fb2e 	bl	8000350 <TOR>
 8001cf4:	f7fe fb76 	bl	80003e4 <SUBB>
 8001cf8:	f1a5 0504 	sub.w	r5, r5, #4
 8001cfc:	f7ff fede 	bl	8001abc <COMPILE_BLW>
 8001d00:	f7fe fb1c 	bl	800033c <RFROM>
 8001d04:	f7fe fb0a 	bl	800031c <STORE>
 8001d08:	f852 fb04 	ldr.w	pc, [r2], #4

08001d0c <DEFERAT>:
 8001d0c:	f842 ed04 	str.w	lr, [r2, #-4]!
 8001d10:	f7ff fd18 	bl	8001744 <TICK>
 8001d14:	f7fe fb8e 	bl	8000434 <CELLP>
 8001d18:	f7fe fb28 	bl	800036c <DUPP>
 8001d1c:	f7fe fb18 	bl	8000350 <TOR>
 8001d20:	f7fe fb02 	bl	8000328 <AT>
 8001d24:	f7fe fac9 	bl	80002ba <DOLIT>
 8001d28:	080024c1 	stmdaeq	r0, {r0, r6, r7, sl, sp}
 8001d2c:	f7ff ffb8 	bl	8001ca0 <FCALL>
 8001d30:	f7fe fac3 	bl	80002ba <DOLIT>
 8001d34:	00000004 	andeq	r0, r0, r4
 8001d38:	f7fe fb50 	bl	80003dc <PLUS>
 8001d3c:	f7fe fafe 	bl	800033c <RFROM>
 8001d40:	f7fe fb4c 	bl	80003dc <PLUS>
 8001d44:	f852 fb04 	ldr.w	pc, [r2], #4

08001d48 <DUMP>:
 8001d48:	f7fe fab7 	bl	80002ba <DOLIT>
 8001d4c:	08002165 	stmdaeq	r0, {r0, r2, r5, r6, r8, sp}
 8001d50:	462c      	mov	r4, r5
 8001d52:	f851 5b04 	ldr.w	r5, [r1], #4
 8001d56:	47a0      	blx	r4
 8001d58:	4770      	bx	lr
 8001d5a:	bf00      	nop

08001d5c <DOTS>:
 8001d5c:	f7fe faad 	bl	80002ba <DOLIT>
 8001d60:	080021d1 	stmdaeq	r0, {r0, r4, r6, r7, r8, sp}
 8001d64:	462c      	mov	r4, r5
 8001d66:	f851 5b04 	ldr.w	r5, [r1], #4
 8001d6a:	47a0      	blx	r4
 8001d6c:	4770      	bx	lr
 8001d6e:	bf00      	nop

08001d70 <TNAME>:
 8001d70:	f7fe faa3 	bl	80002ba <DOLIT>
 8001d74:	08002201 	stmdaeq	r0, {r0, r9, sp}
 8001d78:	462c      	mov	r4, r5
 8001d7a:	f851 5b04 	ldr.w	r5, [r1], #4
 8001d7e:	47a0      	blx	r4
 8001d80:	4770      	bx	lr
 8001d82:	bf00      	nop

08001d84 <DOTID>:
 8001d84:	f7fe fa99 	bl	80002ba <DOLIT>
 8001d88:	08002259 	stmdaeq	r0, {r0, r3, r4, r6, r9, sp}
 8001d8c:	462c      	mov	r4, r5
 8001d8e:	f851 5b04 	ldr.w	r5, [r1], #4
 8001d92:	47a0      	blx	r4
 8001d94:	4770      	bx	lr
 8001d96:	bf00      	nop

08001d98 <SEE>:
 8001d98:	f7fe fa8f 	bl	80002ba <DOLIT>
 8001d9c:	08002421 	stmdaeq	r0, {r0, r5, sl, sp}
 8001da0:	462c      	mov	r4, r5
 8001da2:	f851 5b04 	ldr.w	r5, [r1], #4
 8001da6:	47a0      	blx	r4
 8001da8:	4770      	bx	lr
 8001daa:	bf00      	nop

08001dac <SCOL>:
 8001dac:	f7fe fa85 	bl	80002ba <DOLIT>
 8001db0:	08002455 	stmdaeq	r0, {r0, r2, r4, r6, sl, sp}
 8001db4:	462c      	mov	r4, r5
 8001db6:	f851 5b04 	ldr.w	r5, [r1], #4
 8001dba:	47a0      	blx	r4
 8001dbc:	4770      	bx	lr
 8001dbe:	bf00      	nop

08001dc0 <DECOMP>:
 8001dc0:	f7fe fa7b 	bl	80002ba <DOLIT>
 8001dc4:	08002505 	stmdaeq	r0, {r0, r2, r8, sl, sp}
 8001dc8:	462c      	mov	r4, r5
 8001dca:	f851 5b04 	ldr.w	r5, [r1], #4
 8001dce:	47a0      	blx	r4
 8001dd0:	4770      	bx	lr
 8001dd2:	bf00      	nop

08001dd4 <WORDS>:
 8001dd4:	f7fe fa71 	bl	80002ba <DOLIT>
 8001dd8:	08002589 	stmdaeq	r0, {r0, r3, r7, r8, sl, sp}
 8001ddc:	462c      	mov	r4, r5
 8001dde:	f851 5b04 	ldr.w	r5, [r1], #4
 8001de2:	47a0      	blx	r4
 8001de4:	4770      	bx	lr

08001de6 <VERSN>:
 8001de6:	f842 ed04 	str.w	lr, [r2, #-4]!
 8001dea:	f7fe fa66 	bl	80002ba <DOLIT>
 8001dee:	00000100 	andeq	r0, r0, r0, lsl #2
 8001df2:	f852 fb04 	ldr.w	pc, [r2], #4
 8001df6:	bf00      	nop

08001df8 <HI>:
 8001df8:	f842 ed04 	str.w	lr, [r2, #-4]!
 8001dfc:	f7fe ff36 	bl	8000c6c <CR>
 8001e00:	f7fe fa5b 	bl	80002ba <DOLIT>
 8001e04:	080031e0 	stmdaeq	r0, {r5, r6, r7, r8, ip, sp}
 8001e08:	f7fe fbae 	bl	8000568 <COUNT>
 8001e0c:	f7fe ff1a 	bl	8000c44 <TYPEE>
 8001e10:	f7fe fbdc 	bl	80005cc <BASE>
 8001e14:	f7fe fa88 	bl	8000328 <AT>
 8001e18:	f7fe fe12 	bl	8000a40 <HEX>
 8001e1c:	f7ff ffe3 	bl	8001de6 <VERSN>
 8001e20:	f7fe fda4 	bl	800096c <BDIGS>
 8001e24:	f7fe fdbe 	bl	80009a4 <DIG>
 8001e28:	f7fe fdbc 	bl	80009a4 <DIG>
 8001e2c:	f7fe fa45 	bl	80002ba <DOLIT>
 8001e30:	0000002e 	andeq	r0, r0, lr, lsr #32
 8001e34:	f7fe fda4 	bl	8000980 <HOLD>
 8001e38:	f7fe fdc0 	bl	80009bc <DIGS>
 8001e3c:	f7fe fddc 	bl	80009f8 <EDIGS>
 8001e40:	f7fe ff00 	bl	8000c44 <TYPEE>
 8001e44:	f7fe fbc2 	bl	80005cc <BASE>
 8001e48:	f7fe fa68 	bl	800031c <STORE>
 8001e4c:	f7fe ff0e 	bl	8000c6c <CR>
 8001e50:	f852 fb04 	ldr.w	pc, [r2], #4

08001e54 <COLD>:
 8001e54:	f44f 7398 	mov.w	r3, #304	; 0x130
 8001e58:	f2c2 0300 	movt	r3, #8192	; 0x2000
 8001e5c:	f44f 419d 	mov.w	r1, #20096	; 0x4e80
 8001e60:	f2c2 0100 	movt	r1, #8192	; 0x2000
 8001e64:	f44f 429f 	mov.w	r2, #20352	; 0x4f80
 8001e68:	f2c2 0200 	movt	r2, #8192	; 0x2000
 8001e6c:	ea85 0505 	eor.w	r5, r5, r5
 8001e70:	f842 ed04 	str.w	lr, [r2, #-4]!

08001e74 <COLD1>:
 8001e74:	f7fe fa21 	bl	80002ba <DOLIT>
 8001e78:	00000000 	andeq	r0, r0, r0
 8001e7c:	f7fe f9ec 	bl	8000258 <ULED>
 8001e80:	f7fe fa1b 	bl	80002ba <DOLIT>
 8001e84:	08000130 	stmdaeq	r0, {r4, r5, r8}
 8001e88:	f7fe fa17 	bl	80002ba <DOLIT>
 8001e8c:	20000130 	andcs	r0, r0, r0, lsr r1
 8001e90:	f7fe fa13 	bl	80002ba <DOLIT>
 8001e94:	00000054 	andeq	r0, r0, r4, asr r0
 8001e98:	f7fe fcf6 	bl	8000888 <MOVE>
 8001e9c:	f7ff fa80 	bl	80013a0 <PRESE>
 8001ea0:	f7ff fb42 	bl	8001528 <IMGQ>
 8001ea4:	f7fe fa26 	bl	80002f4 <QBRAN>
 8001ea8:	20001eb0 			; <UNDEFINED> instruction: 0x20001eb0
 8001eac:	f7ff fb4c 	bl	8001548 <LOAD_IMG>
 8001eb0:	f7fe fb86 	bl	80005c0 <TBOOT>
 8001eb4:	f7fe fccc 	bl	8000850 <ATEXE>
 8001eb8:	f7ff fdda 	bl	8001a70 <OVERT>
 8001ebc:	f7ff ba7a 	b.w	80013b4 <QUIT>

08001ec0 <COLD2>:
 8001ec0:	ffffffff 			; <UNDEFINED> instruction: 0xffffffff

Disassembly of section .inflash:

08001ec4 <default_handler>:
 8001ec4:	4d01      	ldr	r5, [pc, #4]	; (8001ecc <exception_msg>)
 8001ec6:	f000 f84f 	bl	8001f68 <uart_puts>
 8001eca:	e039      	b.n	8001f40 <reset_mcu>

08001ecc <exception_msg>:
 8001ecc:	08001ed0 	stmdaeq	r0, {r4, r6, r7, r9, sl, fp, ip}
 8001ed0:	650d0a12 	strvs	r0, [sp, #-2578]	; 0xfffff5ee
 8001ed4:	74706578 	ldrbtvc	r6, [r0], #-1400	; 0xfffffa88
 8001ed8:	206e6f69 	rsbcs	r6, lr, r9, ror #30
 8001edc:	6f626572 	svcvs	0x00626572
 8001ee0:	0021746f 	eoreq	r7, r1, pc, ror #8

08001ee4 <systick_handler>:
 8001ee4:	f44f 7398 	mov.w	r3, #304	; 0x130
 8001ee8:	f2c2 0300 	movt	r3, #8192	; 0x2000
 8001eec:	6898      	ldr	r0, [r3, #8]
 8001eee:	f100 0001 	add.w	r0, r0, #1
 8001ef2:	6098      	str	r0, [r3, #8]
 8001ef4:	68d8      	ldr	r0, [r3, #12]
 8001ef6:	b110      	cbz	r0, 8001efe <systick_exit>
 8001ef8:	f1a0 0001 	sub.w	r0, r0, #1
 8001efc:	60d8      	str	r0, [r3, #12]

08001efe <systick_exit>:
 8001efe:	4770      	bx	lr

08001f00 <uart_rx_handler>:
 8001f00:	e92d 02d0 	stmdb	sp!, {r4, r6, r7, r9}
 8001f04:	f44f 5460 	mov.w	r4, #14336	; 0x3800
 8001f08:	f2c4 0401 	movt	r4, #16385	; 0x4001
 8001f0c:	6826      	ldr	r6, [r4, #0]
 8001f0e:	f8d4 9004 	ldr.w	r9, [r4, #4]
 8001f12:	f016 0f20 	tst.w	r6, #32
 8001f16:	d00d      	beq.n	8001f34 <uart_rx_handler+0x34>
 8001f18:	f1b9 0f03 	cmp.w	r9, #3
 8001f1c:	d00d      	beq.n	8001f3a <user_reboot>
 8001f1e:	f103 0750 	add.w	r7, r3, #80	; 0x50
 8001f22:	6e5c      	ldr	r4, [r3, #100]	; 0x64
 8001f24:	4427      	add	r7, r4
 8001f26:	f887 9000 	strb.w	r9, [r7]
 8001f2a:	f104 0401 	add.w	r4, r4, #1
 8001f2e:	f004 040f 	and.w	r4, r4, #15
 8001f32:	665c      	str	r4, [r3, #100]	; 0x64
 8001f34:	e8bd 02d0 	ldmia.w	sp!, {r4, r6, r7, r9}
 8001f38:	4770      	bx	lr

08001f3a <user_reboot>:
 8001f3a:	4d06      	ldr	r5, [pc, #24]	; (8001f54 <user_reboot_msg>)
 8001f3c:	f000 f814 	bl	8001f68 <uart_puts>

08001f40 <reset_mcu>:
 8001f40:	4803      	ldr	r0, [pc, #12]	; (8001f50 <scb_adr>)
 8001f42:	68c1      	ldr	r1, [r0, #12]
 8001f44:	f041 0104 	orr.w	r1, r1, #4
 8001f48:	f2c0 51fa 	movt	r1, #1530	; 0x5fa
 8001f4c:	60c1      	str	r1, [r0, #12]
 8001f4e:	e7fe      	b.n	8001f4e <reset_mcu+0xe>

08001f50 <scb_adr>:
 8001f50:	e000ed00 	and	lr, r0, r0, lsl #26

08001f54 <user_reboot_msg>:
 8001f54:	08001f58 	stmdaeq	r0, {r3, r4, r6, r8, r9, sl, fp, ip}
 8001f58:	73750d0d 	cmnvc	r5, #832	; 0x340
 8001f5c:	72207265 	eorvc	r7, r0, #1342177286	; 0x50000006
 8001f60:	6f6f6265 	svcvs	0x006f6265
 8001f64:	bf002174 	svclt	0x00002174

08001f68 <uart_puts>:
 8001f68:	f44f 5060 	mov.w	r0, #14336	; 0x3800
 8001f6c:	f2c4 0001 	movt	r0, #16385	; 0x4001
 8001f70:	f815 1b01 	ldrb.w	r1, [r5], #1
 8001f74:	4009      	ands	r1, r1
 8001f76:	d00c      	beq.n	8001f92 <uart_puts+0x2a>
 8001f78:	6802      	ldr	r2, [r0, #0]
 8001f7a:	f012 0280 	ands.w	r2, r2, #128	; 0x80
 8001f7e:	d0fb      	beq.n	8001f78 <uart_puts+0x10>
 8001f80:	f815 2b01 	ldrb.w	r2, [r5], #1
 8001f84:	7102      	strb	r2, [r0, #4]
 8001f86:	3901      	subs	r1, #1
 8001f88:	d1f6      	bne.n	8001f78 <uart_puts+0x10>
 8001f8a:	6802      	ldr	r2, [r0, #0]
 8001f8c:	f012 0240 	ands.w	r2, r2, #64	; 0x40
 8001f90:	d0fb      	beq.n	8001f8a <uart_puts+0x22>
 8001f92:	4770      	bx	lr

08001f94 <reset_handler>:
 8001f94:	f000 f88f 	bl	80020b6 <remap>
 8001f98:	f000 f81c 	bl	8001fd4 <init_devices>
 8001f9c:	f000 f86a 	bl	8002074 <uart_init>
 8001fa0:	f000 f808 	bl	8001fb4 <forth_init>
 8001fa4:	4802      	ldr	r0, [pc, #8]	; (8001fb0 <forth_entry>)
 8001fa6:	f040 0001 	orr.w	r0, r0, #1
 8001faa:	4780      	blx	r0
 8001fac:	f7ff bffe 	b.w	8001fac <reset_handler+0x18>

08001fb0 <forth_entry>:
 8001fb0:	20001e54 	andcs	r1, r0, r4, asr lr

08001fb4 <forth_init>:
 8001fb4:	f44f 7398 	mov.w	r3, #304	; 0x130
 8001fb8:	f2c2 0300 	movt	r3, #8192	; 0x2000
 8001fbc:	f44f 419d 	mov.w	r1, #20096	; 0x4e80
 8001fc0:	f2c2 0100 	movt	r1, #8192	; 0x2000
 8001fc4:	f44f 429f 	mov.w	r2, #20352	; 0x4f80
 8001fc8:	f2c2 0200 	movt	r2, #8192	; 0x2000
 8001fcc:	ea85 0505 	eor.w	r5, r5, r5
 8001fd0:	4770      	bx	lr
 8001fd2:	bf00      	nop

08001fd4 <init_devices>:
 8001fd4:	f44f 5000 	mov.w	r0, #8192	; 0x2000
 8001fd8:	f2c4 0002 	movt	r0, #16386	; 0x4002
 8001fdc:	f04f 0212 	mov.w	r2, #18
 8001fe0:	6002      	str	r2, [r0, #0]
 8001fe2:	f44f 5080 	mov.w	r0, #4096	; 0x1000
 8001fe6:	f2c4 0002 	movt	r0, #16386	; 0x4002
 8001fea:	6801      	ldr	r1, [r0, #0]
 8001fec:	f441 3180 	orr.w	r1, r1, #65536	; 0x10000
 8001ff0:	6001      	str	r1, [r0, #0]

08001ff2 <wait_hserdy>:
 8001ff2:	6801      	ldr	r1, [r0, #0]
 8001ff4:	f411 3f00 	tst.w	r1, #131072	; 0x20000
 8001ff8:	d0fb      	beq.n	8001ff2 <wait_hserdy>
 8001ffa:	f44f 6180 	mov.w	r1, #1024	; 0x400
 8001ffe:	f2c0 011d 	movt	r1, #29
 8002002:	6041      	str	r1, [r0, #4]
 8002004:	6801      	ldr	r1, [r0, #0]
 8002006:	f041 7180 	orr.w	r1, r1, #16777216	; 0x1000000
 800200a:	6001      	str	r1, [r0, #0]

0800200c <wait_pllrdy>:
 800200c:	6801      	ldr	r1, [r0, #0]
 800200e:	f011 7f00 	tst.w	r1, #33554432	; 0x2000000
 8002012:	d0fb      	beq.n	800200c <wait_pllrdy>
 8002014:	6841      	ldr	r1, [r0, #4]
 8002016:	f64f 72fc 	movw	r2, #65532	; 0xfffc
 800201a:	f6cf 72ff 	movt	r2, #65535	; 0xffff
 800201e:	ea01 0102 	and.w	r1, r1, r2
 8002022:	f04f 0202 	mov.w	r2, #2
 8002026:	ea41 0102 	orr.w	r1, r1, r2
 800202a:	6041      	str	r1, [r0, #4]

0800202c <wait_sws>:
 800202c:	6841      	ldr	r1, [r0, #4]
 800202e:	f011 0f08 	tst.w	r1, #8
 8002032:	d0fb      	beq.n	800202c <wait_sws>
 8002034:	f44f 5080 	mov.w	r0, #4096	; 0x1000
 8002038:	f2c4 0002 	movt	r0, #16386	; 0x4002
 800203c:	f244 0114 	movw	r1, #16404	; 0x4014
 8002040:	6181      	str	r1, [r0, #24]
 8002042:	f44f 5080 	mov.w	r0, #4096	; 0x1000
 8002046:	f2c4 0001 	movt	r0, #16385	; 0x4001
 800204a:	6841      	ldr	r1, [r0, #4]
 800204c:	f46f 0270 	mvn.w	r2, #15728640	; 0xf00000
 8002050:	ea01 0102 	and.w	r1, r1, r2
 8002054:	f44f 02c0 	mov.w	r2, #6291456	; 0x600000
 8002058:	ea41 0102 	orr.w	r1, r1, r2
 800205c:	6041      	str	r1, [r0, #4]
 800205e:	f24e 0010 	movw	r0, #57360	; 0xe010
 8002062:	f2ce 0000 	movt	r0, #57344	; 0xe000
 8002066:	f242 3128 	movw	r1, #9000	; 0x2328
 800206a:	6041      	str	r1, [r0, #4]
 800206c:	f04f 0103 	mov.w	r1, #3
 8002070:	6001      	str	r1, [r0, #0]
 8002072:	4770      	bx	lr

08002074 <uart_init>:
 8002074:	f44f 6000 	mov.w	r0, #2048	; 0x800
 8002078:	f2c4 0001 	movt	r0, #16385	; 0x4001
 800207c:	6841      	ldr	r1, [r0, #4]
 800207e:	f06f 02f0 	mvn.w	r2, #240	; 0xf0
 8002082:	ea01 0102 	and.w	r1, r1, r2
 8002086:	f04f 02a0 	mov.w	r2, #160	; 0xa0
 800208a:	ea41 0102 	orr.w	r1, r1, r2
 800208e:	6041      	str	r1, [r0, #4]
 8002090:	f44f 5060 	mov.w	r0, #14336	; 0x3800
 8002094:	f2c4 0001 	movt	r0, #16385	; 0x4001
 8002098:	f240 2171 	movw	r1, #625	; 0x271
 800209c:	6081      	str	r1, [r0, #8]
 800209e:	f242 012c 	movw	r1, #8236	; 0x202c
 80020a2:	60c1      	str	r1, [r0, #12]
 80020a4:	f44f 4061 	mov.w	r0, #57600	; 0xe100
 80020a8:	f2ce 0000 	movt	r0, #57344	; 0xe000
 80020ac:	6841      	ldr	r1, [r0, #4]
 80020ae:	f041 0120 	orr.w	r1, r1, #32
 80020b2:	6041      	str	r1, [r0, #4]
 80020b4:	4770      	bx	lr

080020b6 <remap>:
 80020b6:	f04f 0000 	mov.w	r0, #0
 80020ba:	f2c2 0000 	movt	r0, #8192	; 0x2000
 80020be:	ea81 0101 	eor.w	r1, r1, r1
 80020c2:	f44f 7298 	mov.w	r2, #304	; 0x130
 80020c6:	f851 3b04 	ldr.w	r3, [r1], #4
 80020ca:	f840 3b04 	str.w	r3, [r0], #4
 80020ce:	3a04      	subs	r2, #4
 80020d0:	d1f9      	bne.n	80020c6 <remap+0x10>
 80020d2:	f44f 406d 	mov.w	r0, #60672	; 0xed00
 80020d6:	f2ce 0000 	movt	r0, #57344	; 0xe000
 80020da:	f04f 0100 	mov.w	r1, #0
 80020de:	f2c2 0100 	movt	r1, #8192	; 0x2000
 80020e2:	6081      	str	r1, [r0, #8]
 80020e4:	f8df 0034 	ldr.w	r0, [pc, #52]	; 800211c <remap_dest>
 80020e8:	490b      	ldr	r1, [pc, #44]	; (8002118 <remap_src>)
 80020ea:	f641 5290 	movw	r2, #7568	; 0x1d90
 80020ee:	f102 0203 	add.w	r2, r2, #3
 80020f2:	f022 0203 	bic.w	r2, r2, #3
 80020f6:	f851 3b04 	ldr.w	r3, [r1], #4
 80020fa:	f840 3b04 	str.w	r3, [r0], #4
 80020fe:	3a04      	subs	r2, #4
 8002100:	d1f9      	bne.n	80020f6 <remap+0x40>
 8002102:	f44f 42a0 	mov.w	r2, #20480	; 0x5000
 8002106:	f2c2 0200 	movt	r2, #8192	; 0x2000
 800210a:	ea83 0303 	eor.w	r3, r3, r3
 800210e:	f840 3b04 	str.w	r3, [r0], #4
 8002112:	4290      	cmp	r0, r2
 8002114:	dbfb      	blt.n	800210e <remap+0x58>
 8002116:	4770      	bx	lr

08002118 <remap_src>:
 8002118:	08000130 	stmdaeq	r0, {r4, r5, r8}

0800211c <remap_dest>:
 800211c:	20000130 	andcs	r0, r0, r0, lsr r1

08002120 <DMP>:
 8002120:	f842 ed04 	str.w	lr, [r2, #-4]!
 8002124:	f7fe f92a 	bl	800037c <OVER>
 8002128:	f7fe f8c7 	bl	80002ba <DOLIT>
 800212c:	00000004 	andeq	r0, r0, r4
 8002130:	f7fe fdee 	bl	8000d10 <UDOTR>
 8002134:	f7fe fd6a 	bl	8000c0c <SPACE>
 8002138:	f7fe f90a 	bl	8000350 <TOR>
 800213c:	f000 b80c 	b.w	8002158 <PDUM2>

08002140 <PDUM1>:
 8002140:	f7fe f914 	bl	800036c <DUPP>
 8002144:	f7fe f8f8 	bl	8000338 <CAT>
 8002148:	f7fe f8b7 	bl	80002ba <DOLIT>
 800214c:	00000003 	andeq	r0, r0, r3
 8002150:	f7fe fdde 	bl	8000d10 <UDOTR>
 8002154:	f7fe f95e 	bl	8000414 <ONEP>

08002158 <PDUM2>:
 8002158:	f7fe f8bd 	bl	80002d6 <DONXT>
 800215c:	08002140 	stmdaeq	r0, {r6, r8, sp}
 8002160:	f852 fb04 	ldr.w	pc, [r2], #4

08002164 <FL_DUMP>:
 8002164:	f842 ed04 	str.w	lr, [r2, #-4]!
 8002168:	f7fe fa30 	bl	80005cc <BASE>
 800216c:	f7fe f8dc 	bl	8000328 <AT>
 8002170:	f7fe f8ee 	bl	8000350 <TOR>
 8002174:	f7fe fc64 	bl	8000a40 <HEX>
 8002178:	f7fe f89f 	bl	80002ba <DOLIT>
 800217c:	00000010 	andeq	r0, r0, r0, lsl r0
 8002180:	f7fe faf0 	bl	8000764 <SLASH>
 8002184:	f7fe f8e4 	bl	8000350 <TOR>
 8002188:	f000 b814 	b.w	80021b4 <DUMP4>

0800218c <DUMP1>:
 800218c:	f7fe fd6e 	bl	8000c6c <CR>
 8002190:	f7fe f893 	bl	80002ba <DOLIT>
 8002194:	00000010 	andeq	r0, r0, r0, lsl r0
 8002198:	f7fe f97c 	bl	8000494 <DDUP>
 800219c:	f7ff ffc0 	bl	8002120 <DMP>
 80021a0:	f7fe f96c 	bl	800047c <ROT>
 80021a4:	f7fe f96a 	bl	800047c <ROT>
 80021a8:	f7fe fd30 	bl	8000c0c <SPACE>
 80021ac:	f7fe fd2e 	bl	8000c0c <SPACE>
 80021b0:	f7fe fd48 	bl	8000c44 <TYPEE>

080021b4 <DUMP4>:
 80021b4:	f7fe f88f 	bl	80002d6 <DONXT>
 80021b8:	0800218c 	stmdaeq	r0, {r2, r3, r7, r8, sp}

080021bc <DUMP3>:
 80021bc:	f7fe f8d2 	bl	8000364 <DROP>
 80021c0:	f7fe f8bc 	bl	800033c <RFROM>
 80021c4:	f7fe fa02 	bl	80005cc <BASE>
 80021c8:	f7fe f8a8 	bl	800031c <STORE>
 80021cc:	f852 fb04 	ldr.w	pc, [r2], #4

080021d0 <FL_DOTS>:
 80021d0:	f842 ed04 	str.w	lr, [r2, #-4]!
 80021d4:	f7fe fd1a 	bl	8000c0c <SPACE>
 80021d8:	f7fe fb0c 	bl	80007f4 <DEPTH>
 80021dc:	f7fe f8b8 	bl	8000350 <TOR>
 80021e0:	f000 b806 	b.w	80021f0 <DOTS2>

080021e4 <DOTS1>:
 80021e4:	f7fe f8b0 	bl	8000348 <RAT>
 80021e8:	f7fe fb10 	bl	800080c <PICK>
 80021ec:	f7fe fdc8 	bl	8000d80 <DOT>

080021f0 <DOTS2>:
 80021f0:	f7fe f871 	bl	80002d6 <DONXT>
 80021f4:	080021e4 	stmdaeq	r0, {r2, r5, r6, r7, r8, sp}
 80021f8:	f7fe fd08 	bl	8000c0c <SPACE>
 80021fc:	f852 fb04 	ldr.w	pc, [r2], #4

08002200 <FL_TNAME>:
 8002200:	f842 ed04 	str.w	lr, [r2, #-4]!
 8002204:	f7fe f8a4 	bl	8000350 <TOR>
 8002208:	f7fe fa08 	bl	800061c <CNTXT>
 800220c:	f7fe f88c 	bl	8000328 <AT>

08002210 <TNAM1>:
 8002210:	f7fe f8ac 	bl	800036c <DUPP>
 8002214:	f7fe f86e 	bl	80002f4 <QBRAN>
 8002218:	0800224c 	stmdaeq	r0, {r2, r3, r6, r9, sp}
 800221c:	f7fe f8a6 	bl	800036c <DUPP>
 8002220:	f7fe fed6 	bl	8000fd0 <NAMET>
 8002224:	f7fe f890 	bl	8000348 <RAT>
 8002228:	f7fe f8be 	bl	80003a8 <XORR>
 800222c:	f7fe f845 	bl	80002ba <DOLIT>
 8002230:	00ffffff 	ldrshteq	pc, [pc], #255	; <UNPREDICTABLE>
 8002234:	f7fe f8ac 	bl	8000390 <ANDD>
 8002238:	f7fe f85c 	bl	80002f4 <QBRAN>
 800223c:	0800224c 	stmdaeq	r0, {r2, r3, r6, r9, sp}
 8002240:	f7fe f8fc 	bl	800043c <CELLM>
 8002244:	f7fe f870 	bl	8000328 <AT>
 8002248:	f7ff bfe2 	b.w	8002210 <TNAM1>

0800224c <TNAM2>:
 800224c:	f7fe f876 	bl	800033c <RFROM>
 8002250:	f7fe f888 	bl	8000364 <DROP>
 8002254:	f852 fb04 	ldr.w	pc, [r2], #4

08002258 <FL_DOTID>:
 8002258:	f842 ed04 	str.w	lr, [r2, #-4]!
 800225c:	f7fe f908 	bl	8000470 <QDUP>
 8002260:	f7fe f848 	bl	80002f4 <QBRAN>
 8002264:	08002280 	stmdaeq	r0, {r7, r9, sp}
 8002268:	f7fe f97e 	bl	8000568 <COUNT>
 800226c:	f7fe f825 	bl	80002ba <DOLIT>
 8002270:	0000001f 	andeq	r0, r0, pc, lsl r0
 8002274:	f7fe f88c 	bl	8000390 <ANDD>
 8002278:	f7fe fce4 	bl	8000c44 <TYPEE>
 800227c:	f852 fb04 	ldr.w	pc, [r2], #4

08002280 <DOTI1>:
 8002280:	f7fe fd2c 	bl	8000cdc <DOTQP>
 8002284:	6e7b2009 	cdpvs	0, 7, cr2, cr11, cr9, {0}
 8002288:	6d614e6f 	stclvs	14, cr4, [r1, #-444]!	; 0xfffffe44
 800228c:	bf007d65 	svclt	0x00007d65
 8002290:	f852 fb04 	ldr.w	pc, [r2], #4

08002294 <DOTCA>:
 8002294:	f842 ed04 	str.w	lr, [r2, #-4]!
 8002298:	f7fe f868 	bl	800036c <DUPP>
 800229c:	f7fe fd4e 	bl	8000d3c <UDOT>
 80022a0:	f7fe f80b 	bl	80002ba <DOLIT>
 80022a4:	00000002 	andeq	r0, r0, r2
 80022a8:	f7fe fcb8 	bl	8000c1c <SPACS>
 80022ac:	f852 fb04 	ldr.w	pc, [r2], #4

080022b0 <CODE_ABORT>:
 80022b0:	f842 ed04 	str.w	lr, [r2, #-4]!
 80022b4:	f7ff ffee 	bl	8002294 <DOTCA>
 80022b8:	f7fe f858 	bl	800036c <DUPP>
 80022bc:	f7fe f834 	bl	8000328 <AT>
 80022c0:	f7fd fffb 	bl	80002ba <DOLIT>
 80022c4:	f842 ed04 	str.w	lr, [r2, #-4]!
 80022c8:	f7fe f86e 	bl	80003a8 <XORR>
 80022cc:	f7fe f812 	bl	80002f4 <QBRAN>
 80022d0:	080022e8 	stmdaeq	r0, {r3, r5, r6, r7, r9, sp}
 80022d4:	f7fe fbc0 	bl	8000a58 <DECIM>
 80022d8:	f7fe ffda 	bl	8001290 <ABORQ>
 80022dc:	646f6309 	strbtvs	r6, [pc], #-777	; 80022e4 <CODE_ABORT+0x34>
 80022e0:	6f772065 	svcvs	0x00772065
 80022e4:	bf006472 	svclt	0x00006472
 80022e8:	f7fe fcf8 	bl	8000cdc <DOTQP>
 80022ec:	73656e04 	cmnvc	r5, #4, 28	; 0x40
 80022f0:	bf000074 	svclt	0x00000074
 80022f4:	f7fe fcba 	bl	8000c6c <CR>
 80022f8:	f852 fb04 	ldr.w	pc, [r2], #4

080022fc <UNNESTQ>:
 80022fc:	f842 ed04 	str.w	lr, [r2, #-4]!
 8002300:	f7fe f834 	bl	800036c <DUPP>
 8002304:	f7fe f810 	bl	8000328 <AT>
 8002308:	f7fd ffd7 	bl	80002ba <DOLIT>
 800230c:	f852 fb04 	ldr.w	pc, [r2], #4
 8002310:	f7fe f8e6 	bl	80004e0 <EQUAL>
 8002314:	f7fe f82a 	bl	800036c <DUPP>
 8002318:	f7fd ffec 	bl	80002f4 <QBRAN>
 800231c:	08002330 	stmdaeq	r0, {r4, r5, r8, r9, sp}
 8002320:	f7fe fcdc 	bl	8000cdc <DOTQP>
 8002324:	6e6e7506 	cdpvs	5, 6, cr7, cr14, cr6, {0}
 8002328:	00747365 	rsbseq	r7, r4, r5, ror #6
 800232c:	f7fe fc9e 	bl	8000c6c <CR>
 8002330:	f852 fb04 	ldr.w	pc, [r2], #4

08002334 <NONAMEQ>:
 8002334:	f842 ed04 	str.w	lr, [r2, #-4]!
 8002338:	f7fd ffbf 	bl	80002ba <DOLIT>
 800233c:	00000000 	andeq	r0, r0, r0
 8002340:	f7fe f818 	bl	8000374 <SWAP>
 8002344:	f7fd ffb9 	bl	80002ba <DOLIT>
 8002348:	080031f8 	stmdaeq	r0, {r3, r4, r5, r6, r7, r8, ip, sp}
 800234c:	f7fe f800 	bl	8000350 <TOR>
 8002350:	f7fe f80c 	bl	800036c <DUPP>
 8002354:	f7fd fff8 	bl	8000348 <RAT>
 8002358:	f7fd ffe6 	bl	8000328 <AT>
 800235c:	f7fe f888 	bl	8000470 <QDUP>
 8002360:	f7fd ffc8 	bl	80002f4 <QBRAN>
 8002364:	080023c8 	stmdaeq	r0, {r3, r6, r7, r8, r9, sp}
 8002368:	f7fe f81e 	bl	80003a8 <XORR>
 800236c:	f7fd ffa5 	bl	80002ba <DOLIT>
 8002370:	00ffffff 	ldrshteq	pc, [pc], #255	; <UNPREDICTABLE>
 8002374:	f7fe f80c 	bl	8000390 <ANDD>
 8002378:	f7fd ffbc 	bl	80002f4 <QBRAN>
 800237c:	08002394 	stmdaeq	r0, {r2, r4, r7, r8, r9, sp}
 8002380:	f7fd ffdc 	bl	800033c <RFROM>
 8002384:	f7fe f856 	bl	8000434 <CELLP>
 8002388:	f7fd ffe2 	bl	8000350 <TOR>
 800238c:	f7fd ffbe 	bl	800030c <BRAN>
 8002390:	08002350 	stmdaeq	r0, {r4, r6, r8, r9, sp}
 8002394:	f7fd ffd2 	bl	800033c <RFROM>
 8002398:	f7fd ff8f 	bl	80002ba <DOLIT>
 800239c:	080031f8 	stmdaeq	r0, {r3, r4, r5, r6, r7, r8, ip, sp}
 80023a0:	f7fe f820 	bl	80003e4 <SUBB>
 80023a4:	f7fd ff89 	bl	80002ba <DOLIT>
 80023a8:	08003234 	stmdaeq	r0, {r2, r4, r5, r9, ip, sp}
 80023ac:	f7fe f816 	bl	80003dc <PLUS>
 80023b0:	f7fd ffba 	bl	8000328 <AT>
 80023b4:	f7fd ffde 	bl	8000374 <SWAP>
 80023b8:	f7fd ffd4 	bl	8000364 <DROP>
 80023bc:	f7fd ffda 	bl	8000374 <SWAP>
 80023c0:	f7fe f878 	bl	80004b4 <INVER>
 80023c4:	f852 fb04 	ldr.w	pc, [r2], #4
 80023c8:	f7fd ffcc 	bl	8000364 <DROP>
 80023cc:	f7fd ffd2 	bl	8000374 <SWAP>
 80023d0:	f7fd ffb4 	bl	800033c <RFROM>
 80023d4:	f7fd ffc6 	bl	8000364 <DROP>
 80023d8:	f852 fb04 	ldr.w	pc, [r2], #4

080023dc <DOTNONAME>:
 80023dc:	f842 ed04 	str.w	lr, [r2, #-4]!
 80023e0:	f841 5d04 	str.w	r5, [r1, #-4]!
 80023e4:	f7fd ff69 	bl	80002ba <DOLIT>
 80023e8:	08003234 	stmdaeq	r0, {r2, r4, r5, r9, ip, sp}
 80023ec:	f7fd fff6 	bl	80003dc <PLUS>
 80023f0:	f7fd ff9a 	bl	8000328 <AT>
 80023f4:	f7fe fc26 	bl	8000c44 <TYPEE>
 80023f8:	f852 fb04 	ldr.w	pc, [r2], #4

080023fc <IS_BLW>:
 80023fc:	f842 ed04 	str.w	lr, [r2, #-4]!
 8002400:	f7fd ff5b 	bl	80002ba <DOLIT>
 8002404:	d000f000 	andle	pc, r0, r0
 8002408:	f7fd ffb0 	bl	800036c <DUPP>
 800240c:	f7fd ffa0 	bl	8000350 <TOR>
 8002410:	f7fd ffbe 	bl	8000390 <ANDD>
 8002414:	f7fd ff92 	bl	800033c <RFROM>
 8002418:	f7fe f862 	bl	80004e0 <EQUAL>
 800241c:	f852 fb04 	ldr.w	pc, [r2], #4

08002420 <FL_SEE>:
 8002420:	f842 ed04 	str.w	lr, [r2, #-4]!
 8002424:	f7fe f8d2 	bl	80005cc <BASE>
 8002428:	f7fd ff7e 	bl	8000328 <AT>
 800242c:	f7fd ff90 	bl	8000350 <TOR>
 8002430:	f7fe fb06 	bl	8000a40 <HEX>
 8002434:	f7ff f986 	bl	8001744 <TICK>
 8002438:	f7fe fc18 	bl	8000c6c <CR>
 800243c:	f7ff ff38 	bl	80022b0 <CODE_ABORT>
 8002440:	f000 f808 	bl	8002454 <FL_SCOL>
 8002444:	f7fd ff7a 	bl	800033c <RFROM>
 8002448:	f7fe f8c0 	bl	80005cc <BASE>
 800244c:	f7fd ff66 	bl	800031c <STORE>
 8002450:	f852 fb04 	ldr.w	pc, [r2], #4

08002454 <FL_SCOL>:
 8002454:	f842 ed04 	str.w	lr, [r2, #-4]!
 8002458:	f7fd ff2f 	bl	80002ba <DOLIT>
 800245c:	00000009 	andeq	r0, r0, r9
 8002460:	f7fd ff76 	bl	8000350 <TOR>

08002464 <SCOL1>:
 8002464:	f7fd ffe6 	bl	8000434 <CELLP>
 8002468:	f7ff ff14 	bl	8002294 <DOTCA>
 800246c:	f7ff ff46 	bl	80022fc <UNNESTQ>
 8002470:	f7fd ff40 	bl	80002f4 <QBRAN>
 8002474:	080024a4 	stmdaeq	r0, {r2, r5, r7, sl, sp}
 8002478:	f7fd ff78 	bl	800036c <DUPP>
 800247c:	f7fd ffda 	bl	8000434 <CELLP>
 8002480:	f7fd ff52 	bl	8000328 <AT>
 8002484:	f7ff ffba 	bl	80023fc <IS_BLW>
 8002488:	f7fe f814 	bl	80004b4 <INVER>
 800248c:	f7fd ff32 	bl	80002f4 <QBRAN>
 8002490:	08002464 	stmdaeq	r0, {r2, r5, r6, sl, sp}
 8002494:	f7fd ff52 	bl	800033c <RFROM>
 8002498:	f7fd ff64 	bl	8000364 <DROP>
 800249c:	f7fd ff36 	bl	800030c <BRAN>
 80024a0:	080024b8 	stmdaeq	r0, {r3, r4, r5, r7, sl, sp}
 80024a4:	f7fd ff62 	bl	800036c <DUPP>
 80024a8:	f000 f82c 	bl	8002504 <FL_DECOMP>
 80024ac:	f7fe fbde 	bl	8000c6c <CR>
 80024b0:	f7fd ff11 	bl	80002d6 <DONXT>
 80024b4:	08002464 	stmdaeq	r0, {r2, r5, r6, sl, sp}
 80024b8:	f7fd ff54 	bl	8000364 <DROP>
 80024bc:	f852 fb04 	ldr.w	pc, [r2], #4

080024c0 <BLADR>:
 80024c0:	ea4f 0405 	mov.w	r4, r5
 80024c4:	ea4f 4434 	mov.w	r4, r4, ror #16
 80024c8:	f364 050a 	bfi	r5, r4, #0, #11
 80024cc:	ea4f 24e4 	mov.w	r4, r4, asr #11
 80024d0:	f364 5555 	bfi	r5, r4, #21, #1
 80024d4:	ea4f 04a4 	mov.w	r4, r4, asr #2
 80024d8:	f364 5596 	bfi	r5, r4, #22, #1
 80024dc:	ea4f 04e4 	mov.w	r4, r4, asr #3
 80024e0:	f364 25d4 	bfi	r5, r4, #11, #10
 80024e4:	ea4f 24a4 	mov.w	r4, r4, asr #10
 80024e8:	f364 55d7 	bfi	r5, r4, #23, #1
 80024ec:	f415 0f00 	tst.w	r5, #8388608	; 0x800000
 80024f0:	f040 8002 	bne.w	80024f8 <BLADR+0x38>
 80024f4:	f485 05c0 	eor.w	r5, r5, #6291456	; 0x600000
 80024f8:	ea4f 2505 	mov.w	r5, r5, lsl #8
 80024fc:	ea4f 15e5 	mov.w	r5, r5, asr #7
 8002500:	4770      	bx	lr
 8002502:	bf00      	nop

08002504 <FL_DECOMP>:
 8002504:	f842 ed04 	str.w	lr, [r2, #-4]!
 8002508:	f7fd ff30 	bl	800036c <DUPP>
 800250c:	f7fd ff0c 	bl	8000328 <AT>
 8002510:	f7fd ff2c 	bl	800036c <DUPP>
 8002514:	f7ff ff72 	bl	80023fc <IS_BLW>
 8002518:	f7fd feec 	bl	80002f4 <QBRAN>
 800251c:	0800257c 	stmdaeq	r0, {r2, r3, r4, r5, r6, r8, sl, sp}
 8002520:	f7fe fbdc 	bl	8000cdc <DOTQP>
 8002524:	204c4203 	subcs	r4, ip, r3, lsl #4
 8002528:	f7ff ffca 	bl	80024c0 <BLADR>
 800252c:	f7fd ff26 	bl	800037c <OVER>
 8002530:	f7fd ff54 	bl	80003dc <PLUS>
 8002534:	f7fd ff7e 	bl	8000434 <CELLP>
 8002538:	f7ff feac 	bl	8002294 <DOTCA>
 800253c:	f7ff fefa 	bl	8002334 <NONAMEQ>
 8002540:	f7fd fed8 	bl	80002f4 <QBRAN>
 8002544:	08002550 	stmdaeq	r0, {r4, r6, r8, sl, sp}
 8002548:	f7fd fee0 	bl	800030c <BRAN>
 800254c:	08002554 	stmdaeq	r0, {r2, r4, r6, r8, sl, sp}

08002550 <DECOMP1>:
 8002550:	f7ff fe56 	bl	8002200 <FL_TNAME>

08002554 <DECOMP3>:
 8002554:	f7ff fe80 	bl	8002258 <FL_DOTID>
 8002558:	f7fd ff04 	bl	8000364 <DROP>
 800255c:	f7fd feee 	bl	800033c <RFROM>
 8002560:	f7fd feec 	bl	800033c <RFROM>
 8002564:	f7fd fefe 	bl	8000364 <DROP>
 8002568:	f7fd fea7 	bl	80002ba <DOLIT>
 800256c:	00000009 	andeq	r0, r0, r9
 8002570:	f7fd feee 	bl	8000350 <TOR>
 8002574:	f7fd feec 	bl	8000350 <TOR>
 8002578:	f852 fb04 	ldr.w	pc, [r2], #4

0800257c <DECOM2>:
 800257c:	f7fe fbde 	bl	8000d3c <UDOT>
 8002580:	f7fd fef0 	bl	8000364 <DROP>
 8002584:	f852 fb04 	ldr.w	pc, [r2], #4

08002588 <FL_WORDS>:
 8002588:	f842 ed04 	str.w	lr, [r2, #-4]!
 800258c:	f7fe fb6e 	bl	8000c6c <CR>
 8002590:	f7fe f844 	bl	800061c <CNTXT>
 8002594:	f7fd fec8 	bl	8000328 <AT>

08002598 <WORS1>:
 8002598:	f7fd ff6a 	bl	8000470 <QDUP>
 800259c:	f7fd feaa 	bl	80002f4 <QBRAN>
 80025a0:	080025bc 	stmdaeq	r0, {r2, r3, r4, r5, r7, r8, sl, sp}
 80025a4:	f7fd fee2 	bl	800036c <DUPP>
 80025a8:	f7fe fb30 	bl	8000c0c <SPACE>
 80025ac:	f7ff fe54 	bl	8002258 <FL_DOTID>
 80025b0:	f7fd ff44 	bl	800043c <CELLM>
 80025b4:	f7fd feb8 	bl	8000328 <AT>
 80025b8:	f7ff bfee 	b.w	8002598 <WORS1>

080025bc <WORS2>:
 80025bc:	f852 fb04 	ldr.w	pc, [r2], #4

080025c0 <LF_RSTIVEC>:
 80025c0:	0000      	movs	r0, r0
	...

080025c4 <_RSTIVEC>:
 80025c4:	5208      	strh	r0, [r1, r0]
 80025c6:	5453      	strb	r3, [r2, r1]
 80025c8:	492d      	ldr	r1, [pc, #180]	; (8002680 <_CSTOR>)
 80025ca:	4556      	cmp	r6, sl
 80025cc:	0043      	lsls	r3, r0, #1
	...

080025d0 <CA_RSTIVEC>:
 80025d0:	200001a0 	andcs	r0, r0, r0, lsr #3

080025d4 <LF_SETIVEC>:
 80025d4:	080025c4 	stmdaeq	r0, {r2, r6, r7, r8, sl, sp}

080025d8 <_SETIVEC>:
 80025d8:	54455308 	strbpl	r5, [r5], #-776	; 0xfffffcf8
 80025dc:	4556492d 	ldrbmi	r4, [r6, #-2349]	; 0xfffff6d3
 80025e0:	00000043 	andeq	r0, r0, r3, asr #32

080025e4 <CA_SETIVEC>:
 80025e4:	200001c8 	andcs	r0, r0, r8, asr #3

080025e8 <LF_RAND>:
 80025e8:	080025d8 	stmdaeq	r0, {r3, r4, r6, r7, r8, sl, sp}

080025ec <_RAND>:
 80025ec:	4e415206 	cdpmi	2, 4, cr5, cr1, cr6, {0}
 80025f0:	004d4f44 	subeq	r4, sp, r4, asr #30

080025f4 <CA_RAND>:
 80025f4:	200001f0 	strdcs	r0, [r0], -r0	; <UNPREDICTABLE>

080025f8 <LF_PAUSE>:
 80025f8:	080025ec 	stmdaeq	r0, {r2, r3, r5, r6, r7, r8, sl, sp}

080025fc <_PAUSE>:
 80025fc:	55415005 	strbpl	r5, [r1, #-5]
 8002600:	00004553 	andeq	r4, r0, r3, asr r5

08002604 <CA_PAUSE>:
 8002604:	20000230 	andcs	r0, r0, r0, lsr r2

08002608 <LF_ULED>:
 8002608:	080025fc 	stmdaeq	r0, {r2, r3, r4, r5, r6, r7, r8, sl, sp}

0800260c <_ULED>:
 800260c:	454c5504 	strbmi	r5, [ip, #-1284]	; 0xfffffafc
 8002610:	00000044 	andeq	r0, r0, r4, asr #32

08002614 <CA_ULED>:
 8002614:	20000258 	andcs	r0, r0, r8, asr r2

08002618 <LF_QRX>:
 8002618:	0800260c 	stmdaeq	r0, {r2, r3, r9, sl, sp}

0800261c <_QRX>:
 800261c:	454b3f04 	strbmi	r3, [fp, #-3844]	; 0xfffff0fc
 8002620:	00000059 	andeq	r0, r0, r9, asr r0

08002624 <CA_QRX>:
 8002624:	20000274 	andcs	r0, r0, r4, ror r2

08002628 <LF_EMIT>:
 8002628:	0800261c 	stmdaeq	r0, {r2, r3, r4, r9, sl, sp}

0800262c <_EMIT>:
 800262c:	494d4504 	stmdbmi	sp, {r2, r8, sl, lr}^
 8002630:	00000054 	andeq	r0, r0, r4, asr r0

08002634 <CA_EMIT>:
 8002634:	200002a0 	andcs	r0, r0, r0, lsr #5

08002638 <LF_NOP>:
 8002638:	0800262c 	stmdaeq	r0, {r2, r3, r5, r9, sl, sp}

0800263c <_NOP>:
 800263c:	504f4e03 	subpl	r4, pc, r3, lsl #28

08002640 <CA_NOP>:
 8002640:	200002b8 			; <UNDEFINED> instruction: 0x200002b8

08002644 <LF_EXECU>:
 8002644:	0800263c 	stmdaeq	r0, {r2, r3, r4, r5, r9, sl, sp}

08002648 <_EXECU>:
 8002648:	45584507 	ldrbmi	r4, [r8, #-1287]	; 0xfffffaf9
 800264c:	45545543 	ldrbmi	r5, [r4, #-1347]	; 0xfffffabd

08002650 <CA_EXECU>:
 8002650:	200002cc 	andcs	r0, r0, ip, asr #5

08002654 <LF_EXIT>:
 8002654:	08002648 	stmdaeq	r0, {r3, r6, r9, sl, sp}

08002658 <_EXIT>:
 8002658:	49584504 	ldmdbmi	r8, {r2, r8, sl, lr}^
 800265c:	00000054 	andeq	r0, r0, r4, asr r0

08002660 <CA_EXIT>:
 8002660:	20000318 	andcs	r0, r0, r8, lsl r3

08002664 <LF_STORE>:
 8002664:	08002658 	stmdaeq	r0, {r3, r4, r6, r9, sl, sp}

08002668 <_STORE>:
 8002668:	00002101 	andeq	r2, r0, r1, lsl #2

0800266c <CA_STORE>:
 800266c:	2000031c 	andcs	r0, r0, ip, lsl r3

08002670 <LF_AT>:
 8002670:	08002668 	stmdaeq	r0, {r3, r5, r6, r9, sl, sp}

08002674 <_AT>:
 8002674:	00004001 	andeq	r4, r0, r1

08002678 <CA_AT>:
 8002678:	20000328 	andcs	r0, r0, r8, lsr #6

0800267c <LF_CSTOR>:
 800267c:	08002674 	stmdaeq	r0, {r2, r4, r5, r6, r9, sl, sp}

08002680 <_CSTOR>:
 8002680:	00214302 	eoreq	r4, r1, r2, lsl #6

08002684 <CA_CSTOR>:
 8002684:	2000032c 	andcs	r0, r0, ip, lsr #6

08002688 <LF_CAT>:
 8002688:	08002680 	stmdaeq	r0, {r7, r9, sl, sp}

0800268c <_CAT>:
 800268c:	00404302 	subeq	r4, r0, r2, lsl #6

08002690 <CA_CAT>:
 8002690:	20000338 	andcs	r0, r0, r8, lsr r3

08002694 <LF_RFROM>:
 8002694:	0800268c 	stmdaeq	r0, {r2, r3, r7, r9, sl, sp}

08002698 <_RFROM>:
 8002698:	003e5202 	eorseq	r5, lr, r2, lsl #4

0800269c <CA_RFROM>:
 800269c:	2000033c 	andcs	r0, r0, ip, lsr r3

080026a0 <LF_RAT>:
 80026a0:	08002698 	stmdaeq	r0, {r3, r4, r7, r9, sl, sp}

080026a4 <_RAT>:
 80026a4:	00405202 	subeq	r5, r0, r2, lsl #4

080026a8 <CA_RAT>:
 80026a8:	20000348 	andcs	r0, r0, r8, asr #6

080026ac <LF_TOR>:
 80026ac:	080026a4 	stmdaeq	r0, {r2, r5, r7, r9, sl, sp}

080026b0 <_TOR>:
 80026b0:	00523e42 	subseq	r3, r2, r2, asr #28

080026b4 <CA_TOR>:
 80026b4:	20000350 	andcs	r0, r0, r0, asr r3

080026b8 <LF_SPAT>:
 80026b8:	080026b0 	stmdaeq	r0, {r4, r5, r7, r9, sl, sp}

080026bc <_SPAT>:
 80026bc:	40505303 	subsmi	r5, r0, r3, lsl #6

080026c0 <CA_SPAT>:
 80026c0:	2000035c 	andcs	r0, r0, ip, asr r3

080026c4 <LF_DROP>:
 80026c4:	080026bc 	stmdaeq	r0, {r2, r3, r4, r5, r7, r9, sl, sp}

080026c8 <_DROP>:
 80026c8:	4f524404 	svcmi	0x00524404
 80026cc:	00000050 	andeq	r0, r0, r0, asr r0

080026d0 <CA_DROP>:
 80026d0:	20000364 	andcs	r0, r0, r4, ror #6

080026d4 <LF_DUPP>:
 80026d4:	080026c8 	stmdaeq	r0, {r3, r6, r7, r9, sl, sp}

080026d8 <_DUPP>:
 80026d8:	50554403 	subspl	r4, r5, r3, lsl #8

080026dc <CA_DUPP>:
 80026dc:	2000036c 	andcs	r0, r0, ip, ror #6

080026e0 <LF_SWAP>:
 80026e0:	080026d8 	stmdaeq	r0, {r3, r4, r6, r7, r9, sl, sp}

080026e4 <_SWAP>:
 80026e4:	41575304 	cmpmi	r7, r4, lsl #6
 80026e8:	00000050 	andeq	r0, r0, r0, asr r0

080026ec <CA_SWAP>:
 80026ec:	20000374 	andcs	r0, r0, r4, ror r3

080026f0 <LF_OVER>:
 80026f0:	080026e4 	stmdaeq	r0, {r2, r5, r6, r7, r9, sl, sp}

080026f4 <_OVER>:
 80026f4:	45564f04 	ldrbmi	r4, [r6, #-3844]	; 0xfffff0fc
 80026f8:	00000052 	andeq	r0, r0, r2, asr r0

080026fc <CA_OVER>:
 80026fc:	2000037c 	andcs	r0, r0, ip, ror r3

08002700 <LF_ZLESS>:
 8002700:	080026f4 	stmdaeq	r0, {r2, r4, r5, r6, r7, r9, sl, sp}

08002704 <_ZLESS>:
 8002704:	003c3002 	eorseq	r3, ip, r2

08002708 <CA_ZLESS>:
 8002708:	20000384 	andcs	r0, r0, r4, lsl #7

0800270c <LF_ANDD>:
 800270c:	08002704 	stmdaeq	r0, {r2, r8, r9, sl, sp}

08002710 <_ANDD>:
 8002710:	444e4103 	strbmi	r4, [lr], #-259	; 0xfffffefd

08002714 <CA_ANDD>:
 8002714:	20000390 	mulcs	r0, r0, r3

08002718 <LF_ORR>:
 8002718:	08002710 	stmdaeq	r0, {r4, r8, r9, sl, sp}

0800271c <_ORR>:
 800271c:	00524f02 	subseq	r4, r2, r2, lsl #30

08002720 <CA_ORR>:
 8002720:	2000039c 	mulcs	r0, ip, r3

08002724 <LF_XORR>:
 8002724:	0800271c 	stmdaeq	r0, {r2, r3, r4, r8, r9, sl, sp}

08002728 <_XORR>:
 8002728:	524f5803 	subpl	r5, pc, #196608	; 0x30000

0800272c <CA_XORR>:
 800272c:	200003a8 	andcs	r0, r0, r8, lsr #7

08002730 <LF_UPLUS>:
 8002730:	08002728 	stmdaeq	r0, {r3, r5, r8, r9, sl, sp}

08002734 <_UPLUS>:
 8002734:	2b4d5503 	blcs	9357b48 <FLASH_HIDDEN_END+0x1337b48>

08002738 <CA_UPLUS>:
 8002738:	200003b4 			; <UNDEFINED> instruction: 0x200003b4

0800273c <LF_RSHIFT>:
 800273c:	08002734 	stmdaeq	r0, {r2, r4, r5, r8, r9, sl, sp}

08002740 <_RSHIFT>:
 8002740:	48535206 	ldmdami	r3, {r1, r2, r9, ip, lr}^
 8002744:	00544649 	subseq	r4, r4, r9, asr #12

08002748 <CA_RSHIFT>:
 8002748:	200003c4 	andcs	r0, r0, r4, asr #7

0800274c <LF_LSHIFT>:
 800274c:	08002740 	stmdaeq	r0, {r6, r8, r9, sl, sp}

08002750 <_LSHIFT>:
 8002750:	48534c06 	ldmdami	r3, {r1, r2, sl, fp, lr}^
 8002754:	00544649 	subseq	r4, r4, r9, asr #12

08002758 <CA_LSHIFT>:
 8002758:	200003d0 	ldrdcs	r0, [r0], -r0	; <UNPREDICTABLE>

0800275c <LF_PLUS>:
 800275c:	08002750 	stmdaeq	r0, {r4, r6, r8, r9, sl, sp}

08002760 <_PLUS>:
 8002760:	00002b01 	andeq	r2, r0, r1, lsl #22

08002764 <CA_PLUS>:
 8002764:	200003dc 	ldrdcs	r0, [r0], -ip

08002768 <LF_SUBB>:
 8002768:	08002760 	stmdaeq	r0, {r5, r6, r8, r9, sl, sp}

0800276c <_SUBB>:
 800276c:	00002d01 	andeq	r2, r0, r1, lsl #26

08002770 <CA_SUBB>:
 8002770:	200003e4 	andcs	r0, r0, r4, ror #7

08002774 <LF_STAR>:
 8002774:	0800276c 	stmdaeq	r0, {r2, r3, r5, r6, r8, r9, sl, sp}

08002778 <_STAR>:
 8002778:	00002a01 	andeq	r2, r0, r1, lsl #20

0800277c <CA_STAR>:
 800277c:	200003f0 	strdcs	r0, [r0], -r0	; <UNPREDICTABLE>

08002780 <LF_UMSTA>:
 8002780:	08002778 	stmdaeq	r0, {r3, r4, r5, r6, r8, r9, sl, sp}

08002784 <_UMSTA>:
 8002784:	2a4d5503 	bcs	9357b98 <FLASH_HIDDEN_END+0x1337b98>

08002788 <CA_UMSTA>:
 8002788:	200003fc 	strdcs	r0, [r0], -ip

0800278c <LF_MSTAR>:
 800278c:	08002784 	stmdaeq	r0, {r2, r7, r8, r9, sl, sp}

08002790 <_MSTAR>:
 8002790:	002a4d02 	eoreq	r4, sl, r2, lsl #26

08002794 <CA_MSTAR>:
 8002794:	20000408 	andcs	r0, r0, r8, lsl #8

08002798 <LF_ONEP>:
 8002798:	08002790 	stmdaeq	r0, {r4, r7, r8, r9, sl, sp}

0800279c <_ONEP>:
 800279c:	002b3102 	eoreq	r3, fp, r2, lsl #2

080027a0 <CA_ONEP>:
 80027a0:	20000414 	andcs	r0, r0, r4, lsl r4

080027a4 <LF_ONEM>:
 80027a4:	0800279c 	stmdaeq	r0, {r2, r3, r4, r7, r8, r9, sl, sp}

080027a8 <_ONEM>:
 80027a8:	002d3102 	eoreq	r3, sp, r2, lsl #2

080027ac <CA_ONEM>:
 80027ac:	2000041c 	andcs	r0, r0, ip, lsl r4

080027b0 <LF_TWOP>:
 80027b0:	080027a8 	stmdaeq	r0, {r3, r5, r7, r8, r9, sl, sp}

080027b4 <_TWOP>:
 80027b4:	002b3202 	eoreq	r3, fp, r2, lsl #4

080027b8 <CA_TWOP>:
 80027b8:	20000424 	andcs	r0, r0, r4, lsr #8

080027bc <LF_TWOM>:
 80027bc:	080027b4 	stmdaeq	r0, {r2, r4, r5, r7, r8, r9, sl, sp}

080027c0 <_TWOM>:
 80027c0:	002d3202 	eoreq	r3, sp, r2, lsl #4

080027c4 <CA_TWOM>:
 80027c4:	2000042c 	andcs	r0, r0, ip, lsr #8

080027c8 <LF_CELLP>:
 80027c8:	080027c0 	stmdaeq	r0, {r6, r7, r8, r9, sl, sp}

080027cc <_CELLP>:
 80027cc:	4c454305 	mcrrmi	3, 0, r4, r5, cr5
 80027d0:	00002b4c 	andeq	r2, r0, ip, asr #22

080027d4 <CA_CELLP>:
 80027d4:	20000434 	andcs	r0, r0, r4, lsr r4

080027d8 <LF_CELLM>:
 80027d8:	080027cc 	stmdaeq	r0, {r2, r3, r6, r7, r8, r9, sl, sp}

080027dc <_CELLM>:
 80027dc:	4c454305 	mcrrmi	3, 0, r4, r5, cr5
 80027e0:	00002d4c 	andeq	r2, r0, ip, asr #26

080027e4 <CA_CELLM>:
 80027e4:	2000043c 	andcs	r0, r0, ip, lsr r4

080027e8 <LF_BLANK>:
 80027e8:	080027dc 	stmdaeq	r0, {r2, r3, r4, r6, r7, r8, r9, sl, sp}

080027ec <_BLANK>:
 80027ec:	004c4202 	subeq	r4, ip, r2, lsl #4

080027f0 <CA_BLANK>:
 80027f0:	20000444 	andcs	r0, r0, r4, asr #8

080027f4 <LF_CELLS>:
 80027f4:	080027ec 	stmdaeq	r0, {r2, r3, r5, r6, r7, r8, r9, sl, sp}

080027f8 <_CELLS>:
 80027f8:	4c454305 	mcrrmi	3, 0, r4, r5, cr5
 80027fc:	0000534c 	andeq	r5, r0, ip, asr #6

08002800 <CA_CELLS>:
 8002800:	20000450 	andcs	r0, r0, r0, asr r4

08002804 <LF_CELLSL>:
 8002804:	080027f8 	stmdaeq	r0, {r3, r4, r5, r6, r7, r8, r9, sl, sp}

08002808 <_CELLSL>:
 8002808:	4c454305 	mcrrmi	3, 0, r4, r5, cr5
 800280c:	00002f4c 	andeq	r2, r0, ip, asr #30

08002810 <CA_CELLSL>:
 8002810:	20000458 	andcs	r0, r0, r8, asr r4

08002814 <LF_TWOST>:
 8002814:	08002808 	stmdaeq	r0, {r3, fp, sp}

08002818 <_TWOST>:
 8002818:	002a3202 	eoreq	r3, sl, r2, lsl #4

0800281c <CA_TWOST>:
 800281c:	20000460 	andcs	r0, r0, r0, ror #8

08002820 <LF_TWOSL>:
 8002820:	08002818 	stmdaeq	r0, {r3, r4, fp, sp}

08002824 <_TWOSL>:
 8002824:	002f3202 	eoreq	r3, pc, r2, lsl #4

08002828 <CA_TWOSL>:
 8002828:	20000468 	andcs	r0, r0, r8, ror #8

0800282c <LF_QDUP>:
 800282c:	08002824 	stmdaeq	r0, {r2, r5, fp, sp}

08002830 <_QDUP>:
 8002830:	55443f04 	strbpl	r3, [r4, #-3844]	; 0xfffff0fc
 8002834:	00000050 	andeq	r0, r0, r0, asr r0

08002838 <CA_QDUP>:
 8002838:	20000470 	andcs	r0, r0, r0, ror r4

0800283c <LF_ROT>:
 800283c:	08002830 	stmdaeq	r0, {r4, r5, fp, sp}

08002840 <_ROT>:
 8002840:	544f5203 	strbpl	r5, [pc], #-515	; 8002848 <LF_DDROP>

08002844 <CA_ROT>:
 8002844:	2000047c 	andcs	r0, r0, ip, ror r4

08002848 <LF_DDROP>:
 8002848:	08002840 	stmdaeq	r0, {r6, fp, sp}

0800284c <_DDROP>:
 800284c:	52443205 	subpl	r3, r4, #1342177280	; 0x50000000
 8002850:	0000504f 	andeq	r5, r0, pc, asr #32

08002854 <CA_DDROP>:
 8002854:	20000488 	andcs	r0, r0, r8, lsl #9

08002858 <LF_DDUP>:
 8002858:	0800284c 	stmdaeq	r0, {r2, r3, r6, fp, sp}

0800285c <_DDUP>:
 800285c:	55443204 	strbpl	r3, [r4, #-516]	; 0xfffffdfc
 8002860:	00000050 	andeq	r0, r0, r0, asr r0

08002864 <CA_DDUP>:
 8002864:	20000494 	mulcs	r0, r4, r4

08002868 <LF_DPLUS>:
 8002868:	0800285c 	stmdaeq	r0, {r2, r3, r4, r6, fp, sp}

0800286c <_DPLUS>:
 800286c:	002b4402 	eoreq	r4, fp, r2, lsl #8

08002870 <CA_DPLUS>:
 8002870:	200004a0 	andcs	r0, r0, r0, lsr #9

08002874 <LF_INVER>:
 8002874:	0800286c 	stmdaeq	r0, {r2, r3, r5, r6, fp, sp}

08002878 <_INVER>:
 8002878:	544f4e03 	strbpl	r4, [pc], #-3587	; 8002880 <LF_NEGAT>

0800287c <CA_INVER>:
 800287c:	200004b4 			; <UNDEFINED> instruction: 0x200004b4

08002880 <LF_NEGAT>:
 8002880:	08002878 	stmdaeq	r0, {r3, r4, r5, r6, fp, sp}

08002884 <_NEGAT>:
 8002884:	47454e06 	strbmi	r4, [r5, -r6, lsl #28]
 8002888:	00455441 	subeq	r5, r5, r1, asr #8

0800288c <CA_NEGAT>:
 800288c:	200004bc 			; <UNDEFINED> instruction: 0x200004bc

08002890 <LF_ABSS>:
 8002890:	08002884 	stmdaeq	r0, {r2, r7, fp, sp}

08002894 <_ABSS>:
 8002894:	53424103 	movtpl	r4, #8451	; 0x2103

08002898 <CA_ABSS>:
 8002898:	200004c4 	andcs	r0, r0, r4, asr #9

0800289c <LF_ZEQUAL>:
 800289c:	08002894 	stmdaeq	r0, {r2, r4, r7, fp, sp}

080028a0 <_ZEQUAL>:
 80028a0:	003d3002 	eorseq	r3, sp, r2

080028a4 <CA_ZEQUAL>:
 80028a4:	200004d0 	ldrdcs	r0, [r0], -r0	; <UNPREDICTABLE>

080028a8 <LF_EQUAL>:
 80028a8:	080028a0 	stmdaeq	r0, {r5, r7, fp, sp}

080028ac <_EQUAL>:
 80028ac:	00003d01 	andeq	r3, r0, r1, lsl #26

080028b0 <CA_EQUAL>:
 80028b0:	200004e0 	andcs	r0, r0, r0, ror #9

080028b4 <LF_ULESS>:
 80028b4:	080028ac 	stmdaeq	r0, {r2, r3, r5, r7, fp, sp}

080028b8 <_ULESS>:
 80028b8:	003c5502 	eorseq	r5, ip, r2, lsl #10

080028bc <CA_ULESS>:
 80028bc:	200004f0 	strdcs	r0, [r0], -r0	; <UNPREDICTABLE>

080028c0 <LF_LESS>:
 80028c0:	080028b8 	stmdaeq	r0, {r3, r4, r5, r7, fp, sp}

080028c4 <_LESS>:
 80028c4:	00003c01 	andeq	r3, r0, r1, lsl #24

080028c8 <CA_LESS>:
 80028c8:	20000500 	andcs	r0, r0, r0, lsl #10

080028cc <LF_GREAT>:
 80028cc:	080028c4 	stmdaeq	r0, {r2, r6, r7, fp, sp}

080028d0 <_GREAT>:
 80028d0:	00003e01 	andeq	r3, r0, r1, lsl #28

080028d4 <CA_GREAT>:
 80028d4:	20000510 	andcs	r0, r0, r0, lsl r5

080028d8 <LF_MAX>:
 80028d8:	080028d0 	stmdaeq	r0, {r4, r6, r7, fp, sp}

080028dc <_MAX>:
 80028dc:	58414d03 	stmdapl	r1, {r0, r1, r8, sl, fp, lr}^

080028e0 <CA_MAX>:
 80028e0:	20000520 	andcs	r0, r0, r0, lsr #10

080028e4 <LF_MIN>:
 80028e4:	080028dc 	stmdaeq	r0, {r2, r3, r4, r6, r7, fp, sp}

080028e8 <_MIN>:
 80028e8:	4e494d03 	cdpmi	13, 4, cr4, cr9, cr3, {0}

080028ec <CA_MIN>:
 80028ec:	2000052c 	andcs	r0, r0, ip, lsr #10

080028f0 <LF_PSTOR>:
 80028f0:	080028e8 	stmdaeq	r0, {r3, r5, r6, r7, fp, sp}

080028f4 <_PSTOR>:
 80028f4:	00212b02 	eoreq	r2, r1, r2, lsl #22

080028f8 <CA_PSTOR>:
 80028f8:	20000538 	andcs	r0, r0, r8, lsr r5

080028fc <LF_DSTOR>:
 80028fc:	080028f4 	stmdaeq	r0, {r2, r4, r5, r6, r7, fp, sp}

08002900 <_DSTOR>:
 8002900:	00213202 	eoreq	r3, r1, r2, lsl #4

08002904 <CA_DSTOR>:
 8002904:	20000548 	andcs	r0, r0, r8, asr #10

08002908 <LF_DAT>:
 8002908:	08002900 	stmdaeq	r0, {r8, fp, sp}

0800290c <_DAT>:
 800290c:	00403202 	subeq	r3, r0, r2, lsl #4

08002910 <CA_DAT>:
 8002910:	2000055c 	andcs	r0, r0, ip, asr r5

08002914 <LF_COUNT>:
 8002914:	0800290c 	stmdaeq	r0, {r2, r3, r8, fp, sp}

08002918 <_COUNT>:
 8002918:	554f4305 	strbpl	r4, [pc, #-773]	; 800261b <LF_QRX+0x3>
 800291c:	0000544e 	andeq	r5, r0, lr, asr #8

08002920 <CA_COUNT>:
 8002920:	20000568 	andcs	r0, r0, r8, ror #10

08002924 <LF_DNEGA>:
 8002924:	08002918 	stmdaeq	r0, {r3, r4, r8, fp, sp}

08002928 <_DNEGA>:
 8002928:	454e4407 	strbmi	r4, [lr, #-1031]	; 0xfffffbf9
 800292c:	45544147 	ldrbmi	r4, [r4, #-327]	; 0xfffffeb9

08002930 <CA_DNEGA>:
 8002930:	20000574 	andcs	r0, r0, r4, ror r5

08002934 <LF_SEED>:
 8002934:	08002928 	stmdaeq	r0, {r3, r5, r8, fp, sp}

08002938 <_SEED>:
 8002938:	45455304 	strbmi	r5, [r5, #-772]	; 0xfffffcfc
 800293c:	00000044 	andeq	r0, r0, r4, asr #32

08002940 <CA_SEED>:
 8002940:	2000059c 	mulcs	r0, ip, r5

08002944 <LF_MSEC>:
 8002944:	08002938 	stmdaeq	r0, {r3, r4, r5, r8, fp, sp}

08002948 <_MSEC>:
 8002948:	45534d04 	ldrbmi	r4, [r3, #-3332]	; 0xfffff2fc
 800294c:	00000043 	andeq	r0, r0, r3, asr #32

08002950 <CA_MSEC>:
 8002950:	200005a8 	andcs	r0, r0, r8, lsr #11

08002954 <LF_TIMER>:
 8002954:	08002948 	stmdaeq	r0, {r3, r6, r8, fp, sp}

08002958 <_TIMER>:
 8002958:	4d495405 	cfstrdmi	mvd5, [r9, #-20]	; 0xffffffec
 800295c:	00005245 	andeq	r5, r0, r5, asr #4

08002960 <CA_TIMER>:
 8002960:	200005b4 			; <UNDEFINED> instruction: 0x200005b4

08002964 <LF_TBOOT>:
 8002964:	08002958 	stmdaeq	r0, {r3, r4, r6, r8, fp, sp}

08002968 <_TBOOT>:
 8002968:	4f422705 	svcmi	0x00422705
 800296c:	0000544f 	andeq	r5, r0, pc, asr #8

08002970 <CA_TBOOT>:
 8002970:	200005c0 	andcs	r0, r0, r0, asr #11

08002974 <LF_BASE>:
 8002974:	08002968 	stmdaeq	r0, {r3, r5, r6, r8, fp, sp}

08002978 <_BASE>:
 8002978:	53414204 	movtpl	r4, #4612	; 0x1204
 800297c:	00000045 	andeq	r0, r0, r5, asr #32

08002980 <CA_BASE>:
 8002980:	200005cc 	andcs	r0, r0, ip, asr #11

08002984 <LF_SPAN>:
 8002984:	08002978 	stmdaeq	r0, {r3, r4, r5, r6, r8, fp, sp}

08002988 <_SPAN>:
 8002988:	41505304 	cmpmi	r0, r4, lsl #6
 800298c:	0000004e 	andeq	r0, r0, lr, asr #32

08002990 <CA_SPAN>:
 8002990:	200005e0 	andcs	r0, r0, r0, ror #11

08002994 <LF_INN>:
 8002994:	08002988 	stmdaeq	r0, {r3, r7, r8, fp, sp}

08002998 <_INN>:
 8002998:	4e493e03 	cdpmi	14, 4, cr3, cr9, cr3, {0}

0800299c <CA_INN>:
 800299c:	200005ec 	andcs	r0, r0, ip, ror #11

080029a0 <LF_NTIB>:
 80029a0:	08002998 	stmdaeq	r0, {r3, r4, r7, r8, fp, sp}

080029a4 <_NTIB>:
 80029a4:	49542304 	ldmdbmi	r4, {r2, r8, r9, sp}^
 80029a8:	00000042 	andeq	r0, r0, r2, asr #32

080029ac <CA_NTIB>:
 80029ac:	200005f8 	strdcs	r0, [r0], -r8

080029b0 <LF_TEVAL>:
 80029b0:	080029a4 	stmdaeq	r0, {r2, r5, r7, r8, fp, sp}

080029b4 <_TEVAL>:
 80029b4:	56452705 	strbpl	r2, [r5], -r5, lsl #14
 80029b8:	00004c41 	andeq	r4, r0, r1, asr #24

080029bc <CA_TEVAL>:
 80029bc:	20000604 	andcs	r0, r0, r4, lsl #12

080029c0 <LF_HLD>:
 80029c0:	080029b4 	stmdaeq	r0, {r2, r4, r5, r7, r8, fp, sp}

080029c4 <_HLD>:
 80029c4:	444c4803 	strbmi	r4, [ip], #-2051	; 0xfffff7fd

080029c8 <CA_HLD>:
 80029c8:	20000610 	andcs	r0, r0, r0, lsl r6

080029cc <LF_CNTXT>:
 80029cc:	080029c4 	stmdaeq	r0, {r2, r6, r7, r8, fp, sp}

080029d0 <_CNTXT>:
 80029d0:	4e4f4307 	cdpmi	3, 4, cr4, cr15, cr7, {0}
 80029d4:	54584554 	ldrbpl	r4, [r8], #-1364	; 0xfffffaac

080029d8 <CA_CNTXT>:
 80029d8:	2000061c 	andcs	r0, r0, ip, lsl r6

080029dc <LF_CPP>:
 80029dc:	080029d0 	stmdaeq	r0, {r4, r6, r7, r8, fp, sp}

080029e0 <_CPP>:
 80029e0:	00504302 	subseq	r4, r0, r2, lsl #6

080029e4 <CA_CPP>:
 80029e4:	20000628 	andcs	r0, r0, r8, lsr #12

080029e8 <LF_FCP>:
 80029e8:	080029e0 	stmdaeq	r0, {r5, r6, r7, r8, fp, sp}

080029ec <_FCP>:
 80029ec:	50434603 	subpl	r4, r3, r3, lsl #12

080029f0 <CA_FCP>:
 80029f0:	20000634 	andcs	r0, r0, r4, lsr r6

080029f4 <LF_LAST>:
 80029f4:	080029ec 	stmdaeq	r0, {r2, r3, r5, r6, r7, r8, fp, sp}

080029f8 <_LAST>:
 80029f8:	53414c04 	movtpl	r4, #7172	; 0x1c04
 80029fc:	00000054 	andeq	r0, r0, r4, asr r0

08002a00 <CA_LAST>:
 8002a00:	20000640 	andcs	r0, r0, r0, asr #12

08002a04 <LF_USER_BEGIN>:
 8002a04:	080029f8 	stmdaeq	r0, {r3, r4, r5, r6, r7, r8, fp, sp}

08002a08 <_USER_BEGIN>:
 8002a08:	4553550a 	ldrbmi	r5, [r3, #-1290]	; 0xfffffaf6
 8002a0c:	45425f52 	strbmi	r5, [r2, #-3922]	; 0xfffff0ae
 8002a10:	004e4947 	subeq	r4, lr, r7, asr #18

08002a14 <CA_USER_BEGIN>:
 8002a14:	2000064c 	andcs	r0, r0, ip, asr #12

08002a18 <LF_USER_END>:
 8002a18:	08002a08 	stmdaeq	r0, {r3, r9, fp, sp}

08002a1c <_USER_END>:
 8002a1c:	45535508 	ldrbmi	r5, [r3, #-1288]	; 0xfffffaf8
 8002a20:	4e455f52 	mcrmi	15, 2, r5, cr5, cr2, {2}
 8002a24:	00000044 	andeq	r0, r0, r4, asr #32

08002a28 <CA_USER_END>:
 8002a28:	20000658 	andcs	r0, r0, r8, asr r6

08002a2c <LF_IMG_ADR>:
 8002a2c:	08002a1c 	stmdaeq	r0, {r2, r3, r4, r9, fp, sp}

08002a30 <_IMG_ADR>:
 8002a30:	474d4907 	strbmi	r4, [sp, -r7, lsl #18]
 8002a34:	5244415f 	subpl	r4, r4, #-1073741801	; 0xc0000017

08002a38 <CA_IMG_ADR>:
 8002a38:	20000668 	andcs	r0, r0, r8, ror #12

08002a3c <LF_IMG_SIGN>:
 8002a3c:	08002a30 	stmdaeq	r0, {r4, r5, r9, fp, sp}

08002a40 <_IMG_SIGN>:
 8002a40:	474d4908 	strbmi	r4, [sp, -r8, lsl #18]
 8002a44:	4749535f 	smlsldmi	r5, r9, pc, r3	; <UNPREDICTABLE>
 8002a48:	0000004e 	andeq	r0, r0, lr, asr #32

08002a4c <CA_IMG_SIGN>:
 8002a4c:	20000674 	andcs	r0, r0, r4, ror r6

08002a50 <LF_WITHI>:
 8002a50:	08002a40 	stmdaeq	r0, {r6, r9, fp, sp}

08002a54 <_WITHI>:
 8002a54:	54495706 	strbpl	r5, [r9], #-1798	; 0xfffff8fa
 8002a58:	004e4948 	subeq	r4, lr, r8, asr #18

08002a5c <CA_WITHI>:
 8002a5c:	20000680 	andcs	r0, r0, r0, lsl #13

08002a60 <LF_UMMOD>:
 8002a60:	08002a54 	stmdaeq	r0, {r2, r4, r6, r9, fp, sp}

08002a64 <_UMMOD>:
 8002a64:	2f4d5506 	svccs	0x004d5506
 8002a68:	00444f4d 	subeq	r4, r4, sp, asr #30

08002a6c <CA_UMMOD>:
 8002a6c:	200006a0 	andcs	r0, r0, r0, lsr #13

08002a70 <LF_MSMOD>:
 8002a70:	08002a64 	stmdaeq	r0, {r2, r5, r6, r9, fp, sp}

08002a74 <_MSMOD>:
 8002a74:	4d2f4d05 	stcmi	13, cr4, [pc, #-20]!	; 8002a68 <_UMMOD+0x4>
 8002a78:	0000444f 	andeq	r4, r0, pc, asr #8

08002a7c <CA_MSMOD>:
 8002a7c:	200006d0 	ldrdcs	r0, [r0], -r0	; <UNPREDICTABLE>

08002a80 <LF_SLMOD>:
 8002a80:	08002a74 	stmdaeq	r0, {r2, r4, r5, r6, r9, fp, sp}

08002a84 <_SLMOD>:
 8002a84:	4f4d2f04 	svcmi	0x004d2f04
 8002a88:	00000044 	andeq	r0, r0, r4, asr #32

08002a8c <CA_SLMOD>:
 8002a8c:	2000073c 	andcs	r0, r0, ip, lsr r7

08002a90 <LF_MODD>:
 8002a90:	08002a84 	stmdaeq	r0, {r2, r7, r9, fp, sp}

08002a94 <_MODD>:
 8002a94:	444f4d03 	strbmi	r4, [pc], #-3331	; 8002a9c <CA_MODD>
 8002a98:	00000044 	andeq	r0, r0, r4, asr #32

08002a9c <CA_MODD>:
 8002a9c:	20000754 	andcs	r0, r0, r4, asr r7

08002aa0 <LF_SLASH>:
 8002aa0:	08002a94 	stmdaeq	r0, {r2, r4, r7, r9, fp, sp}

08002aa4 <_SLASH>:
 8002aa4:	00002f01 	andeq	r2, r0, r1, lsl #30

08002aa8 <CA_SLASH>:
 8002aa8:	20000764 	andcs	r0, r0, r4, ror #14

08002aac <LF_SSMOD>:
 8002aac:	08002aa4 	stmdaeq	r0, {r2, r5, r7, r9, fp, sp}

08002ab0 <_SSMOD>:
 8002ab0:	4d2f2a05 	vstmdbmi	pc!, {s4-s8}
 8002ab4:	0000444f 	andeq	r4, r0, pc, asr #8

08002ab8 <CA_SSMOD>:
 8002ab8:	20000778 	andcs	r0, r0, r8, ror r7

08002abc <LF_STASL>:
 8002abc:	08002ab0 	stmdaeq	r0, {r4, r5, r7, r9, fp, sp}

08002ac0 <_STASL>:
 8002ac0:	002f2a02 	eoreq	r2, pc, r2, lsl #20

08002ac4 <CA_STASL>:
 8002ac4:	20000790 	mulcs	r0, r0, r7

08002ac8 <LF_ALGND>:
 8002ac8:	08002ac0 	stmdaeq	r0, {r6, r7, r9, fp, sp}

08002acc <_ALGND>:
 8002acc:	494c4107 	stmdbmi	ip, {r0, r1, r2, r8, lr}^
 8002ad0:	44454e47 	strbmi	r4, [r5], #-3655	; 0xfffff1b9

08002ad4 <CA_ALGND>:
 8002ad4:	200007a4 	andcs	r0, r0, r4, lsr #15

08002ad8 <LF_TCHAR>:
 8002ad8:	08002acc 	stmdaeq	r0, {r2, r3, r6, r7, r9, fp, sp}

08002adc <_TCHAR>:
 8002adc:	48433e05 	stmdami	r3, {r0, r2, r9, sl, fp, ip, sp}^
 8002ae0:	00005241 	andeq	r5, r0, r1, asr #4

08002ae4 <CA_TCHAR>:
 8002ae4:	200007b4 			; <UNDEFINED> instruction: 0x200007b4

08002ae8 <LF_DEPTH>:
 8002ae8:	08002adc 	stmdaeq	r0, {r2, r3, r4, r6, r7, r9, fp, sp}

08002aec <_DEPTH>:
 8002aec:	50454405 	subpl	r4, r5, r5, lsl #8
 8002af0:	00004854 	andeq	r4, r0, r4, asr r8

08002af4 <CA_DEPTH>:
 8002af4:	200007f4 	strdcs	r0, [r0], -r4

08002af8 <LF_PICK>:
 8002af8:	08002aec 	stmdaeq	r0, {r2, r3, r5, r6, r7, r9, fp, sp}

08002afc <_PICK>:
 8002afc:	43495004 	movtmi	r5, #36868	; 0x9004
 8002b00:	0000004b 	andeq	r0, r0, fp, asr #32

08002b04 <CA_PICK>:
 8002b04:	2000080c 	andcs	r0, r0, ip, lsl #16

08002b08 <LF_HERE>:
 8002b08:	08002afc 	stmdaeq	r0, {r2, r3, r4, r5, r6, r7, r9, fp, sp}

08002b0c <_HERE>:
 8002b0c:	52454804 	subpl	r4, r5, #4, 16	; 0x40000
 8002b10:	00000045 	andeq	r0, r0, r5, asr #32

08002b14 <CA_HERE>:
 8002b14:	20000828 	andcs	r0, r0, r8, lsr #16

08002b18 <LF_PAD>:
 8002b18:	08002b0c 	stmdaeq	r0, {r2, r3, r8, r9, fp, sp}

08002b1c <_PAD>:
 8002b1c:	44415004 	strbmi	r5, [r1], #-4

08002b20 <CA_PAD>:
 8002b20:	20000838 	andcs	r0, r0, r8, lsr r8

08002b24 <LF_TIB>:
 8002b24:	08002b1c 	stmdaeq	r0, {r2, r3, r4, r8, r9, fp, sp}

08002b28 <_TIB>:
 8002b28:	42495403 	submi	r5, r9, #50331648	; 0x3000000

08002b2c <CA_TIB>:
 8002b2c:	20000848 	andcs	r0, r0, r8, asr #16

08002b30 <LF_ATEXE>:
 8002b30:	08002b28 	stmdaeq	r0, {r3, r5, r8, r9, fp, sp}

08002b34 <_ATEXE>:
 8002b34:	58454008 	stmdapl	r5, {r3, lr}^
 8002b38:	54554345 	ldrbpl	r4, [r5], #-837	; 0xfffffcbb
 8002b3c:	00000045 	andeq	r0, r0, r5, asr #32

08002b40 <CA_ATEXE>:
 8002b40:	20000850 	andcs	r0, r0, r0, asr r8

08002b44 <LF_CMOVE>:
 8002b44:	08002b34 	stmdaeq	r0, {r2, r4, r5, r8, r9, fp, sp}

08002b48 <_CMOVE>:
 8002b48:	4f4d4305 	svcmi	0x004d4305
 8002b4c:	00004556 	andeq	r4, r0, r6, asr r5

08002b50 <CA_CMOVE>:
 8002b50:	20000864 	andcs	r0, r0, r4, ror #16

08002b54 <LF_MOVE>:
 8002b54:	08002b48 	stmdaeq	r0, {r3, r6, r8, r9, fp, sp}

08002b58 <_MOVE>:
 8002b58:	564f4d04 	strbpl	r4, [pc], -r4, lsl #26
 8002b5c:	00000045 	andeq	r0, r0, r5, asr #32

08002b60 <CA_MOVE>:
 8002b60:	20000888 	andcs	r0, r0, r8, lsl #17

08002b64 <LF_FILL>:
 8002b64:	08002b58 	stmdaeq	r0, {r3, r4, r6, r8, r9, fp, sp}

08002b68 <_FILL>:
 8002b68:	4c494604 	mcrrmi	6, 0, r4, r9, cr4
 8002b6c:	0000004c 	andeq	r0, r0, ip, asr #32

08002b70 <CA_FILL>:
 8002b70:	200008b0 			; <UNDEFINED> instruction: 0x200008b0

08002b74 <LF_PACKS>:
 8002b74:	08002b68 	stmdaeq	r0, {r3, r5, r6, r8, r9, fp, sp}

08002b78 <_PACKS>:
 8002b78:	43415005 	movtmi	r5, #4101	; 0x1005
 8002b7c:	0000244b 	andeq	r2, r0, fp, asr #8

08002b80 <CA_PACKS>:
 8002b80:	200008d0 	ldrdcs	r0, [r0], -r0	; <UNPREDICTABLE>

08002b84 <LF_DIGIT>:
 8002b84:	08002b78 	stmdaeq	r0, {r3, r4, r5, r6, r8, r9, fp, sp}

08002b88 <_DIGIT>:
 8002b88:	47494405 	strbmi	r4, [r9, -r5, lsl #8]
 8002b8c:	00005449 	andeq	r5, r0, r9, asr #8

08002b90 <CA_DIGIT>:
 8002b90:	20000928 	andcs	r0, r0, r8, lsr #18

08002b94 <LF_EXTRC>:
 8002b94:	08002b88 	stmdaeq	r0, {r3, r7, r8, r9, fp, sp}

08002b98 <_EXTRC>:
 8002b98:	54584507 	ldrbpl	r4, [r8], #-1287	; 0xfffffaf9
 8002b9c:	54434152 	strbpl	r4, [r3], #-338	; 0xfffffeae

08002ba0 <CA_EXTRC>:
 8002ba0:	2000094c 	andcs	r0, r0, ip, asr #18

08002ba4 <LF_BDIGS>:
 8002ba4:	08002b98 	stmdaeq	r0, {r3, r4, r7, r8, r9, fp, sp}

08002ba8 <_BDIGS>:
 8002ba8:	00233c02 	eoreq	r3, r3, r2, lsl #24

08002bac <CA_BDIGS>:
 8002bac:	2000096c 	andcs	r0, r0, ip, ror #18

08002bb0 <LF_HOLD>:
 8002bb0:	08002ba8 	stmdaeq	r0, {r3, r5, r7, r8, r9, fp, sp}

08002bb4 <_HOLD>:
 8002bb4:	4c4f4804 	mcrrmi	8, 0, r4, pc, cr4
 8002bb8:	00000044 	andeq	r0, r0, r4, asr #32

08002bbc <CA_HOLD>:
 8002bbc:	20000980 	andcs	r0, r0, r0, lsl #19

08002bc0 <LF_DIG>:
 8002bc0:	08002bb4 	stmdaeq	r0, {r2, r4, r5, r7, r8, r9, fp, sp}

08002bc4 <_DIG>:
 8002bc4:	00002301 	andeq	r2, r0, r1, lsl #6

08002bc8 <CA_DIG>:
 8002bc8:	200009a4 	andcs	r0, r0, r4, lsr #19

08002bcc <LF_DIGS>:
 8002bcc:	08002bc4 	stmdaeq	r0, {r2, r6, r7, r8, r9, fp, sp}

08002bd0 <_DIGS>:
 8002bd0:	00532302 	subseq	r2, r3, r2, lsl #6

08002bd4 <CA_DIGS>:
 8002bd4:	200009bc 			; <UNDEFINED> instruction: 0x200009bc

08002bd8 <LF_SIGN>:
 8002bd8:	08002bd0 	stmdaeq	r0, {r4, r6, r7, r8, r9, fp, sp}

08002bdc <_SIGN>:
 8002bdc:	47495304 	strbmi	r5, [r9, -r4, lsl #6]
 8002be0:	0000004e 	andeq	r0, r0, lr, asr #32

08002be4 <CA_SIGN>:
 8002be4:	200009d8 	ldrdcs	r0, [r0], -r8

08002be8 <LF_EDIGS>:
 8002be8:	08002bdc 	stmdaeq	r0, {r2, r3, r4, r6, r7, r8, r9, fp, sp}

08002bec <_EDIGS>:
 8002bec:	003e2302 	eorseq	r2, lr, r2, lsl #6

08002bf0 <CA_EDIGS>:
 8002bf0:	200009f8 	strdcs	r0, [r0], -r8

08002bf4 <LF_HEX>:
 8002bf4:	08002bec 	stmdaeq	r0, {r2, r3, r5, r6, r7, r8, r9, fp, sp}

08002bf8 <_HEX>:
 8002bf8:	58454803 	stmdapl	r5, {r0, r1, fp, lr}^

08002bfc <CA_HEX>:
 8002bfc:	20000a40 	andcs	r0, r0, r0, asr #20

08002c00 <LF_DECIM>:
 8002c00:	08002bf8 	stmdaeq	r0, {r3, r4, r5, r6, r7, r8, r9, fp, sp}

08002c04 <_DECIM>:
 8002c04:	43454407 	movtmi	r4, #21511	; 0x5407
 8002c08:	4c414d49 	mcrrmi	13, 4, r4, r1, cr9

08002c0c <CA_DECIM>:
 8002c0c:	20000a58 	andcs	r0, r0, r8, asr sl

08002c10 <LF_DIGTQ>:
 8002c10:	08002c04 	stmdaeq	r0, {r2, sl, fp, sp}

08002c14 <_DIGTQ>:
 8002c14:	47494406 	strbmi	r4, [r9, -r6, lsl #8]
 8002c18:	003f5449 	eorseq	r5, pc, r9, asr #8

08002c1c <CA_DIGTQ>:
 8002c1c:	20000a70 	andcs	r0, r0, r0, ror sl

08002c20 <LF_NUMBQ>:
 8002c20:	08002c14 	stmdaeq	r0, {r2, r4, sl, fp, sp}

08002c24 <_NUMBQ>:
 8002c24:	4d554e07 	ldclmi	14, cr4, [r5, #-28]	; 0xffffffe4
 8002c28:	3f524542 	svccc	0x00524542

08002c2c <CA_NUMBQ>:
 8002c2c:	20000acc 	andcs	r0, r0, ip, asr #21

08002c30 <LF_KEY>:
 8002c30:	08002c24 	stmdaeq	r0, {r2, r5, sl, fp, sp}

08002c34 <_KEY>:
 8002c34:	59454b03 	stmdbpl	r5, {r0, r1, r8, r9, fp, lr}^

08002c38 <CA_KEY>:
 8002c38:	20000bf8 	strdcs	r0, [r0], -r8

08002c3c <LF_SPACE>:
 8002c3c:	08002c34 	stmdaeq	r0, {r2, r4, r5, sl, fp, sp}

08002c40 <_SPACE>:
 8002c40:	41505305 	cmpmi	r0, r5, lsl #6
 8002c44:	00004543 	andeq	r4, r0, r3, asr #10

08002c48 <CA_SPACE>:
 8002c48:	20000c0c 	andcs	r0, r0, ip, lsl #24

08002c4c <LF_SPACS>:
 8002c4c:	08002c40 	stmdaeq	r0, {r6, sl, fp, sp}

08002c50 <_SPACS>:
 8002c50:	41505306 	cmpmi	r0, r6, lsl #6
 8002c54:	00534543 	subseq	r4, r3, r3, asr #10

08002c58 <CA_SPACS>:
 8002c58:	20000c1c 	andcs	r0, r0, ip, lsl ip

08002c5c <LF_TYPEE>:
 8002c5c:	08002c50 	stmdaeq	r0, {r4, r6, sl, fp, sp}

08002c60 <_TYPEE>:
 8002c60:	50595404 	subspl	r5, r9, r4, lsl #8
 8002c64:	00000045 	andeq	r0, r0, r5, asr #32

08002c68 <CA_TYPEE>:
 8002c68:	20000c44 	andcs	r0, r0, r4, asr #24

08002c6c <LF_CR>:
 8002c6c:	08002c60 	stmdaeq	r0, {r5, r6, sl, fp, sp}

08002c70 <_CR>:
 8002c70:	00524302 	subseq	r4, r2, r2, lsl #6

08002c74 <CA_CR>:
 8002c74:	20000c6c 	andcs	r0, r0, ip, ror #24

08002c78 <LF_DOTR>:
 8002c78:	08002c70 	stmdaeq	r0, {r4, r5, r6, sl, fp, sp}

08002c7c <_DOTR>:
 8002c7c:	00522e02 	subseq	r2, r2, r2, lsl #28

08002c80 <CA_DOTR>:
 8002c80:	20000cec 	andcs	r0, r0, ip, ror #25

08002c84 <LF_UDOTR>:
 8002c84:	08002c7c 	stmdaeq	r0, {r2, r3, r4, r5, r6, sl, fp, sp}

08002c88 <_UDOTR>:
 8002c88:	522e5503 	eorpl	r5, lr, #12582912	; 0xc00000

08002c8c <CA_UDOTR>:
 8002c8c:	20000d10 	andcs	r0, r0, r0, lsl sp

08002c90 <LF_UDOT>:
 8002c90:	08002c88 	stmdaeq	r0, {r3, r7, sl, fp, sp}

08002c94 <_UDOT>:
 8002c94:	002e5502 	eoreq	r5, lr, r2, lsl #10

08002c98 <CA_UDOT>:
 8002c98:	20000d3c 	andcs	r0, r0, ip, lsr sp

08002c9c <LF_HDOT>:
 8002c9c:	08002c94 	stmdaeq	r0, {r2, r4, r7, sl, fp, sp}

08002ca0 <_HDOT>:
 8002ca0:	002e4802 	eoreq	r4, lr, r2, lsl #16

08002ca4 <CA_HDOT>:
 8002ca4:	20000d58 	andcs	r0, r0, r8, asr sp

08002ca8 <LF_DOT>:
 8002ca8:	08002ca0 	stmdaeq	r0, {r5, r7, sl, fp, sp}

08002cac <_DOT>:
 8002cac:	00002e01 	andeq	r2, r0, r1, lsl #28

08002cb0 <CA_DOT>:
 8002cb0:	20000d80 	andcs	r0, r0, r0, lsl #27

08002cb4 <LF_QUEST>:
 8002cb4:	08002cac 	stmdaeq	r0, {r2, r3, r5, r7, sl, fp, sp}

08002cb8 <_QUEST>:
 8002cb8:	00003f01 	andeq	r3, r0, r1, lsl #30

08002cbc <CA_QUEST>:
 8002cbc:	20000db8 			; <UNDEFINED> instruction: 0x20000db8

08002cc0 <LF_PARSE>:
 8002cc0:	08002cb8 	stmdaeq	r0, {r3, r4, r5, r7, sl, fp, sp}

08002cc4 <_PARSE>:
 8002cc4:	52415005 	subpl	r5, r1, #5
 8002cc8:	00004553 	andeq	r4, r0, r3, asr r5

08002ccc <CA_PARSE>:
 8002ccc:	20000ee8 	andcs	r0, r0, r8, ror #29

08002cd0 <LF_DOTPR>:
 8002cd0:	08002cc4 	stmdaeq	r0, {r2, r6, r7, sl, fp, sp}

08002cd4 <_DOTPR>:
 8002cd4:	00282e82 	eoreq	r2, r8, r2, lsl #29

08002cd8 <CA_DOTPR>:
 8002cd8:	20000f28 	andcs	r0, r0, r8, lsr #30

08002cdc <LF_PAREN>:
 8002cdc:	08002cd4 	stmdaeq	r0, {r2, r4, r6, r7, sl, fp, sp}

08002ce0 <_PAREN>:
 8002ce0:	00002881 	andeq	r2, r0, r1, lsl #17

08002ce4 <CA_PAREN>:
 8002ce4:	20000f40 	andcs	r0, r0, r0, asr #30

08002ce8 <LF_BKSLA>:
 8002ce8:	08002ce0 	stmdaeq	r0, {r5, r6, r7, sl, fp, sp}

08002cec <_BKSLA>:
 8002cec:	00005c01 	andeq	r5, r0, r1, lsl #24

08002cf0 <CA_BKSLA>:
 8002cf0:	20000f58 	andcs	r0, r0, r8, asr pc

08002cf4 <LF_CAHR>:
 8002cf4:	08002cec 	stmdaeq	r0, {r2, r3, r5, r6, r7, sl, fp, sp}

08002cf8 <_CAHR>:
 8002cf8:	41484304 	cmpmi	r8, r4, lsl #6
 8002cfc:	00000052 	andeq	r0, r0, r2, asr r0

08002d00 <CA_CAHR>:
 8002d00:	20000f70 	andcs	r0, r0, r0, ror pc

08002d04 <LF_WORDD>:
 8002d04:	08002cf8 	stmdaeq	r0, {r3, r4, r5, r6, r7, sl, fp, sp}

08002d08 <_WORDD>:
 8002d08:	524f5704 	subpl	r5, pc, #4, 14	; 0x100000
 8002d0c:	00000044 	andeq	r0, r0, r4, asr #32

08002d10 <CA_WORDD>:
 8002d10:	20000f88 	andcs	r0, r0, r8, lsl #31

08002d14 <LF_TOKEN>:
 8002d14:	08002d08 	stmdaeq	r0, {r3, r8, sl, fp, sp}

08002d18 <_TOKEN>:
 8002d18:	4b4f5405 	blmi	93d7d34 <FLASH_HIDDEN_END+0x13b7d34>
 8002d1c:	00004e45 	andeq	r4, r0, r5, asr #28

08002d20 <CA_TOKEN>:
 8002d20:	20000fa0 	andcs	r0, r0, r0, lsr #31

08002d24 <LF_TOCFA>:
 8002d24:	08002d18 	stmdaeq	r0, {r3, r4, r8, sl, fp, sp}

08002d28 <_TOCFA>:
 8002d28:	46433e04 	strbmi	r3, [r3], -r4, lsl #28
 8002d2c:	00000041 	andeq	r0, r0, r1, asr #32

08002d30 <CA_TOCFA>:
 8002d30:	20000fb0 			; <UNDEFINED> instruction: 0x20000fb0

08002d34 <LF_NAMET>:
 8002d34:	08002d28 	stmdaeq	r0, {r3, r5, r8, sl, fp, sp}

08002d38 <_NAMET>:
 8002d38:	4d414e05 	stclmi	14, cr4, [r1, #-20]	; 0xffffffec
 8002d3c:	00003e45 	andeq	r3, r0, r5, asr #28

08002d40 <CA_NAMET>:
 8002d40:	20000fd0 	ldrdcs	r0, [r0], -r0	; <UNPREDICTABLE>

08002d44 <LF_SAMEQ>:
 8002d44:	08002d38 	stmdaeq	r0, {r3, r4, r5, r8, sl, fp, sp}

08002d48 <_SAMEQ>:
 8002d48:	4d415305 	stclmi	3, cr5, [r1, #-20]	; 0xffffffec
 8002d4c:	00003f45 	andeq	r3, r0, r5, asr #30

08002d50 <CA_SAMEQ>:
 8002d50:	20000fe0 	andcs	r0, r0, r0, ror #31

08002d54 <LF_NAMEQ>:
 8002d54:	08002d48 	stmdaeq	r0, {r3, r6, r8, sl, fp, sp}

08002d58 <_NAMEQ>:
 8002d58:	4d414e05 	stclmi	14, cr4, [r1, #-20]	; 0xffffffec
 8002d5c:	00003f45 	andeq	r3, r0, r5, asr #30

08002d60 <CA_NAMEQ>:
 8002d60:	20001100 	andcs	r1, r0, r0, lsl #2

08002d64 <LF_ACCEP>:
 8002d64:	08002d58 	stmdaeq	r0, {r3, r4, r6, r8, sl, fp, sp}

08002d68 <_ACCEP>:
 8002d68:	43434106 	movtmi	r4, #12550	; 0x3106
 8002d6c:	00545045 	subseq	r5, r4, r5, asr #32

08002d70 <CA_ACCEP>:
 8002d70:	200011d8 	ldrdcs	r1, [r0], -r8

08002d74 <LF_QUERY>:
 8002d74:	08002d68 	stmdaeq	r0, {r3, r5, r6, r8, sl, fp, sp}

08002d78 <_QUERY>:
 8002d78:	45555105 	ldrbmi	r5, [r5, #-261]	; 0xfffffefb
 8002d7c:	00005952 	andeq	r5, r0, r2, asr r9

08002d80 <CA_QUERY>:
 8002d80:	20001234 	andcs	r1, r0, r4, lsr r2

08002d84 <LF_ABORT>:
 8002d84:	08002d78 	stmdaeq	r0, {r3, r4, r5, r6, r8, sl, fp, sp}

08002d88 <_ABORT>:
 8002d88:	4f424105 	svcmi	0x00424105
 8002d8c:	00005452 	andeq	r5, r0, r2, asr r4

08002d90 <CA_ABORT>:
 8002d90:	20001268 	andcs	r1, r0, r8, ror #4

08002d94 <LF_INTER>:
 8002d94:	08002d88 	stmdaeq	r0, {r3, r7, r8, sl, fp, sp}

08002d98 <_INTER>:
 8002d98:	4e49240a 	cdpmi	4, 4, cr2, cr9, cr10, {0}
 8002d9c:	50524554 	subspl	r4, r2, r4, asr r5
 8002da0:	00544552 	subseq	r4, r4, r2, asr r5

08002da4 <CA_INTER>:
 8002da4:	200012b0 			; <UNDEFINED> instruction: 0x200012b0

08002da8 <LF_LBRAC>:
 8002da8:	08002d98 	stmdaeq	r0, {r3, r4, r7, r8, sl, fp, sp}

08002dac <_LBRAC>:
 8002dac:	00005b81 	andeq	r5, r0, r1, lsl #23

08002db0 <CA_LBRAC>:
 8002db0:	20001304 	andcs	r1, r0, r4, lsl #6

08002db4 <LF_DOTOK>:
 8002db4:	08002dac 	stmdaeq	r0, {r2, r3, r5, r7, r8, sl, fp, sp}

08002db8 <_DOTOK>:
 8002db8:	4b4f2e03 	blmi	93ce5cc <FLASH_HIDDEN_END+0x13ae5cc>

08002dbc <CA_DOTOK>:
 8002dbc:	2000131c 	andcs	r1, r0, ip, lsl r3

08002dc0 <LF_QSTAC>:
 8002dc0:	08002db8 	stmdaeq	r0, {r3, r4, r5, r7, r8, sl, fp, sp}

08002dc4 <_QSTAC>:
 8002dc4:	54533f06 	ldrbpl	r3, [r3], #-3846	; 0xfffff0fa
 8002dc8:	004b4341 	subeq	r4, fp, r1, asr #6

08002dcc <CA_QSTAC>:
 8002dcc:	2000134c 	andcs	r1, r0, ip, asr #6

08002dd0 <LF_EVAL>:
 8002dd0:	08002dc4 	stmdaeq	r0, {r2, r6, r7, r8, sl, fp, sp}

08002dd4 <_EVAL>:
 8002dd4:	41564504 	cmpmi	r6, r4, lsl #10
 8002dd8:	0000004c 	andeq	r0, r0, ip, asr #32

08002ddc <CA_EVAL>:
 8002ddc:	2000136c 	andcs	r1, r0, ip, ror #6

08002de0 <LF_PRESE>:
 8002de0:	08002dd4 	stmdaeq	r0, {r2, r4, r6, r7, r8, sl, fp, sp}

08002de4 <_PRESE>:
 8002de4:	45525006 	ldrbmi	r5, [r2, #-6]
 8002de8:	00544553 	subseq	r4, r4, r3, asr r5

08002dec <CA_PRESE>:
 8002dec:	200013a0 	andcs	r1, r0, r0, lsr #7

08002df0 <LF_QUIT>:
 8002df0:	08002de4 	stmdaeq	r0, {r2, r5, r6, r7, r8, sl, fp, sp}

08002df4 <_QUIT>:
 8002df4:	49555104 	ldmdbmi	r5, {r2, r8, ip, lr}^
 8002df8:	00000054 	andeq	r0, r0, r4, asr r0

08002dfc <CA_QUIT>:
 8002dfc:	200013b4 			; <UNDEFINED> instruction: 0x200013b4

08002e00 <LF_UNLOCK>:
 8002e00:	08002df4 	stmdaeq	r0, {r2, r4, r5, r6, r7, r8, sl, fp, sp}

08002e04 <_UNLOCK>:
 8002e04:	4c4e5506 	cfstr64mi	mvdx5, [lr], {6}
 8002e08:	004b434f 	subeq	r4, fp, pc, asr #6

08002e0c <CA_UNLOCK>:
 8002e0c:	200013d4 	ldrdcs	r1, [r0], -r4

08002e10 <LF_EPAGE>:
 8002e10:	08002e04 	stmdaeq	r0, {r2, r9, sl, fp, sp}

08002e14 <_EPAGE>:
 8002e14:	4152450a 	cmpmi	r2, sl, lsl #10
 8002e18:	505f4553 	subspl	r4, pc, r3, asr r5	; <UNPREDICTABLE>
 8002e1c:	00454741 	subeq	r4, r5, r1, asr #14

08002e20 <CA_EPAGE>:
 8002e20:	20001414 	andcs	r1, r0, r4, lsl r4

08002e24 <LF_ISTOR>:
 8002e24:	08002e14 	stmdaeq	r0, {r2, r4, r9, sl, fp, sp}

08002e28 <_ISTOR>:
 8002e28:	00214902 	eoreq	r4, r1, r2, lsl #18

08002e2c <CA_ISTOR>:
 8002e2c:	200014a4 	andcs	r1, r0, r4, lsr #9

08002e30 <LF_IMG_SIZE>:
 8002e30:	08002e28 	stmdaeq	r0, {r3, r5, r9, sl, fp, sp}

08002e34 <_IMG_SIZE>:
 8002e34:	474d4908 	strbmi	r4, [sp, -r8, lsl #18]
 8002e38:	5a49535f 	bpl	9257bbc <FLASH_HIDDEN_END+0x1237bbc>
 8002e3c:	00000045 	andeq	r0, r0, r5, asr #32

08002e40 <CA_IMG_SIZE>:
 8002e40:	200014ec 	andcs	r1, r0, ip, ror #9

08002e44 <LF_IMGQ>:
 8002e44:	08002e34 	stmdaeq	r0, {r2, r4, r5, r9, sl, fp, sp}

08002e48 <_IMGQ>:
 8002e48:	474d4904 	strbmi	r4, [sp, -r4, lsl #18]
 8002e4c:	0000003f 	andeq	r0, r0, pc, lsr r0

08002e50 <CA_IMGQ>:
 8002e50:	20001528 	andcs	r1, r0, r8, lsr #10

08002e54 <LF_LOAD_IMG>:
 8002e54:	08002e48 	stmdaeq	r0, {r3, r6, r9, sl, fp, sp}

08002e58 <_LOAD_IMG>:
 8002e58:	414f4c08 	cmpmi	pc, r8, lsl #24
 8002e5c:	4d495f44 	stclmi	15, cr5, [r9, #-272]	; 0xfffffef0
 8002e60:	00000047 	andeq	r0, r0, r7, asr #32

08002e64 <CA_LOAD_IMG>:
 8002e64:	20001548 	andcs	r1, r0, r8, asr #10

08002e68 <LF_ERASE_MPG>:
 8002e68:	08002e58 	stmdaeq	r0, {r3, r4, r6, r9, sl, fp, sp}

08002e6c <_ERASE_MPG>:
 8002e6c:	41524509 	cmpmi	r2, r9, lsl #10
 8002e70:	4d5f4553 	cfldr64mi	mvdx4, [pc, #-332]	; 8002d2c <_TOCFA+0x4>
 8002e74:	00004750 	andeq	r4, r0, r0, asr r7

08002e78 <CA_ERASE_MPG>:
 8002e78:	200015a0 	andcs	r1, r0, r0, lsr #11

08002e7c <LF_FLSH_WR>:
 8002e7c:	08002e6c 	stmdaeq	r0, {r2, r3, r5, r6, r9, sl, fp, sp}

08002e80 <_FLSH_WR>:
 8002e80:	534c4607 	movtpl	r4, #50695	; 0xc607
 8002e84:	52575f48 	subspl	r5, r7, #72, 30	; 0x120

08002e88 <CA_FLSH_WR>:
 8002e88:	200015d8 	ldrdcs	r1, [r0], -r8

08002e8c <LF_ADR_TO_PG>:
 8002e8c:	08002e80 	stmdaeq	r0, {r7, r9, sl, fp, sp}

08002e90 <_ADR_TO_PG>:
 8002e90:	52444106 	subpl	r4, r4, #-2147483647	; 0x80000001
 8002e94:	0047503e 	subeq	r5, r7, lr, lsr r0

08002e98 <CA_ADR_TO_PG>:
 8002e98:	20001620 	andcs	r1, r0, r0, lsr #12

08002e9c <LF_PG_TO_ADR>:
 8002e9c:	08002e90 	stmdaeq	r0, {r4, r7, r9, sl, fp, sp}

08002ea0 <_PG_TO_ADR>:
 8002ea0:	3e475006 	cdpcc	0, 4, cr5, cr7, cr6, {0}
 8002ea4:	00524441 	subseq	r4, r2, r1, asr #8

08002ea8 <CA_PG_TO_ADR>:
 8002ea8:	2000162c 	andcs	r1, r0, ip, lsr #12

08002eac <LF_ERASE_IMG>:
 8002eac:	08002ea0 	stmdaeq	r0, {r5, r7, r9, sl, fp, sp}

08002eb0 <_ERASE_IMG>:
 8002eb0:	41524509 	cmpmi	r2, r9, lsl #10
 8002eb4:	495f4553 	ldmdbmi	pc, {r0, r1, r4, r6, r8, sl, lr}^	; <UNPREDICTABLE>
 8002eb8:	0000474d 	andeq	r4, r0, sp, asr #14

08002ebc <CA_ERASE_IMG>:
 8002ebc:	20001638 	andcs	r1, r0, r8, lsr r6

08002ec0 <LF_SAVE_IMG>:
 8002ec0:	08002eb0 	stmdaeq	r0, {r4, r5, r7, r9, sl, fp, sp}

08002ec4 <_SAVE_IMG>:
 8002ec4:	56415308 	strbpl	r5, [r1], -r8, lsl #6
 8002ec8:	4d495f45 	stclmi	15, cr5, [r9, #-276]	; 0xfffffeec
 8002ecc:	00000047 	andeq	r0, r0, r7, asr #32

08002ed0 <CA_SAVE_IMG>:
 8002ed0:	2000166c 	andcs	r1, r0, ip, ror #12

08002ed4 <LF_TURNKEY>:
 8002ed4:	08002ec4 	stmdaeq	r0, {r2, r6, r7, r9, sl, fp, sp}

08002ed8 <_TURNKEY>:
 8002ed8:	52555407 	subspl	r5, r5, #117440512	; 0x7000000
 8002edc:	59454b4e 	stmdbpl	r5, {r1, r2, r3, r6, r8, r9, fp, lr}^

08002ee0 <CA_TURNKEY>:
 8002ee0:	200016d0 	ldrdcs	r1, [r0], -r0

08002ee4 <LF_FORGET>:
 8002ee4:	08002ed8 	stmdaeq	r0, {r3, r4, r6, r7, r9, sl, fp, sp}

08002ee8 <_FORGET>:
 8002ee8:	524f4606 	subpl	r4, pc, #6291456	; 0x600000
 8002eec:	00544547 	subseq	r4, r4, r7, asr #10

08002ef0 <CA_FORGET>:
 8002ef0:	200016e8 	andcs	r1, r0, r8, ror #13

08002ef4 <LF_TICK>:
 8002ef4:	08002ee8 	stmdaeq	r0, {r3, r5, r6, r7, r9, sl, fp, sp}

08002ef8 <_TICK>:
 8002ef8:	00002701 	andeq	r2, r0, r1, lsl #14

08002efc <CA_TICK>:
 8002efc:	20001744 	andcs	r1, r0, r4, asr #14

08002f00 <LF_ALLOT>:
 8002f00:	08002ef8 	stmdaeq	r0, {r3, r4, r5, r6, r7, r9, sl, fp, sp}

08002f04 <_ALLOT>:
 8002f04:	4c4c4105 	stfmie	f4, [ip], {5}
 8002f08:	0000544f 	andeq	r5, r0, pc, asr #8

08002f0c <CA_ALLOT>:
 8002f0c:	20001760 	andcs	r1, r0, r0, ror #14

08002f10 <LF_COMMA>:
 8002f10:	08002f04 	stmdaeq	r0, {r2, r8, r9, sl, fp, sp}

08002f14 <_COMMA>:
 8002f14:	00002c01 	andeq	r2, r0, r1, lsl #24

08002f18 <CA_COMMA>:
 8002f18:	20001770 	andcs	r1, r0, r0, ror r7

08002f1c <LF_BCOMP>:
 8002f1c:	08002f14 	stmdaeq	r0, {r2, r4, r8, r9, sl, fp, sp}

08002f20 <_BCOMP>:
 8002f20:	4f435b89 	svcmi	0x00435b89
 8002f24:	4c49504d 	mcrrmi	0, 4, r5, r9, cr13
 8002f28:	00005d45 	andeq	r5, r0, r5, asr #26

08002f2c <CA_BCOMP>:
 8002f2c:	20001790 	mulcs	r0, r0, r7

08002f30 <LF_COMPI>:
 8002f30:	08002f20 	stmdaeq	r0, {r5, r8, r9, sl, fp, sp}

08002f34 <_COMPI>:
 8002f34:	4d4f4347 	stclmi	3, cr4, [pc, #-284]	; 8002e20 <CA_EPAGE>
 8002f38:	454c4950 	strbmi	r4, [ip, #-2384]	; 0xfffff6b0

08002f3c <CA_COMPI>:
 8002f3c:	200017a0 	andcs	r1, r0, r0, lsr #15

08002f40 <LF_LITER>:
 8002f40:	08002f34 	stmdaeq	r0, {r2, r4, r5, r8, r9, sl, fp, sp}

08002f44 <_LITER>:
 8002f44:	54494c87 	strbpl	r4, [r9], #-3207	; 0xfffff379
 8002f48:	4c415245 	sfmmi	f5, 2, [r1], {69}	; 0x45

08002f4c <CA_LITER>:
 8002f4c:	200017c8 	andcs	r1, r0, r8, asr #15

08002f50 <LF_FOR>:
 8002f50:	08002f44 	stmdaeq	r0, {r2, r6, r8, r9, sl, fp, sp}

08002f54 <_FOR>:
 8002f54:	524f46c3 	subpl	r4, pc, #204472320	; 0xc300000

08002f58 <CA_FOR>:
 8002f58:	20001818 	andcs	r1, r0, r8, lsl r8

08002f5c <LF_BEGIN>:
 8002f5c:	08002f54 	stmdaeq	r0, {r2, r4, r6, r8, r9, sl, fp, sp}

08002f60 <_BEGIN>:
 8002f60:	474542c5 	strbmi	r4, [r5, -r5, asr #5]
 8002f64:	00004e49 	andeq	r4, r0, r9, asr #28

08002f68 <CA_BEGIN>:
 8002f68:	2000182c 	andcs	r1, r0, ip, lsr #16

08002f6c <LF_NEXT>:
 8002f6c:	08002f60 	stmdaeq	r0, {r5, r6, r8, r9, sl, fp, sp}

08002f70 <_NEXT>:
 8002f70:	58454ec4 	stmdapl	r5, {r2, r6, r7, r9, sl, fp, lr}^
 8002f74:	00000054 	andeq	r0, r0, r4, asr r0

08002f78 <CA_NEXT>:
 8002f78:	20001838 	andcs	r1, r0, r8, lsr r8

08002f7c <LF_UNTIL>:
 8002f7c:	08002f70 	stmdaeq	r0, {r4, r5, r6, r8, r9, sl, fp, sp}

08002f80 <_UNTIL>:
 8002f80:	544e55c5 	strbpl	r5, [lr], #-1477	; 0xfffffa3b
 8002f84:	00004c49 	andeq	r4, r0, r9, asr #24

08002f88 <CA_UNTIL>:
 8002f88:	2000184c 	andcs	r1, r0, ip, asr #16

08002f8c <LF_AGAIN>:
 8002f8c:	08002f80 	stmdaeq	r0, {r7, r8, r9, sl, fp, sp}

08002f90 <_AGAIN>:
 8002f90:	414741c5 	smlalbtmi	r4, r7, r5, r1
 8002f94:	00004e49 	andeq	r4, r0, r9, asr #28

08002f98 <CA_AGAIN>:
 8002f98:	20001860 	andcs	r1, r0, r0, ror #16

08002f9c <LF_IFF>:
 8002f9c:	08002f90 	stmdaeq	r0, {r4, r7, r8, r9, sl, fp, sp}

08002fa0 <_IFF>:
 8002fa0:	004649c2 	subeq	r4, r6, r2, asr #19

08002fa4 <CA_IFF>:
 8002fa4:	20001874 	andcs	r1, r0, r4, ror r8

08002fa8 <LF_AHEAD>:
 8002fa8:	08002fa0 	stmdaeq	r0, {r5, r7, r8, r9, sl, fp, sp}

08002fac <_AHEAD>:
 8002fac:	454841c5 	strbmi	r4, [r8, #-453]	; 0xfffffe3b
 8002fb0:	00004441 	andeq	r4, r0, r1, asr #8

08002fb4 <CA_AHEAD>:
 8002fb4:	20001898 	mulcs	r0, r8, r8

08002fb8 <LF_REPEA>:
 8002fb8:	08002fac 	stmdaeq	r0, {r2, r3, r5, r7, r8, r9, sl, fp, sp}

08002fbc <_REPEA>:
 8002fbc:	504552c6 	subpl	r5, r5, r6, asr #5
 8002fc0:	00544145 	subseq	r4, r4, r5, asr #2

08002fc4 <CA_REPEA>:
 8002fc4:	200018bc 			; <UNDEFINED> instruction: 0x200018bc

08002fc8 <LF_THENN>:
 8002fc8:	08002fbc 	stmdaeq	r0, {r2, r3, r4, r5, r7, r8, r9, sl, fp, sp}

08002fcc <_THENN>:
 8002fcc:	454854c4 	strbmi	r5, [r8, #-1220]	; 0xfffffb3c
 8002fd0:	0000004e 	andeq	r0, r0, lr, asr #32

08002fd4 <CA_THENN>:
 8002fd4:	200018d4 	ldrdcs	r1, [r0], -r4

08002fd8 <LF_AFT>:
 8002fd8:	08002fcc 	stmdaeq	r0, {r2, r3, r6, r7, r8, r9, sl, fp, sp}

08002fdc <_AFT>:
 8002fdc:	544641c3 	strbpl	r4, [r6], #-451	; 0xfffffe3d

08002fe0 <CA_AFT>:
 8002fe0:	200018e8 	andcs	r1, r0, r8, ror #17

08002fe4 <LF_ELSEE>:
 8002fe4:	08002fdc 	stmdaeq	r0, {r2, r3, r4, r6, r7, r8, r9, sl, fp, sp}

08002fe8 <_ELSEE>:
 8002fe8:	534c45c4 	movtpl	r4, #50628	; 0xc5c4
 8002fec:	00000045 	andeq	r0, r0, r5, asr #32

08002ff0 <CA_ELSEE>:
 8002ff0:	20001900 	andcs	r1, r0, r0, lsl #18

08002ff4 <LF_WHILE>:
 8002ff4:	08002fe8 	stmdaeq	r0, {r3, r5, r6, r7, r8, r9, sl, fp, sp}

08002ff8 <_WHILE>:
 8002ff8:	494857c5 	stmdbmi	r8, {r0, r2, r6, r7, r8, r9, sl, ip, lr}^
 8002ffc:	0000454c 	andeq	r4, r0, ip, asr #10

08003000 <CA_WHILE>:
 8003000:	20001914 	andcs	r1, r0, r4, lsl r9

08003004 <LF_ABRTQ>:
 8003004:	08002ff8 	stmdaeq	r0, {r3, r4, r5, r6, r7, r8, r9, sl, fp, sp}

08003008 <_ABRTQ>:
 8003008:	4f424186 	svcmi	0x00424186
 800300c:	00225452 	eoreq	r5, r2, r2, asr r4

08003010 <CA_ABRTQ>:
 8003010:	20001924 	andcs	r1, r0, r4, lsr #18

08003014 <LF_STRQ>:
 8003014:	08003008 	stmdaeq	r0, {r3, ip, sp}

08003018 <_STRQ>:
 8003018:	00222482 	eoreq	r2, r2, r2, lsl #9

0800301c <CA_STRQ>:
 800301c:	20001938 	andcs	r1, r0, r8, lsr r9

08003020 <LF_DOTQ>:
 8003020:	08003018 	stmdaeq	r0, {r3, r4, ip, sp}

08003024 <_DOTQ>:
 8003024:	00222ec2 	eoreq	r2, r2, r2, asr #29

08003028 <CA_DOTQ>:
 8003028:	2000194c 	andcs	r1, r0, ip, asr #18

0800302c <LF_UNIQU>:
 800302c:	08003024 	stmdaeq	r0, {r2, r5, ip, sp}

08003030 <_UNIQU>:
 8003030:	4e553f07 	cdpmi	15, 5, cr3, cr5, cr7, {0}
 8003034:	45555149 	ldrbmi	r5, [r5, #-329]	; 0xfffffeb7

08003038 <CA_UNIQU>:
 8003038:	20001960 	andcs	r1, r0, r0, ror #18

0800303c <LF_SCOMP>:
 800303c:	08003030 	stmdaeq	r0, {r4, r5, ip, sp}

08003040 <_SCOMP>:
 8003040:	4f432407 	svcmi	0x00432407
 8003044:	4c49504d 	mcrrmi	0, 4, r5, r9, cr13
 8003048:	00000045 	andeq	r0, r0, r5, asr #32

0800304c <CA_SCOMP>:
 800304c:	200019ec 	andcs	r1, r0, ip, ror #19

08003050 <LF_OVERT>:
 8003050:	08003040 	stmdaeq	r0, {r6, ip, sp}

08003054 <_OVERT>:
 8003054:	45564f05 	ldrbmi	r4, [r6, #-3845]	; 0xfffff0fb
 8003058:	00005452 	andeq	r5, r0, r2, asr r4

0800305c <CA_OVERT>:
 800305c:	20001a70 	andcs	r1, r0, r0, ror sl

08003060 <LF_SEMIS>:
 8003060:	08003054 	stmdaeq	r0, {r2, r4, r6, ip, sp}

08003064 <_SEMIS>:
 8003064:	00003bc1 	andeq	r3, r0, r1, asr #23

08003068 <CA_SEMIS>:
 8003068:	20001a88 	andcs	r1, r0, r8, lsl #21

0800306c <LF_RBRAC>:
 800306c:	08003064 	stmdaeq	r0, {r2, r5, r6, ip, sp}

08003070 <_RBRAC>:
 8003070:	00005d01 	andeq	r5, r0, r1, lsl #26

08003074 <CA_RBRAC>:
 8003074:	20001aa4 	andcs	r1, r0, r4, lsr #21

08003078 <LF_COLON>:
 8003078:	08003070 	stmdaeq	r0, {r4, r5, r6, ip, sp}

0800307c <_COLON>:
 800307c:	00003a01 	andeq	r3, r0, r1, lsl #20

08003080 <CA_COLON>:
 8003080:	20001b20 	andcs	r1, r0, r0, lsr #22

08003084 <LF_IMMED>:
 8003084:	0800307c 	stmdaeq	r0, {r2, r3, r4, r5, r6, ip, sp}

08003088 <_IMMED>:
 8003088:	4d4d4909 	vstrmi.16	s9, [sp, #-18]	; 0xffffffee	; <UNPREDICTABLE>
 800308c:	41494445 	cmpmi	r9, r5, asr #8
 8003090:	00004554 	andeq	r4, r0, r4, asr r5

08003094 <CA_IMMED>:
 8003094:	20001b30 	andcs	r1, r0, r0, lsr fp

08003098 <LF_ICOLON>:
 8003098:	08003088 	stmdaeq	r0, {r3, r7, ip, sp}

0800309c <_ICOLON>:
 800309c:	003a4902 	eorseq	r4, sl, r2, lsl #18

080030a0 <CA_ICOLON>:
 80030a0:	20001b5c 	andcs	r1, r0, ip, asr fp

080030a4 <LF_ISEMIS>:
 80030a4:	0800309c 	stmdaeq	r0, {r2, r3, r4, r7, ip, sp}

080030a8 <_ISEMIS>:
 80030a8:	003b49c2 	eorseq	r4, fp, r2, asr #19

080030ac <CA_ISEMIS>:
 80030ac:	20001b78 	andcs	r1, r0, r8, ror fp

080030b0 <LF_HEAD>:
 80030b0:	080030a8 	stmdaeq	r0, {r3, r5, r7, ip, sp}

080030b4 <_HEAD>:
 80030b4:	41454806 	cmpmi	r5, r6, lsl #16
 80030b8:	00524544 	subseq	r4, r2, r4, asr #10

080030bc <CA_HEAD>:
 80030bc:	20001b9c 	mulcs	r0, ip, fp

080030c0 <LF_CONST>:
 80030c0:	080030b4 	stmdaeq	r0, {r2, r4, r5, r7, ip, sp}

080030c4 <_CONST>:
 80030c4:	4e4f4308 	cdpmi	3, 4, cr4, cr15, cr8, {0}
 80030c8:	4e415453 	mcrmi	4, 2, r5, cr1, cr3, {2}
 80030cc:	00000054 	andeq	r0, r0, r4, asr r0

080030d0 <CA_CONST>:
 80030d0:	20001bc4 	andcs	r1, r0, r4, asr #23

080030d4 <LF_DOES>:
 80030d4:	080030c4 	stmdaeq	r0, {r2, r6, r7, ip, sp}

080030d8 <_DOES>:
 80030d8:	454f44c5 	strbmi	r4, [pc, #-1221]	; 8002c1b <_DIGTQ+0x7>
 80030dc:	00003e53 	andeq	r3, r0, r3, asr lr

080030e0 <CA_DOES>:
 80030e0:	20001c40 	andcs	r1, r0, r0, asr #24

080030e4 <LF_CREAT>:
 80030e4:	080030d8 	stmdaeq	r0, {r3, r4, r6, r7, ip, sp}

080030e8 <_CREAT>:
 80030e8:	45524306 	ldrbmi	r4, [r2, #-774]	; 0xfffffcfa
 80030ec:	00455441 	subeq	r5, r5, r1, asr #8

080030f0 <CA_CREAT>:
 80030f0:	20001c6c 	andcs	r1, r0, ip, ror #24

080030f4 <LF_VARIA>:
 80030f4:	080030e8 	stmdaeq	r0, {r3, r5, r6, r7, ip, sp}

080030f8 <_VARIA>:
 80030f8:	52415608 	subpl	r5, r1, #8, 12	; 0x800000
 80030fc:	4c424149 	stfmie	f4, [r2], {73}	; 0x49
 8003100:	00000045 	andeq	r0, r0, r5, asr #32

08003104 <CA_VARIA>:
 8003104:	20001c84 	andcs	r1, r0, r4, lsl #25

08003108 <LF_FCALL>:
 8003108:	080030f8 	stmdaeq	r0, {r3, r4, r5, r6, r7, ip, sp}

0800310c <_FCALL>:
 800310c:	41434605 	cmpmi	r3, r5, lsl #12
 8003110:	00004c4c 	andeq	r4, r0, ip, asr #24

08003114 <CA_FCALL>:
 8003114:	20001ca0 	andcs	r1, r0, r0, lsr #25

08003118 <LF_DEFER>:
 8003118:	0800310c 	stmdaeq	r0, {r2, r3, r8, ip, sp}

0800311c <_DEFER>:
 800311c:	46454405 	strbmi	r4, [r5], -r5, lsl #8
 8003120:	00005245 	andeq	r5, r0, r5, asr #4

08003124 <CA_DEFER>:
 8003124:	20001cb4 			; <UNDEFINED> instruction: 0x20001cb4

08003128 <LF_DEFERSTO>:
 8003128:	0800311c 	stmdaeq	r0, {r2, r3, r4, r8, ip, sp}

0800312c <_DEFERSTO>:
 800312c:	46454406 	strbmi	r4, [r5], -r6, lsl #8
 8003130:	00215245 	eoreq	r5, r1, r5, asr #4

08003134 <CA_DEFERSTO>:
 8003134:	20001cdc 	ldrdcs	r1, [r0], -ip

08003138 <LF_DEFERAT>:
 8003138:	0800312c 	stmdaeq	r0, {r2, r3, r5, r8, ip, sp}

0800313c <_DEFERAT>:
 800313c:	46454406 	strbmi	r4, [r5], -r6, lsl #8
 8003140:	00405245 	subeq	r5, r0, r5, asr #4

08003144 <CA_DEFERAT>:
 8003144:	20001d0c 	andcs	r1, r0, ip, lsl #26

08003148 <LF_DUMP>:
 8003148:	0800313c 	stmdaeq	r0, {r2, r3, r4, r5, r8, ip, sp}

0800314c <_DUMP>:
 800314c:	4d554404 	cfldrdmi	mvd4, [r5, #-16]
 8003150:	00000050 	andeq	r0, r0, r0, asr r0

08003154 <CA_DUMP>:
 8003154:	20001d48 	andcs	r1, r0, r8, asr #26

08003158 <LF_DOTS>:
 8003158:	0800314c 	stmdaeq	r0, {r2, r3, r6, r8, ip, sp}

0800315c <_DOTS>:
 800315c:	00532e02 	subseq	r2, r3, r2, lsl #28

08003160 <CA_DOTS>:
 8003160:	20001d5c 	andcs	r1, r0, ip, asr sp

08003164 <LF_TNAME>:
 8003164:	0800315c 	stmdaeq	r0, {r2, r3, r4, r6, r8, ip, sp}

08003168 <_TNAME>:
 8003168:	414e3e05 	cmpmi	lr, r5, lsl #28
 800316c:	0000454d 	andeq	r4, r0, sp, asr #10

08003170 <CA_TNAME>:
 8003170:	20001d70 	andcs	r1, r0, r0, ror sp

08003174 <LF_DOTID>:
 8003174:	08003168 	stmdaeq	r0, {r3, r5, r6, r8, ip, sp}

08003178 <_DOTID>:
 8003178:	44492e03 	strbmi	r2, [r9], #-3587	; 0xfffff1fd

0800317c <CA_DOTID>:
 800317c:	20001d84 	andcs	r1, r0, r4, lsl #27

08003180 <LF_SEE>:
 8003180:	08003178 	stmdaeq	r0, {r3, r4, r5, r6, r8, ip, sp}

08003184 <_SEE>:
 8003184:	45455303 	strbmi	r5, [r5, #-771]	; 0xfffffcfd

08003188 <CA_SEE>:
 8003188:	20001d98 	mulcs	r0, r8, sp

0800318c <LF_SCOL>:
 800318c:	08003184 	stmdaeq	r0, {r2, r7, r8, ip, sp}

08003190 <_SCOL>:
 8003190:	45455308 	strbmi	r5, [r5, #-776]	; 0xfffffcf8
 8003194:	4f4c4f43 	svcmi	0x004c4f43
 8003198:	0000004e 	andeq	r0, r0, lr, asr #32

0800319c <CA_SCOL>:
 800319c:	20001dac 	andcs	r1, r0, ip, lsr #27

080031a0 <LF_DECOMP>:
 80031a0:	08003190 	stmdaeq	r0, {r4, r7, r8, ip, sp}

080031a4 <_DECOMP>:
 80031a4:	43454409 	movtmi	r4, #21513	; 0x5409
 80031a8:	49504d4f 	ldmdbmi	r0, {r0, r1, r2, r3, r6, r8, sl, fp, lr}^
 80031ac:	0000454c 	andeq	r4, r0, ip, asr #10

080031b0 <CA_DECOMP>:
 80031b0:	20001dc0 	andcs	r1, r0, r0, asr #27

080031b4 <LF_WORDS>:
 80031b4:	080031a4 	stmdaeq	r0, {r2, r5, r7, r8, ip, sp}

080031b8 <_WORDS>:
 80031b8:	524f5705 	subpl	r5, pc, #1310720	; 0x140000
 80031bc:	00005344 	andeq	r5, r0, r4, asr #6

080031c0 <CA_WORDS>:
 80031c0:	20001dd4 	ldrdcs	r1, [r0], -r4

080031c4 <LF_HI>:
 80031c4:	080031b8 	stmdaeq	r0, {r3, r4, r5, r7, r8, ip, sp}

080031c8 <_HI>:
 80031c8:	00494802 	subeq	r4, r9, r2, lsl #16

080031cc <CA_HI>:
 80031cc:	20001df8 	strdcs	r1, [r0], -r8

080031d0 <LF_LASTN>:
 80031d0:	080031c8 	stmdaeq	r0, {r3, r6, r7, r8, ip, sp}

080031d4 <_LASTN>:
 80031d4:	4c4f4304 	mcrrmi	3, 0, r4, pc, cr4
 80031d8:	00000044 	andeq	r0, r0, r4, asr #32

080031dc <CA_LASTN>:
 80031dc:	20001e54 	andcs	r1, r0, r4, asr lr

Disassembly of section .user:

08003400 <USER_SPACE>:
 8003400:	ffffffff 			; <UNDEFINED> instruction: 0xffffffff
