
build/stm32eforth.elf:     file format elf32-littlearm


Disassembly of section .isr_vector:

08000000 <isr_vectors>:
 8000000:	20020000 	andcs	r0, r2, r0
 8000004:	08002051 	stmdaeq	r0, {r0, r4, r6, sp}
 8000008:	08001f81 	stmdaeq	r0, {r0, r7, r8, r9, sl, fp, ip}
 800000c:	08001f81 	stmdaeq	r0, {r0, r7, r8, r9, sl, fp, ip}
 8000010:	08001f81 	stmdaeq	r0, {r0, r7, r8, r9, sl, fp, ip}
 8000014:	08001f81 	stmdaeq	r0, {r0, r7, r8, r9, sl, fp, ip}
 8000018:	08001f81 	stmdaeq	r0, {r0, r7, r8, r9, sl, fp, ip}
	...
 800002c:	08001f81 	stmdaeq	r0, {r0, r7, r8, r9, sl, fp, ip}
 8000030:	08001f81 	stmdaeq	r0, {r0, r7, r8, r9, sl, fp, ip}
 8000034:	00000000 	andeq	r0, r0, r0
 8000038:	08001f81 	stmdaeq	r0, {r0, r7, r8, r9, sl, fp, ip}
 800003c:	08001fa1 	stmdaeq	r0, {r0, r5, r7, r8, r9, sl, fp, ip}

08000040 <irq0>:
 8000040:	08001f81 	stmdaeq	r0, {r0, r7, r8, r9, sl, fp, ip}
 8000044:	08001f81 	stmdaeq	r0, {r0, r7, r8, r9, sl, fp, ip}
 8000048:	08001f81 	stmdaeq	r0, {r0, r7, r8, r9, sl, fp, ip}
 800004c:	08001f81 	stmdaeq	r0, {r0, r7, r8, r9, sl, fp, ip}
 8000050:	08001f81 	stmdaeq	r0, {r0, r7, r8, r9, sl, fp, ip}
 8000054:	08001f81 	stmdaeq	r0, {r0, r7, r8, r9, sl, fp, ip}
 8000058:	08001f81 	stmdaeq	r0, {r0, r7, r8, r9, sl, fp, ip}
 800005c:	08001f81 	stmdaeq	r0, {r0, r7, r8, r9, sl, fp, ip}
 8000060:	08001f81 	stmdaeq	r0, {r0, r7, r8, r9, sl, fp, ip}
 8000064:	08001f81 	stmdaeq	r0, {r0, r7, r8, r9, sl, fp, ip}
 8000068:	08001f81 	stmdaeq	r0, {r0, r7, r8, r9, sl, fp, ip}
 800006c:	08001f81 	stmdaeq	r0, {r0, r7, r8, r9, sl, fp, ip}
 8000070:	08001f81 	stmdaeq	r0, {r0, r7, r8, r9, sl, fp, ip}
 8000074:	08001f81 	stmdaeq	r0, {r0, r7, r8, r9, sl, fp, ip}
 8000078:	08001f81 	stmdaeq	r0, {r0, r7, r8, r9, sl, fp, ip}
 800007c:	08001f81 	stmdaeq	r0, {r0, r7, r8, r9, sl, fp, ip}
 8000080:	08001f81 	stmdaeq	r0, {r0, r7, r8, r9, sl, fp, ip}
 8000084:	08001f81 	stmdaeq	r0, {r0, r7, r8, r9, sl, fp, ip}
 8000088:	08001f81 	stmdaeq	r0, {r0, r7, r8, r9, sl, fp, ip}
	...
 800009c:	08001f81 	stmdaeq	r0, {r0, r7, r8, r9, sl, fp, ip}
 80000a0:	08001f81 	stmdaeq	r0, {r0, r7, r8, r9, sl, fp, ip}
 80000a4:	08001f81 	stmdaeq	r0, {r0, r7, r8, r9, sl, fp, ip}
 80000a8:	08001f81 	stmdaeq	r0, {r0, r7, r8, r9, sl, fp, ip}
 80000ac:	08001f81 	stmdaeq	r0, {r0, r7, r8, r9, sl, fp, ip}
 80000b0:	08001f81 	stmdaeq	r0, {r0, r7, r8, r9, sl, fp, ip}
 80000b4:	08001f81 	stmdaeq	r0, {r0, r7, r8, r9, sl, fp, ip}
 80000b8:	08001f81 	stmdaeq	r0, {r0, r7, r8, r9, sl, fp, ip}
 80000bc:	08001f81 	stmdaeq	r0, {r0, r7, r8, r9, sl, fp, ip}
 80000c0:	08001f81 	stmdaeq	r0, {r0, r7, r8, r9, sl, fp, ip}
 80000c4:	08001f81 	stmdaeq	r0, {r0, r7, r8, r9, sl, fp, ip}
 80000c8:	08001f81 	stmdaeq	r0, {r0, r7, r8, r9, sl, fp, ip}
 80000cc:	08001f81 	stmdaeq	r0, {r0, r7, r8, r9, sl, fp, ip}
 80000d0:	08001f81 	stmdaeq	r0, {r0, r7, r8, r9, sl, fp, ip}
 80000d4:	08001fbd 	stmdaeq	r0, {r0, r2, r3, r4, r5, r7, r8, r9, sl, fp, ip}
 80000d8:	08001f81 	stmdaeq	r0, {r0, r7, r8, r9, sl, fp, ip}
 80000dc:	00000000 	andeq	r0, r0, r0
 80000e0:	08001f81 	stmdaeq	r0, {r0, r7, r8, r9, sl, fp, ip}
 80000e4:	08001f81 	stmdaeq	r0, {r0, r7, r8, r9, sl, fp, ip}
 80000e8:	08001f81 	stmdaeq	r0, {r0, r7, r8, r9, sl, fp, ip}
	...
 80000fc:	08001f81 	stmdaeq	r0, {r0, r7, r8, r9, sl, fp, ip}
 8000100:	00000000 	andeq	r0, r0, r0
 8000104:	08001f81 	stmdaeq	r0, {r0, r7, r8, r9, sl, fp, ip}
 8000108:	08001f81 	stmdaeq	r0, {r0, r7, r8, r9, sl, fp, ip}
 800010c:	08001f81 	stmdaeq	r0, {r0, r7, r8, r9, sl, fp, ip}
	...
 8000120:	08001f81 	stmdaeq	r0, {r0, r7, r8, r9, sl, fp, ip}
 8000124:	08001f81 	stmdaeq	r0, {r0, r7, r8, r9, sl, fp, ip}
 8000128:	08001f81 	stmdaeq	r0, {r0, r7, r8, r9, sl, fp, ip}
 800012c:	08001f81 	stmdaeq	r0, {r0, r7, r8, r9, sl, fp, ip}
 8000130:	08001f81 	stmdaeq	r0, {r0, r7, r8, r9, sl, fp, ip}
	...
 800014c:	08001f81 	stmdaeq	r0, {r0, r7, r8, r9, sl, fp, ip}
 8000150:	08001f81 	stmdaeq	r0, {r0, r7, r8, r9, sl, fp, ip}
 8000154:	08001f81 	stmdaeq	r0, {r0, r7, r8, r9, sl, fp, ip}
 8000158:	08001f81 	stmdaeq	r0, {r0, r7, r8, r9, sl, fp, ip}
 800015c:	08001f81 	stmdaeq	r0, {r0, r7, r8, r9, sl, fp, ip}
 8000160:	08001f81 	stmdaeq	r0, {r0, r7, r8, r9, sl, fp, ip}
 8000164:	08001f81 	stmdaeq	r0, {r0, r7, r8, r9, sl, fp, ip}
	...
 8000184:	08001f81 	stmdaeq	r0, {r0, r7, r8, r9, sl, fp, ip}
	...
 8000190:	08001f81 	stmdaeq	r0, {r0, r7, r8, r9, sl, fp, ip}
 8000194:	08001f81 	stmdaeq	r0, {r0, r7, r8, r9, sl, fp, ip}

08000198 <isr_end>:
	...

Disassembly of section .text:

08000200 <UZERO>:
 8000200:	00000000 	andeq	r0, r0, r0
 8000204:	0000aa55 	andeq	sl, r0, r5, asr sl
	...
 8000210:	ffffffff 			; <UNDEFINED> instruction: 0xffffffff
 8000214:	47414d49 	strbmi	r4, [r1, -r9, asr #26]
 8000218:	20001ec4 	andcs	r1, r0, r4, asr #29
 800021c:	0000000a 	andeq	r0, r0, sl
	...
 8000230:	2001ff00 	andcs	pc, r1, r0, lsl #30
 8000234:	20001380 	andcs	r1, r0, r0, lsl #7
 8000238:	00000000 	andeq	r0, r0, r0
 800023c:	080032f0 	stmdaeq	r0, {r4, r5, r6, r7, r9, ip, sp}
 8000240:	08001f7c 	stmdaeq	r0, {r2, r3, r4, r5, r6, r8, r9, sl, fp, ip}
 8000244:	20001f7c 	andcs	r1, r0, ip, ror pc
 8000248:	080032f0 	stmdaeq	r0, {r4, r5, r6, r7, r9, ip, sp}
	...

08000254 <ULAST>:
	...
 800026c:	f3af 8000 	nop.w

08000270 <RSTIVEC>:
 8000270:	f842 ed04 	str.w	lr, [r2, #-4]!
 8000274:	f000 f889 	bl	800038a <DOLIT>
 8000278:	08001f81 	stmdaeq	r0, {r0, r7, r8, r9, sl, fp, ip}
 800027c:	f000 f8e2 	bl	8000444 <SWAP>
 8000280:	f000 f94e 	bl	8000520 <CELLS>
 8000284:	f000 f881 	bl	800038a <DOLIT>
 8000288:	20000040 	andcs	r0, r0, r0, asr #32
 800028c:	f000 f90e 	bl	80004ac <PLUS>
 8000290:	f000 f8ac 	bl	80003ec <STORE>
 8000294:	f852 fb04 	ldr.w	pc, [r2], #4

08000298 <SETIVEC>:
 8000298:	f842 ed04 	str.w	lr, [r2, #-4]!
 800029c:	f000 f8d2 	bl	8000444 <SWAP>
 80002a0:	f000 f920 	bl	80004e4 <ONEP>
 80002a4:	f000 f8ce 	bl	8000444 <SWAP>
 80002a8:	f000 f93a 	bl	8000520 <CELLS>
 80002ac:	f000 f86d 	bl	800038a <DOLIT>
 80002b0:	20000040 	andcs	r0, r0, r0, asr #32
 80002b4:	f000 f8fa 	bl	80004ac <PLUS>
 80002b8:	f000 f898 	bl	80003ec <STORE>
 80002bc:	f852 fb04 	ldr.w	pc, [r2], #4

080002c0 <RAND>:
 80002c0:	f842 ed04 	str.w	lr, [r2, #-4]!
 80002c4:	f000 f9d2 	bl	800066c <SEED>
 80002c8:	f000 f896 	bl	80003f8 <AT>
 80002cc:	ea4f 3445 	mov.w	r4, r5, lsl #13
 80002d0:	ea85 0504 	eor.w	r5, r5, r4
 80002d4:	ea4f 4455 	mov.w	r4, r5, lsr #17
 80002d8:	ea85 0504 	eor.w	r5, r5, r4
 80002dc:	ea4f 1445 	mov.w	r4, r5, lsl #5
 80002e0:	ea85 0504 	eor.w	r5, r5, r4
 80002e4:	f000 f8aa 	bl	800043c <DUPP>
 80002e8:	f000 f9c0 	bl	800066c <SEED>
 80002ec:	f000 f87e 	bl	80003ec <STORE>
 80002f0:	f000 f950 	bl	8000594 <ABSS>
 80002f4:	f000 f8a6 	bl	8000444 <SWAP>
 80002f8:	f000 fa94 	bl	8000824 <MODD>
 80002fc:	f852 fb04 	ldr.w	pc, [r2], #4

08000300 <PAUSE>:
 8000300:	f842 ed04 	str.w	lr, [r2, #-4]!
 8000304:	f000 f9be 	bl	8000684 <TIMER>
 8000308:	f000 f870 	bl	80003ec <STORE>

0800030c <PAUSE_LOOP>:
 800030c:	f000 f9ba 	bl	8000684 <TIMER>
 8000310:	f000 f872 	bl	80003f8 <AT>
 8000314:	f000 f856 	bl	80003c4 <QBRAN>
 8000318:	08000324 	stmdaeq	r0, {r2, r5, r8, r9}
 800031c:	f000 f85e 	bl	80003dc <BRAN>
 8000320:	0800030c 	stmdaeq	r0, {r2, r3, r8, r9}

08000324 <PAUSE_EXIT>:
 8000324:	f852 fb04 	ldr.w	pc, [r2], #4

08000328 <ULED>:
 8000328:	f44f 5600 	mov.w	r6, #8192	; 0x2000
 800032c:	f44f 6400 	mov.w	r4, #2048	; 0x800
 8000330:	f2c4 0402 	movt	r4, #16386	; 0x4002
 8000334:	0028      	movs	r0, r5
 8000336:	f851 5b04 	ldr.w	r5, [r1], #4
 800033a:	d001      	beq.n	8000340 <ULED_OFF>
 800033c:	ea4f 4606 	mov.w	r6, r6, lsl #16

08000340 <ULED_OFF>:
 8000340:	61a6      	str	r6, [r4, #24]
 8000342:	4770      	bx	lr

08000344 <QKEY>:
 8000344:	f841 5d04 	str.w	r5, [r1, #-4]!
 8000348:	6e5f      	ldr	r7, [r3, #100]	; 0x64
 800034a:	6e1e      	ldr	r6, [r3, #96]	; 0x60
 800034c:	ea96 0507 	eors.w	r5, r6, r7
 8000350:	d00c      	beq.n	800036c <QKEY+0x28>
 8000352:	f103 0750 	add.w	r7, r3, #80	; 0x50
 8000356:	4437      	add	r7, r6
 8000358:	783d      	ldrb	r5, [r7, #0]
 800035a:	f106 0601 	add.w	r6, r6, #1
 800035e:	f006 060f 	and.w	r6, r6, #15
 8000362:	661e      	str	r6, [r3, #96]	; 0x60
 8000364:	f841 5d04 	str.w	r5, [r1, #-4]!
 8000368:	f04f 35ff 	mov.w	r5, #4294967295	; 0xffffffff
 800036c:	4770      	bx	lr
 800036e:	bf00      	nop

08000370 <EMIT>:
 8000370:	f44f 5480 	mov.w	r4, #4096	; 0x1000
 8000374:	f2c4 0401 	movt	r4, #16385	; 0x4001
 8000378:	6826      	ldr	r6, [r4, #0]
 800037a:	f016 0680 	ands.w	r6, r6, #128	; 0x80
 800037e:	d0fb      	beq.n	8000378 <EMIT+0x8>
 8000380:	7125      	strb	r5, [r4, #4]
 8000382:	f851 5b04 	ldr.w	r5, [r1], #4
 8000386:	4770      	bx	lr

08000388 <NOP>:
 8000388:	4770      	bx	lr

0800038a <DOLIT>:
 800038a:	f841 5d04 	str.w	r5, [r1, #-4]!
 800038e:	f02e 0e01 	bic.w	lr, lr, #1
 8000392:	f85e 5b04 	ldr.w	r5, [lr], #4
 8000396:	f04e 0e01 	orr.w	lr, lr, #1
 800039a:	4770      	bx	lr

0800039c <EXECU>:
 800039c:	f045 0401 	orr.w	r4, r5, #1
 80003a0:	f851 5b04 	ldr.w	r5, [r1], #4
 80003a4:	4720      	bx	r4

080003a6 <DONXT>:
 80003a6:	6814      	ldr	r4, [r2, #0]
 80003a8:	b924      	cbnz	r4, 80003b4 <NEXT1>
 80003aa:	f102 0204 	add.w	r2, r2, #4
 80003ae:	f10e 0e04 	add.w	lr, lr, #4
 80003b2:	4770      	bx	lr

080003b4 <NEXT1>:
 80003b4:	f1a4 0401 	sub.w	r4, r4, #1
 80003b8:	6014      	str	r4, [r2, #0]
 80003ba:	f85e ec01 	ldr.w	lr, [lr, #-1]
 80003be:	f04e 0e01 	orr.w	lr, lr, #1
 80003c2:	4770      	bx	lr

080003c4 <QBRAN>:
 80003c4:	002c      	movs	r4, r5
 80003c6:	f851 5b04 	ldr.w	r5, [r1], #4
 80003ca:	d104      	bne.n	80003d6 <QBRAN1>
 80003cc:	f85e ec01 	ldr.w	lr, [lr, #-1]
 80003d0:	f04e 0e01 	orr.w	lr, lr, #1
 80003d4:	4770      	bx	lr

080003d6 <QBRAN1>:
 80003d6:	f10e 0e04 	add.w	lr, lr, #4
 80003da:	4770      	bx	lr

080003dc <BRAN>:
 80003dc:	f85e ec01 	ldr.w	lr, [lr, #-1]
 80003e0:	f04e 0e01 	orr.w	lr, lr, #1
 80003e4:	4770      	bx	lr
 80003e6:	bf00      	nop

080003e8 <EXIT>:
 80003e8:	f852 fb04 	ldr.w	pc, [r2], #4

080003ec <STORE>:
 80003ec:	f851 4b04 	ldr.w	r4, [r1], #4
 80003f0:	602c      	str	r4, [r5, #0]
 80003f2:	f851 5b04 	ldr.w	r5, [r1], #4
 80003f6:	4770      	bx	lr

080003f8 <AT>:
 80003f8:	682d      	ldr	r5, [r5, #0]
 80003fa:	4770      	bx	lr

080003fc <CSTOR>:
 80003fc:	f851 4b04 	ldr.w	r4, [r1], #4
 8000400:	702c      	strb	r4, [r5, #0]
 8000402:	f851 5b04 	ldr.w	r5, [r1], #4
 8000406:	4770      	bx	lr

08000408 <CAT>:
 8000408:	782d      	ldrb	r5, [r5, #0]
 800040a:	4770      	bx	lr

0800040c <RFROM>:
 800040c:	f841 5d04 	str.w	r5, [r1, #-4]!
 8000410:	f852 5b04 	ldr.w	r5, [r2], #4
 8000414:	4770      	bx	lr
 8000416:	bf00      	nop

08000418 <RAT>:
 8000418:	f841 5d04 	str.w	r5, [r1, #-4]!
 800041c:	6815      	ldr	r5, [r2, #0]
 800041e:	4770      	bx	lr

08000420 <TOR>:
 8000420:	f842 5d04 	str.w	r5, [r2, #-4]!
 8000424:	f851 5b04 	ldr.w	r5, [r1], #4
 8000428:	4770      	bx	lr
 800042a:	bf00      	nop

0800042c <SPAT>:
 800042c:	f841 5d04 	str.w	r5, [r1, #-4]!
 8000430:	460d      	mov	r5, r1
 8000432:	4770      	bx	lr

08000434 <DROP>:
 8000434:	f851 5b04 	ldr.w	r5, [r1], #4
 8000438:	4770      	bx	lr
 800043a:	bf00      	nop

0800043c <DUPP>:
 800043c:	f841 5d04 	str.w	r5, [r1, #-4]!
 8000440:	4770      	bx	lr
 8000442:	bf00      	nop

08000444 <SWAP>:
 8000444:	680c      	ldr	r4, [r1, #0]
 8000446:	600d      	str	r5, [r1, #0]
 8000448:	4625      	mov	r5, r4
 800044a:	4770      	bx	lr

0800044c <OVER>:
 800044c:	f841 5d04 	str.w	r5, [r1, #-4]!
 8000450:	684d      	ldr	r5, [r1, #4]
 8000452:	4770      	bx	lr

08000454 <ZLESS>:
 8000454:	f04f 0400 	mov.w	r4, #0
 8000458:	eb04 0525 	add.w	r5, r4, r5, asr #32
 800045c:	4770      	bx	lr
 800045e:	bf00      	nop

08000460 <ANDD>:
 8000460:	f851 4b04 	ldr.w	r4, [r1], #4
 8000464:	ea05 0504 	and.w	r5, r5, r4
 8000468:	4770      	bx	lr
 800046a:	bf00      	nop

0800046c <ORR>:
 800046c:	f851 4b04 	ldr.w	r4, [r1], #4
 8000470:	ea45 0504 	orr.w	r5, r5, r4
 8000474:	4770      	bx	lr
 8000476:	bf00      	nop

08000478 <XORR>:
 8000478:	f851 4b04 	ldr.w	r4, [r1], #4
 800047c:	ea85 0504 	eor.w	r5, r5, r4
 8000480:	4770      	bx	lr
 8000482:	bf00      	nop

08000484 <UPLUS>:
 8000484:	680c      	ldr	r4, [r1, #0]
 8000486:	1964      	adds	r4, r4, r5
 8000488:	f04f 0500 	mov.w	r5, #0
 800048c:	f145 0500 	adc.w	r5, r5, #0
 8000490:	600c      	str	r4, [r1, #0]
 8000492:	4770      	bx	lr

08000494 <RSHIFT>:
 8000494:	f851 4b04 	ldr.w	r4, [r1], #4
 8000498:	fa44 f505 	asr.w	r5, r4, r5
 800049c:	4770      	bx	lr
 800049e:	bf00      	nop

080004a0 <LSHIFT>:
 80004a0:	f851 4b04 	ldr.w	r4, [r1], #4
 80004a4:	fa04 f505 	lsl.w	r5, r4, r5
 80004a8:	4770      	bx	lr
 80004aa:	bf00      	nop

080004ac <PLUS>:
 80004ac:	f851 4b04 	ldr.w	r4, [r1], #4
 80004b0:	4425      	add	r5, r4
 80004b2:	4770      	bx	lr

080004b4 <SUBB>:
 80004b4:	f851 4b04 	ldr.w	r4, [r1], #4
 80004b8:	ebc5 0504 	rsb	r5, r5, r4
 80004bc:	4770      	bx	lr
 80004be:	bf00      	nop

080004c0 <STAR>:
 80004c0:	f851 4b04 	ldr.w	r4, [r1], #4
 80004c4:	fb04 f505 	mul.w	r5, r4, r5
 80004c8:	4770      	bx	lr
 80004ca:	bf00      	nop

080004cc <UMSTA>:
 80004cc:	680c      	ldr	r4, [r1, #0]
 80004ce:	fba5 6704 	umull	r6, r7, r5, r4
 80004d2:	600e      	str	r6, [r1, #0]
 80004d4:	463d      	mov	r5, r7
 80004d6:	4770      	bx	lr

080004d8 <MSTAR>:
 80004d8:	680c      	ldr	r4, [r1, #0]
 80004da:	fb85 6704 	smull	r6, r7, r5, r4
 80004de:	600e      	str	r6, [r1, #0]
 80004e0:	463d      	mov	r5, r7
 80004e2:	4770      	bx	lr

080004e4 <ONEP>:
 80004e4:	f105 0501 	add.w	r5, r5, #1
 80004e8:	4770      	bx	lr
 80004ea:	bf00      	nop

080004ec <ONEM>:
 80004ec:	f1a5 0501 	sub.w	r5, r5, #1
 80004f0:	4770      	bx	lr
 80004f2:	bf00      	nop

080004f4 <TWOP>:
 80004f4:	f105 0502 	add.w	r5, r5, #2
 80004f8:	4770      	bx	lr
 80004fa:	bf00      	nop

080004fc <TWOM>:
 80004fc:	f1a5 0502 	sub.w	r5, r5, #2
 8000500:	4770      	bx	lr
 8000502:	bf00      	nop

08000504 <CELLP>:
 8000504:	f105 0504 	add.w	r5, r5, #4
 8000508:	4770      	bx	lr
 800050a:	bf00      	nop

0800050c <CELLM>:
 800050c:	f1a5 0504 	sub.w	r5, r5, #4
 8000510:	4770      	bx	lr
 8000512:	bf00      	nop

08000514 <BLANK>:
 8000514:	f841 5d04 	str.w	r5, [r1, #-4]!
 8000518:	f04f 0520 	mov.w	r5, #32
 800051c:	4770      	bx	lr
 800051e:	bf00      	nop

08000520 <CELLS>:
 8000520:	ea4f 0585 	mov.w	r5, r5, lsl #2
 8000524:	4770      	bx	lr
 8000526:	bf00      	nop

08000528 <CELLSL>:
 8000528:	ea4f 05a5 	mov.w	r5, r5, asr #2
 800052c:	4770      	bx	lr
 800052e:	bf00      	nop

08000530 <TWOST>:
 8000530:	ea4f 0545 	mov.w	r5, r5, lsl #1
 8000534:	4770      	bx	lr
 8000536:	bf00      	nop

08000538 <TWOSL>:
 8000538:	ea4f 0565 	mov.w	r5, r5, asr #1
 800053c:	4770      	bx	lr
 800053e:	bf00      	nop

08000540 <QDUP>:
 8000540:	002c      	movs	r4, r5
 8000542:	bf18      	it	ne
 8000544:	f841 5d04 	strne.w	r5, [r1, #-4]!
 8000548:	4770      	bx	lr
 800054a:	bf00      	nop

0800054c <ROT>:
 800054c:	680c      	ldr	r4, [r1, #0]
 800054e:	600d      	str	r5, [r1, #0]
 8000550:	684d      	ldr	r5, [r1, #4]
 8000552:	604c      	str	r4, [r1, #4]
 8000554:	4770      	bx	lr
 8000556:	bf00      	nop

08000558 <DDROP>:
 8000558:	f851 5b04 	ldr.w	r5, [r1], #4
 800055c:	f851 5b04 	ldr.w	r5, [r1], #4
 8000560:	4770      	bx	lr
 8000562:	bf00      	nop

08000564 <DDUP>:
 8000564:	680c      	ldr	r4, [r1, #0]
 8000566:	f841 5d04 	str.w	r5, [r1, #-4]!
 800056a:	f841 4d04 	str.w	r4, [r1, #-4]!
 800056e:	4770      	bx	lr

08000570 <DPLUS>:
 8000570:	f851 4b04 	ldr.w	r4, [r1], #4
 8000574:	f851 6b04 	ldr.w	r6, [r1], #4
 8000578:	680f      	ldr	r7, [r1, #0]
 800057a:	19e4      	adds	r4, r4, r7
 800057c:	600c      	str	r4, [r1, #0]
 800057e:	eb45 0506 	adc.w	r5, r5, r6
 8000582:	4770      	bx	lr

08000584 <INVER>:
 8000584:	ea6f 0505 	mvn.w	r5, r5
 8000588:	4770      	bx	lr
 800058a:	bf00      	nop

0800058c <NEGAT>:
 800058c:	f1c5 0500 	rsb	r5, r5, #0
 8000590:	4770      	bx	lr
 8000592:	bf00      	nop

08000594 <ABSS>:
 8000594:	f015 4f00 	tst.w	r5, #2147483648	; 0x80000000
 8000598:	bf18      	it	ne
 800059a:	426d      	negne	r5, r5
 800059c:	4770      	bx	lr
 800059e:	bf00      	nop

080005a0 <ZEQUAL>:
 80005a0:	b915      	cbnz	r5, 80005a8 <ZEQUAL+0x8>
 80005a2:	f04f 35ff 	mov.w	r5, #4294967295	; 0xffffffff
 80005a6:	4770      	bx	lr
 80005a8:	ea85 0505 	eor.w	r5, r5, r5
 80005ac:	4770      	bx	lr
 80005ae:	bf00      	nop

080005b0 <EQUAL>:
 80005b0:	f851 4b04 	ldr.w	r4, [r1], #4
 80005b4:	42a5      	cmp	r5, r4
 80005b6:	bf0c      	ite	eq
 80005b8:	f06f 0500 	mvneq.w	r5, #0
 80005bc:	2500      	movne	r5, #0
 80005be:	4770      	bx	lr

080005c0 <ULESS>:
 80005c0:	f851 4b04 	ldr.w	r4, [r1], #4
 80005c4:	42ac      	cmp	r4, r5
 80005c6:	bf34      	ite	cc
 80005c8:	f06f 0500 	mvncc.w	r5, #0
 80005cc:	2500      	movcs	r5, #0
 80005ce:	4770      	bx	lr

080005d0 <LESS>:
 80005d0:	f851 4b04 	ldr.w	r4, [r1], #4
 80005d4:	42ac      	cmp	r4, r5
 80005d6:	bfb4      	ite	lt
 80005d8:	f06f 0500 	mvnlt.w	r5, #0
 80005dc:	2500      	movge	r5, #0
 80005de:	4770      	bx	lr

080005e0 <GREAT>:
 80005e0:	f851 4b04 	ldr.w	r4, [r1], #4
 80005e4:	42ac      	cmp	r4, r5
 80005e6:	bfcc      	ite	gt
 80005e8:	f06f 0500 	mvngt.w	r5, #0
 80005ec:	2500      	movle	r5, #0
 80005ee:	4770      	bx	lr

080005f0 <MAX>:
 80005f0:	f851 4b04 	ldr.w	r4, [r1], #4
 80005f4:	42ac      	cmp	r4, r5
 80005f6:	bfc8      	it	gt
 80005f8:	4625      	movgt	r5, r4
 80005fa:	4770      	bx	lr

080005fc <MIN>:
 80005fc:	f851 4b04 	ldr.w	r4, [r1], #4
 8000600:	42ac      	cmp	r4, r5
 8000602:	bfb8      	it	lt
 8000604:	4625      	movlt	r5, r4
 8000606:	4770      	bx	lr

08000608 <PSTOR>:
 8000608:	f851 4b04 	ldr.w	r4, [r1], #4
 800060c:	682e      	ldr	r6, [r5, #0]
 800060e:	4426      	add	r6, r4
 8000610:	602e      	str	r6, [r5, #0]
 8000612:	f851 5b04 	ldr.w	r5, [r1], #4
 8000616:	4770      	bx	lr

08000618 <DSTOR>:
 8000618:	f851 4b04 	ldr.w	r4, [r1], #4
 800061c:	f851 6b04 	ldr.w	r6, [r1], #4
 8000620:	f845 4b04 	str.w	r4, [r5], #4
 8000624:	602e      	str	r6, [r5, #0]
 8000626:	f851 5b04 	ldr.w	r5, [r1], #4
 800062a:	4770      	bx	lr

0800062c <DAT>:
 800062c:	686c      	ldr	r4, [r5, #4]
 800062e:	f841 4d04 	str.w	r4, [r1, #-4]!
 8000632:	682d      	ldr	r5, [r5, #0]
 8000634:	4770      	bx	lr
 8000636:	bf00      	nop

08000638 <COUNT>:
 8000638:	f815 4b01 	ldrb.w	r4, [r5], #1
 800063c:	f841 5d04 	str.w	r5, [r1, #-4]!
 8000640:	4625      	mov	r5, r4
 8000642:	4770      	bx	lr

08000644 <DNEGA>:
 8000644:	680c      	ldr	r4, [r1, #0]
 8000646:	eba6 0606 	sub.w	r6, r6, r6
 800064a:	1b34      	subs	r4, r6, r4
 800064c:	eb66 0505 	sbc.w	r5, r6, r5
 8000650:	600c      	str	r4, [r1, #0]
 8000652:	4770      	bx	lr

08000654 <DOVAR>:
 8000654:	f841 5d04 	str.w	r5, [r1, #-4]!
 8000658:	f1ae 0501 	sub.w	r5, lr, #1
 800065c:	f852 fb04 	ldr.w	pc, [r2], #4

08000660 <DOCON>:
 8000660:	f841 5d04 	str.w	r5, [r1, #-4]!
 8000664:	f85e 5c01 	ldr.w	r5, [lr, #-1]
 8000668:	f852 fb04 	ldr.w	pc, [r2], #4

0800066c <SEED>:
 800066c:	f841 5d04 	str.w	r5, [r1, #-4]!
 8000670:	f103 0504 	add.w	r5, r3, #4
 8000674:	4770      	bx	lr
 8000676:	bf00      	nop

08000678 <MSEC>:
 8000678:	f841 5d04 	str.w	r5, [r1, #-4]!
 800067c:	f103 0508 	add.w	r5, r3, #8
 8000680:	4770      	bx	lr
 8000682:	bf00      	nop

08000684 <TIMER>:
 8000684:	f841 5d04 	str.w	r5, [r1, #-4]!
 8000688:	f103 050c 	add.w	r5, r3, #12
 800068c:	4770      	bx	lr
 800068e:	bf00      	nop

08000690 <TBOOT>:
 8000690:	f841 5d04 	str.w	r5, [r1, #-4]!
 8000694:	f103 0518 	add.w	r5, r3, #24
 8000698:	4770      	bx	lr
 800069a:	bf00      	nop

0800069c <BASE>:
 800069c:	f841 5d04 	str.w	r5, [r1, #-4]!
 80006a0:	f103 051c 	add.w	r5, r3, #28
 80006a4:	4770      	bx	lr

080006a6 <TEMP>:
 80006a6:	f841 5d04 	str.w	r5, [r1, #-4]!
 80006aa:	f103 0520 	add.w	r5, r3, #32
 80006ae:	4770      	bx	lr

080006b0 <SPAN>:
 80006b0:	f841 5d04 	str.w	r5, [r1, #-4]!
 80006b4:	f103 0524 	add.w	r5, r3, #36	; 0x24
 80006b8:	4770      	bx	lr
 80006ba:	bf00      	nop

080006bc <INN>:
 80006bc:	f841 5d04 	str.w	r5, [r1, #-4]!
 80006c0:	f103 0528 	add.w	r5, r3, #40	; 0x28
 80006c4:	4770      	bx	lr
 80006c6:	bf00      	nop

080006c8 <NTIB>:
 80006c8:	f841 5d04 	str.w	r5, [r1, #-4]!
 80006cc:	f103 052c 	add.w	r5, r3, #44	; 0x2c
 80006d0:	4770      	bx	lr
 80006d2:	bf00      	nop

080006d4 <TEVAL>:
 80006d4:	f841 5d04 	str.w	r5, [r1, #-4]!
 80006d8:	f103 0534 	add.w	r5, r3, #52	; 0x34
 80006dc:	4770      	bx	lr
 80006de:	bf00      	nop

080006e0 <HLD>:
 80006e0:	f841 5d04 	str.w	r5, [r1, #-4]!
 80006e4:	f103 0538 	add.w	r5, r3, #56	; 0x38
 80006e8:	4770      	bx	lr
 80006ea:	bf00      	nop

080006ec <CNTXT>:
 80006ec:	f841 5d04 	str.w	r5, [r1, #-4]!
 80006f0:	f103 053c 	add.w	r5, r3, #60	; 0x3c
 80006f4:	4770      	bx	lr
 80006f6:	bf00      	nop

080006f8 <CPP>:
 80006f8:	f841 5d04 	str.w	r5, [r1, #-4]!
 80006fc:	f103 0544 	add.w	r5, r3, #68	; 0x44
 8000700:	4770      	bx	lr
 8000702:	bf00      	nop

08000704 <FCP>:
 8000704:	f841 5d04 	str.w	r5, [r1, #-4]!
 8000708:	f103 0540 	add.w	r5, r3, #64	; 0x40
 800070c:	4770      	bx	lr
 800070e:	bf00      	nop

08000710 <LAST>:
 8000710:	f841 5d04 	str.w	r5, [r1, #-4]!
 8000714:	f103 0548 	add.w	r5, r3, #72	; 0x48
 8000718:	4770      	bx	lr
 800071a:	bf00      	nop

0800071c <USER_BEGIN>:
 800071c:	f841 5d04 	str.w	r5, [r1, #-4]!
 8000720:	4d00      	ldr	r5, [pc, #0]	; (8000724 <USR_BGN_ADR>)
 8000722:	4770      	bx	lr

08000724 <USR_BGN_ADR>:
 8000724:	20001f7c 	andcs	r1, r0, ip, ror pc

08000728 <USER_END>:
 8000728:	f841 5d04 	str.w	r5, [r1, #-4]!
 800072c:	f64f 6580 	movw	r5, #65152	; 0xfe80
 8000730:	f2c2 0501 	movt	r5, #8193	; 0x2001
 8000734:	4770      	bx	lr
 8000736:	bf00      	nop

08000738 <IMG_ADR>:
 8000738:	f841 5d04 	str.w	r5, [r1, #-4]!
 800073c:	4d00      	ldr	r5, [pc, #0]	; (8000740 <USR_IMG_ADR>)
 800073e:	4770      	bx	lr

08000740 <USR_IMG_ADR>:
 8000740:	08003800 	stmdaeq	r0, {fp, ip, sp}

08000744 <IMG_SIGN>:
 8000744:	f841 5d04 	str.w	r5, [r1, #-4]!
 8000748:	f103 0514 	add.w	r5, r3, #20
 800074c:	4770      	bx	lr
 800074e:	bf00      	nop

08000750 <WITHI>:
 8000750:	f842 ed04 	str.w	lr, [r2, #-4]!
 8000754:	f7ff fe7a 	bl	800044c <OVER>
 8000758:	f7ff feac 	bl	80004b4 <SUBB>
 800075c:	f7ff fe60 	bl	8000420 <TOR>
 8000760:	f7ff fea8 	bl	80004b4 <SUBB>
 8000764:	f7ff fe52 	bl	800040c <RFROM>
 8000768:	f7ff ff2a 	bl	80005c0 <ULESS>
 800076c:	f852 fb04 	ldr.w	pc, [r2], #4

08000770 <UMMOD>:
 8000770:	f04f 0701 	mov.w	r7, #1
 8000774:	f851 4b04 	ldr.w	r4, [r1], #4
 8000778:	680e      	ldr	r6, [r1, #0]

0800077a <UMMOD0>:
 800077a:	19b6      	adds	r6, r6, r6
 800077c:	4164      	adcs	r4, r4
 800077e:	d304      	bcc.n	800078a <UMMOD1>
 8000780:	eba4 0405 	sub.w	r4, r4, r5
 8000784:	f106 0601 	add.w	r6, r6, #1
 8000788:	e004      	b.n	8000794 <UMMOD2>

0800078a <UMMOD1>:
 800078a:	1b64      	subs	r4, r4, r5
 800078c:	bf28      	it	cs
 800078e:	3601      	addcs	r6, #1
 8000790:	d200      	bcs.n	8000794 <UMMOD2>
 8000792:	442c      	add	r4, r5

08000794 <UMMOD2>:
 8000794:	19ff      	adds	r7, r7, r7
 8000796:	d3f0      	bcc.n	800077a <UMMOD0>
 8000798:	4635      	mov	r5, r6
 800079a:	600c      	str	r4, [r1, #0]
 800079c:	4770      	bx	lr
 800079e:	bf00      	nop

080007a0 <MSMOD>:
 80007a0:	f842 ed04 	str.w	lr, [r2, #-4]!
 80007a4:	f7ff fe4a 	bl	800043c <DUPP>
 80007a8:	f7ff fe54 	bl	8000454 <ZLESS>
 80007ac:	f7ff fe46 	bl	800043c <DUPP>
 80007b0:	f7ff fe36 	bl	8000420 <TOR>
 80007b4:	f7ff fe06 	bl	80003c4 <QBRAN>
 80007b8:	200007cc 	andcs	r0, r0, ip, asr #15
 80007bc:	f7ff fee6 	bl	800058c <NEGAT>
 80007c0:	f7ff fe2e 	bl	8000420 <TOR>
 80007c4:	f7ff ff3e 	bl	8000644 <DNEGA>
 80007c8:	f7ff fe20 	bl	800040c <RFROM>

080007cc <MMOD1>:
 80007cc:	f7ff fe28 	bl	8000420 <TOR>
 80007d0:	f7ff fe34 	bl	800043c <DUPP>
 80007d4:	f7ff fe3e 	bl	8000454 <ZLESS>
 80007d8:	f7ff fdf4 	bl	80003c4 <QBRAN>
 80007dc:	200007e8 	andcs	r0, r0, r8, ror #15
 80007e0:	f7ff fe1a 	bl	8000418 <RAT>
 80007e4:	f7ff fe62 	bl	80004ac <PLUS>

080007e8 <MMOD2>:
 80007e8:	f7ff fe10 	bl	800040c <RFROM>
 80007ec:	f7ff ffc0 	bl	8000770 <UMMOD>
 80007f0:	f7ff fe0c 	bl	800040c <RFROM>
 80007f4:	f7ff fde6 	bl	80003c4 <QBRAN>
 80007f8:	20000808 	andcs	r0, r0, r8, lsl #16
 80007fc:	f7ff fe22 	bl	8000444 <SWAP>
 8000800:	f7ff fec4 	bl	800058c <NEGAT>
 8000804:	f7ff fe1e 	bl	8000444 <SWAP>

08000808 <MMOD3>:
 8000808:	f852 fb04 	ldr.w	pc, [r2], #4

0800080c <SLMOD>:
 800080c:	f842 ed04 	str.w	lr, [r2, #-4]!
 8000810:	f7ff fe1c 	bl	800044c <OVER>
 8000814:	f7ff fe1e 	bl	8000454 <ZLESS>
 8000818:	f7ff fe14 	bl	8000444 <SWAP>
 800081c:	f7ff ffc0 	bl	80007a0 <MSMOD>
 8000820:	f852 fb04 	ldr.w	pc, [r2], #4

08000824 <MODD>:
 8000824:	f842 ed04 	str.w	lr, [r2, #-4]!
 8000828:	f7ff fff0 	bl	800080c <SLMOD>
 800082c:	f7ff fe02 	bl	8000434 <DROP>
 8000830:	f852 fb04 	ldr.w	pc, [r2], #4

08000834 <SLASH>:
 8000834:	f842 ed04 	str.w	lr, [r2, #-4]!
 8000838:	f7ff ffe8 	bl	800080c <SLMOD>
 800083c:	f7ff fe02 	bl	8000444 <SWAP>
 8000840:	f7ff fdf8 	bl	8000434 <DROP>
 8000844:	f852 fb04 	ldr.w	pc, [r2], #4

08000848 <SSMOD>:
 8000848:	f842 ed04 	str.w	lr, [r2, #-4]!
 800084c:	f7ff fde8 	bl	8000420 <TOR>
 8000850:	f7ff fe42 	bl	80004d8 <MSTAR>
 8000854:	f7ff fdda 	bl	800040c <RFROM>
 8000858:	f7ff ffa2 	bl	80007a0 <MSMOD>
 800085c:	f852 fb04 	ldr.w	pc, [r2], #4

08000860 <STASL>:
 8000860:	f842 ed04 	str.w	lr, [r2, #-4]!
 8000864:	f7ff fff0 	bl	8000848 <SSMOD>
 8000868:	f7ff fdec 	bl	8000444 <SWAP>
 800086c:	f7ff fde2 	bl	8000434 <DROP>
 8000870:	f852 fb04 	ldr.w	pc, [r2], #4

08000874 <ALGND>:
 8000874:	f105 0503 	add.w	r5, r5, #3
 8000878:	f06f 0403 	mvn.w	r4, #3
 800087c:	ea05 0504 	and.w	r5, r5, r4
 8000880:	4770      	bx	lr
 8000882:	bf00      	nop

08000884 <TCHAR>:
 8000884:	f842 ed04 	str.w	lr, [r2, #-4]!
 8000888:	f7ff fd7f 	bl	800038a <DOLIT>
 800088c:	0000007f 	andeq	r0, r0, pc, ror r0
 8000890:	f7ff fde6 	bl	8000460 <ANDD>
 8000894:	f7ff fdd2 	bl	800043c <DUPP>
 8000898:	f7ff fe3c 	bl	8000514 <BLANK>
 800089c:	f7ff fd75 	bl	800038a <DOLIT>
 80008a0:	0000007f 	andeq	r0, r0, pc, ror r0
 80008a4:	f7ff ff54 	bl	8000750 <WITHI>
 80008a8:	f7ff fe6c 	bl	8000584 <INVER>
 80008ac:	f7ff fd8a 	bl	80003c4 <QBRAN>
 80008b0:	200008c0 	andcs	r0, r0, r0, asr #17
 80008b4:	f7ff fdbe 	bl	8000434 <DROP>
 80008b8:	f7ff fd67 	bl	800038a <DOLIT>
 80008bc:	0000005f 	andeq	r0, r0, pc, asr r0

080008c0 <TCHA1>:
 80008c0:	f852 fb04 	ldr.w	pc, [r2], #4

080008c4 <DEPTH>:
 80008c4:	f44f 467f 	mov.w	r6, #65280	; 0xff00
 80008c8:	f2c2 0601 	movt	r6, #8193	; 0x2001
 80008cc:	eba6 0601 	sub.w	r6, r6, r1
 80008d0:	f841 5d04 	str.w	r5, [r1, #-4]!
 80008d4:	ea4f 05a6 	mov.w	r5, r6, asr #2
 80008d8:	4770      	bx	lr
 80008da:	bf00      	nop

080008dc <PICK>:
 80008dc:	f842 ed04 	str.w	lr, [r2, #-4]!
 80008e0:	f7ff fe00 	bl	80004e4 <ONEP>
 80008e4:	f7ff fe1c 	bl	8000520 <CELLS>
 80008e8:	f7ff fda0 	bl	800042c <SPAT>
 80008ec:	f7ff fdde 	bl	80004ac <PLUS>
 80008f0:	f7ff fd82 	bl	80003f8 <AT>
 80008f4:	f852 fb04 	ldr.w	pc, [r2], #4

080008f8 <HERE>:
 80008f8:	f842 ed04 	str.w	lr, [r2, #-4]!
 80008fc:	f7ff fefc 	bl	80006f8 <CPP>
 8000900:	f7ff fd7a 	bl	80003f8 <AT>
 8000904:	f852 fb04 	ldr.w	pc, [r2], #4

08000908 <PAD>:
 8000908:	f842 ed04 	str.w	lr, [r2, #-4]!
 800090c:	f7ff fff4 	bl	80008f8 <HERE>
 8000910:	f105 0550 	add.w	r5, r5, #80	; 0x50
 8000914:	f852 fb04 	ldr.w	pc, [r2], #4

08000918 <TIB>:
 8000918:	f841 5d04 	str.w	r5, [r1, #-4]!
 800091c:	6b1d      	ldr	r5, [r3, #48]	; 0x30
 800091e:	4770      	bx	lr

08000920 <ATEXE>:
 8000920:	002c      	movs	r4, r5
 8000922:	f851 5b04 	ldr.w	r5, [r1], #4
 8000926:	6824      	ldr	r4, [r4, #0]
 8000928:	f044 0401 	orr.w	r4, r4, #1
 800092c:	bf18      	it	ne
 800092e:	4720      	bxne	r4
 8000930:	4770      	bx	lr
 8000932:	bf00      	nop

08000934 <CMOVE>:
 8000934:	f851 6b04 	ldr.w	r6, [r1], #4
 8000938:	f851 7b04 	ldr.w	r7, [r1], #4
 800093c:	e003      	b.n	8000946 <CMOV1>

0800093e <CMOV0>:
 800093e:	f817 4b01 	ldrb.w	r4, [r7], #1
 8000942:	f806 4b01 	strb.w	r4, [r6], #1

08000946 <CMOV1>:
 8000946:	002d      	movs	r5, r5
 8000948:	d002      	beq.n	8000950 <CMOV2>
 800094a:	f1a5 0501 	sub.w	r5, r5, #1
 800094e:	e7f6      	b.n	800093e <CMOV0>

08000950 <CMOV2>:
 8000950:	f851 5b04 	ldr.w	r5, [r1], #4
 8000954:	4770      	bx	lr
 8000956:	bf00      	nop

08000958 <MOVE>:
 8000958:	f025 0503 	bic.w	r5, r5, #3
 800095c:	f851 6b04 	ldr.w	r6, [r1], #4
 8000960:	f851 7b04 	ldr.w	r7, [r1], #4
 8000964:	e003      	b.n	800096e <MOVE1>

08000966 <MOVE0>:
 8000966:	f857 4b04 	ldr.w	r4, [r7], #4
 800096a:	f846 4b04 	str.w	r4, [r6], #4

0800096e <MOVE1>:
 800096e:	002d      	movs	r5, r5
 8000970:	d002      	beq.n	8000978 <MOVE2>
 8000972:	f1a5 0504 	sub.w	r5, r5, #4
 8000976:	e7f6      	b.n	8000966 <MOVE0>

08000978 <MOVE2>:
 8000978:	f851 5b04 	ldr.w	r5, [r1], #4
 800097c:	4770      	bx	lr
 800097e:	bf00      	nop

08000980 <FILL>:
 8000980:	f851 6b04 	ldr.w	r6, [r1], #4
 8000984:	f851 7b04 	ldr.w	r7, [r1], #4

08000988 <FILL0>:
 8000988:	e000      	b.n	800098c <FILL1>
 800098a:	462d      	mov	r5, r5

0800098c <FILL1>:
 800098c:	f807 5b01 	strb.w	r5, [r7], #1
 8000990:	0036      	movs	r6, r6
 8000992:	d002      	beq.n	800099a <FILL2>
 8000994:	f1a6 0601 	sub.w	r6, r6, #1
 8000998:	e7f6      	b.n	8000988 <FILL0>

0800099a <FILL2>:
 800099a:	f851 5b04 	ldr.w	r5, [r1], #4
 800099e:	4770      	bx	lr

080009a0 <PACKS>:
 80009a0:	f842 ed04 	str.w	lr, [r2, #-4]!
 80009a4:	f7ff ff66 	bl	8000874 <ALGND>
 80009a8:	f7ff fd48 	bl	800043c <DUPP>
 80009ac:	f7ff fd38 	bl	8000420 <TOR>
 80009b0:	f7ff fd4c 	bl	800044c <OVER>
 80009b4:	f7ff fd7a 	bl	80004ac <PLUS>
 80009b8:	f7ff fd94 	bl	80004e4 <ONEP>
 80009bc:	f7ff fce5 	bl	800038a <DOLIT>
 80009c0:	fffffffc 			; <UNDEFINED> instruction: 0xfffffffc
 80009c4:	f7ff fd4c 	bl	8000460 <ANDD>
 80009c8:	f7ff fcdf 	bl	800038a <DOLIT>
 80009cc:	00000000 	andeq	r0, r0, r0
 80009d0:	f7ff fd38 	bl	8000444 <SWAP>
 80009d4:	f7ff fd0a 	bl	80003ec <STORE>
 80009d8:	f7ff fd1e 	bl	8000418 <RAT>
 80009dc:	f7ff fdc2 	bl	8000564 <DDUP>
 80009e0:	f7ff fd0c 	bl	80003fc <CSTOR>
 80009e4:	f7ff fd7e 	bl	80004e4 <ONEP>
 80009e8:	f7ff fd2c 	bl	8000444 <SWAP>
 80009ec:	f7ff ffa2 	bl	8000934 <CMOVE>
 80009f0:	f7ff fd0c 	bl	800040c <RFROM>
 80009f4:	f852 fb04 	ldr.w	pc, [r2], #4

080009f8 <DIGIT>:
 80009f8:	f842 ed04 	str.w	lr, [r2, #-4]!
 80009fc:	f7ff fcc5 	bl	800038a <DOLIT>
 8000a00:	00000009 	andeq	r0, r0, r9
 8000a04:	f7ff fd22 	bl	800044c <OVER>
 8000a08:	f7ff fde2 	bl	80005d0 <LESS>
 8000a0c:	f005 0507 	and.w	r5, r5, #7
 8000a10:	f7ff fd4c 	bl	80004ac <PLUS>
 8000a14:	f105 0530 	add.w	r5, r5, #48	; 0x30
 8000a18:	f852 fb04 	ldr.w	pc, [r2], #4

08000a1c <EXTRC>:
 8000a1c:	f842 ed04 	str.w	lr, [r2, #-4]!
 8000a20:	f7ff fcb3 	bl	800038a <DOLIT>
 8000a24:	00000000 	andeq	r0, r0, r0
 8000a28:	f7ff fd0c 	bl	8000444 <SWAP>
 8000a2c:	f7ff fea0 	bl	8000770 <UMMOD>
 8000a30:	f7ff fd08 	bl	8000444 <SWAP>
 8000a34:	f7ff ffe0 	bl	80009f8 <DIGIT>
 8000a38:	f852 fb04 	ldr.w	pc, [r2], #4

08000a3c <BDIGS>:
 8000a3c:	f842 ed04 	str.w	lr, [r2, #-4]!
 8000a40:	f7ff ff62 	bl	8000908 <PAD>
 8000a44:	f7ff fe4c 	bl	80006e0 <HLD>
 8000a48:	f7ff fcd0 	bl	80003ec <STORE>
 8000a4c:	f852 fb04 	ldr.w	pc, [r2], #4

08000a50 <HOLD>:
 8000a50:	f842 ed04 	str.w	lr, [r2, #-4]!
 8000a54:	f7ff fe44 	bl	80006e0 <HLD>
 8000a58:	f7ff fcce 	bl	80003f8 <AT>
 8000a5c:	f7ff fd46 	bl	80004ec <ONEM>
 8000a60:	f7ff fcec 	bl	800043c <DUPP>
 8000a64:	f7ff fe3c 	bl	80006e0 <HLD>
 8000a68:	f7ff fcc0 	bl	80003ec <STORE>
 8000a6c:	f7ff fcc6 	bl	80003fc <CSTOR>
 8000a70:	f852 fb04 	ldr.w	pc, [r2], #4

08000a74 <DIG>:
 8000a74:	f842 ed04 	str.w	lr, [r2, #-4]!
 8000a78:	f7ff fe10 	bl	800069c <BASE>
 8000a7c:	f7ff fcbc 	bl	80003f8 <AT>
 8000a80:	f7ff ffcc 	bl	8000a1c <EXTRC>
 8000a84:	f7ff ffe4 	bl	8000a50 <HOLD>
 8000a88:	f852 fb04 	ldr.w	pc, [r2], #4

08000a8c <DIGS>:
 8000a8c:	f842 ed04 	str.w	lr, [r2, #-4]!

08000a90 <DIGS1>:
 8000a90:	f7ff fff0 	bl	8000a74 <DIG>
 8000a94:	f7ff fcd2 	bl	800043c <DUPP>
 8000a98:	f7ff fc94 	bl	80003c4 <QBRAN>
 8000a9c:	20000aa2 	andcs	r0, r0, r2, lsr #21
 8000aa0:	e7f6      	b.n	8000a90 <DIGS1>

08000aa2 <DIGS2>:
 8000aa2:	f852 fb04 	ldr.w	pc, [r2], #4
 8000aa6:	bf00      	nop

08000aa8 <SIGN>:
 8000aa8:	f842 ed04 	str.w	lr, [r2, #-4]!
 8000aac:	f7ff fcd2 	bl	8000454 <ZLESS>
 8000ab0:	f7ff fc88 	bl	80003c4 <QBRAN>
 8000ab4:	20000ac4 	andcs	r0, r0, r4, asr #21
 8000ab8:	f7ff fc67 	bl	800038a <DOLIT>
 8000abc:	0000002d 	andeq	r0, r0, sp, lsr #32
 8000ac0:	f7ff ffc6 	bl	8000a50 <HOLD>

08000ac4 <SIGN1>:
 8000ac4:	f852 fb04 	ldr.w	pc, [r2], #4

08000ac8 <EDIGS>:
 8000ac8:	f842 ed04 	str.w	lr, [r2, #-4]!
 8000acc:	f7ff fcb2 	bl	8000434 <DROP>
 8000ad0:	f7ff fe06 	bl	80006e0 <HLD>
 8000ad4:	f7ff fc90 	bl	80003f8 <AT>
 8000ad8:	f7ff ff16 	bl	8000908 <PAD>
 8000adc:	f7ff fcb6 	bl	800044c <OVER>
 8000ae0:	f7ff fce8 	bl	80004b4 <SUBB>
 8000ae4:	f852 fb04 	ldr.w	pc, [r2], #4

08000ae8 <STRR>:
 8000ae8:	f842 ed04 	str.w	lr, [r2, #-4]!
 8000aec:	f7ff fca6 	bl	800043c <DUPP>
 8000af0:	f7ff fc96 	bl	8000420 <TOR>
 8000af4:	f7ff fd4e 	bl	8000594 <ABSS>
 8000af8:	f7ff ffa0 	bl	8000a3c <BDIGS>
 8000afc:	f7ff ffc6 	bl	8000a8c <DIGS>
 8000b00:	f7ff fc84 	bl	800040c <RFROM>
 8000b04:	f7ff ffd0 	bl	8000aa8 <SIGN>
 8000b08:	f7ff ffde 	bl	8000ac8 <EDIGS>
 8000b0c:	f852 fb04 	ldr.w	pc, [r2], #4

08000b10 <HEX>:
 8000b10:	f842 ed04 	str.w	lr, [r2, #-4]!
 8000b14:	f7ff fc39 	bl	800038a <DOLIT>
 8000b18:	00000010 	andeq	r0, r0, r0, lsl r0
 8000b1c:	f7ff fdbe 	bl	800069c <BASE>
 8000b20:	f7ff fc64 	bl	80003ec <STORE>
 8000b24:	f852 fb04 	ldr.w	pc, [r2], #4

08000b28 <DECIM>:
 8000b28:	f842 ed04 	str.w	lr, [r2, #-4]!
 8000b2c:	f7ff fc2d 	bl	800038a <DOLIT>
 8000b30:	0000000a 	andeq	r0, r0, sl
 8000b34:	f7ff fdb2 	bl	800069c <BASE>
 8000b38:	f7ff fc58 	bl	80003ec <STORE>
 8000b3c:	f852 fb04 	ldr.w	pc, [r2], #4

08000b40 <DIGTQ>:
 8000b40:	f842 ed04 	str.w	lr, [r2, #-4]!
 8000b44:	f7ff fc6c 	bl	8000420 <TOR>
 8000b48:	f7ff fc1f 	bl	800038a <DOLIT>
 8000b4c:	00000030 	andeq	r0, r0, r0, lsr r0
 8000b50:	f7ff fcb0 	bl	80004b4 <SUBB>
 8000b54:	f7ff fc19 	bl	800038a <DOLIT>
 8000b58:	00000009 	andeq	r0, r0, r9
 8000b5c:	f7ff fc76 	bl	800044c <OVER>
 8000b60:	f7ff fd36 	bl	80005d0 <LESS>
 8000b64:	f7ff fc2e 	bl	80003c4 <QBRAN>
 8000b68:	20000b8c 	andcs	r0, r0, ip, lsl #23
 8000b6c:	f7ff fc0d 	bl	800038a <DOLIT>
 8000b70:	00000007 	andeq	r0, r0, r7
 8000b74:	f7ff fc9e 	bl	80004b4 <SUBB>
 8000b78:	f7ff fc60 	bl	800043c <DUPP>
 8000b7c:	f7ff fc05 	bl	800038a <DOLIT>
 8000b80:	0000000a 	andeq	r0, r0, sl
 8000b84:	f7ff fd24 	bl	80005d0 <LESS>
 8000b88:	f7ff fc70 	bl	800046c <ORR>

08000b8c <DGTQ1>:
 8000b8c:	f7ff fc56 	bl	800043c <DUPP>
 8000b90:	f7ff fc3c 	bl	800040c <RFROM>
 8000b94:	f7ff fd14 	bl	80005c0 <ULESS>
 8000b98:	f852 fb04 	ldr.w	pc, [r2], #4

08000b9c <NUMBQ>:
 8000b9c:	f842 ed04 	str.w	lr, [r2, #-4]!
 8000ba0:	f7ff fd7c 	bl	800069c <BASE>
 8000ba4:	f7ff fc28 	bl	80003f8 <AT>
 8000ba8:	f7ff fc3a 	bl	8000420 <TOR>
 8000bac:	f7ff fbed 	bl	800038a <DOLIT>
 8000bb0:	00000000 	andeq	r0, r0, r0
 8000bb4:	f7ff fc4a 	bl	800044c <OVER>
 8000bb8:	f7ff fd3e 	bl	8000638 <COUNT>
 8000bbc:	f7ff fc46 	bl	800044c <OVER>
 8000bc0:	f7ff fc22 	bl	8000408 <CAT>
 8000bc4:	f7ff fbe1 	bl	800038a <DOLIT>
 8000bc8:	00000024 	andeq	r0, r0, r4, lsr #32
 8000bcc:	f7ff fcf0 	bl	80005b0 <EQUAL>
 8000bd0:	f7ff fbf8 	bl	80003c4 <QBRAN>
 8000bd4:	20000bec 	andcs	r0, r0, ip, ror #23
 8000bd8:	f7ff ff9a 	bl	8000b10 <HEX>
 8000bdc:	f7ff fc32 	bl	8000444 <SWAP>
 8000be0:	f7ff fc80 	bl	80004e4 <ONEP>
 8000be4:	f7ff fc2e 	bl	8000444 <SWAP>
 8000be8:	f7ff fc80 	bl	80004ec <ONEM>

08000bec <NUMQ1>:
 8000bec:	f7ff fc2e 	bl	800044c <OVER>
 8000bf0:	f7ff fc0a 	bl	8000408 <CAT>
 8000bf4:	f7ff fbc9 	bl	800038a <DOLIT>
 8000bf8:	0000002d 	andeq	r0, r0, sp, lsr #32
 8000bfc:	f7ff fcd8 	bl	80005b0 <EQUAL>
 8000c00:	f7ff fc0e 	bl	8000420 <TOR>
 8000c04:	f7ff fc1e 	bl	8000444 <SWAP>
 8000c08:	f7ff fc06 	bl	8000418 <RAT>
 8000c0c:	f7ff fc52 	bl	80004b4 <SUBB>
 8000c10:	f7ff fc18 	bl	8000444 <SWAP>
 8000c14:	f7ff fc00 	bl	8000418 <RAT>
 8000c18:	f7ff fc48 	bl	80004ac <PLUS>
 8000c1c:	f7ff fc90 	bl	8000540 <QDUP>
 8000c20:	f7ff fbd0 	bl	80003c4 <QBRAN>
 8000c24:	20000cb0 			; <UNDEFINED> instruction: 0x20000cb0
 8000c28:	f7ff fc60 	bl	80004ec <ONEM>
 8000c2c:	f7ff fbf8 	bl	8000420 <TOR>

08000c30 <NUMQ2>:
 8000c30:	f7ff fc04 	bl	800043c <DUPP>
 8000c34:	f7ff fbf4 	bl	8000420 <TOR>
 8000c38:	f7ff fbe6 	bl	8000408 <CAT>
 8000c3c:	f7ff fd2e 	bl	800069c <BASE>
 8000c40:	f7ff fbda 	bl	80003f8 <AT>
 8000c44:	f7ff ff7c 	bl	8000b40 <DIGTQ>
 8000c48:	f7ff fbbc 	bl	80003c4 <QBRAN>
 8000c4c:	20000c94 	mulcs	r0, r4, ip
 8000c50:	f7ff fbf8 	bl	8000444 <SWAP>
 8000c54:	f7ff fd22 	bl	800069c <BASE>
 8000c58:	f7ff fbce 	bl	80003f8 <AT>
 8000c5c:	f7ff fc30 	bl	80004c0 <STAR>
 8000c60:	f7ff fc24 	bl	80004ac <PLUS>
 8000c64:	f7ff fbd2 	bl	800040c <RFROM>
 8000c68:	f7ff fc3c 	bl	80004e4 <ONEP>
 8000c6c:	f7ff fb9b 	bl	80003a6 <DONXT>
 8000c70:	20000c30 	andcs	r0, r0, r0, lsr ip
 8000c74:	f7ff fbd0 	bl	8000418 <RAT>
 8000c78:	f7ff fbe4 	bl	8000444 <SWAP>
 8000c7c:	f7ff fbda 	bl	8000434 <DROP>
 8000c80:	f7ff fba0 	bl	80003c4 <QBRAN>
 8000c84:	20000c8c 	andcs	r0, r0, ip, lsl #25
 8000c88:	f7ff fc80 	bl	800058c <NEGAT>

08000c8c <NUMQ3>:
 8000c8c:	f7ff fbda 	bl	8000444 <SWAP>
 8000c90:	f000 b80c 	b.w	8000cac <NUMQ5>

08000c94 <NUMQ4>:
 8000c94:	f7ff fbba 	bl	800040c <RFROM>
 8000c98:	f7ff fbb8 	bl	800040c <RFROM>
 8000c9c:	f7ff fc5c 	bl	8000558 <DDROP>
 8000ca0:	f7ff fc5a 	bl	8000558 <DDROP>
 8000ca4:	f7ff fb71 	bl	800038a <DOLIT>
 8000ca8:	00000000 	andeq	r0, r0, r0

08000cac <NUMQ5>:
 8000cac:	f7ff fbc6 	bl	800043c <DUPP>

08000cb0 <NUMQ6>:
 8000cb0:	f7ff fbac 	bl	800040c <RFROM>
 8000cb4:	f7ff fc50 	bl	8000558 <DDROP>
 8000cb8:	f7ff fba8 	bl	800040c <RFROM>
 8000cbc:	f7ff fcee 	bl	800069c <BASE>
 8000cc0:	f7ff fb94 	bl	80003ec <STORE>
 8000cc4:	f852 fb04 	ldr.w	pc, [r2], #4

08000cc8 <KEY>:
 8000cc8:	f842 ed04 	str.w	lr, [r2, #-4]!

08000ccc <KEY1>:
 8000ccc:	f7ff fb3a 	bl	8000344 <QKEY>
 8000cd0:	f7ff fb78 	bl	80003c4 <QBRAN>
 8000cd4:	20000ccc 	andcs	r0, r0, ip, asr #25
 8000cd8:	f852 fb04 	ldr.w	pc, [r2], #4

08000cdc <SPACE>:
 8000cdc:	f842 ed04 	str.w	lr, [r2, #-4]!
 8000ce0:	f7ff fc18 	bl	8000514 <BLANK>
 8000ce4:	f7ff fb44 	bl	8000370 <EMIT>
 8000ce8:	f852 fb04 	ldr.w	pc, [r2], #4

08000cec <SPACS>:
 8000cec:	f842 ed04 	str.w	lr, [r2, #-4]!
 8000cf0:	f7ff fb4b 	bl	800038a <DOLIT>
 8000cf4:	00000000 	andeq	r0, r0, r0
 8000cf8:	f7ff fc7a 	bl	80005f0 <MAX>
 8000cfc:	f7ff fb90 	bl	8000420 <TOR>
 8000d00:	f000 b802 	b.w	8000d08 <CHAR2>

08000d04 <CHAR1>:
 8000d04:	f7ff ffea 	bl	8000cdc <SPACE>

08000d08 <CHAR2>:
 8000d08:	f7ff fb4d 	bl	80003a6 <DONXT>
 8000d0c:	20000d04 	andcs	r0, r0, r4, lsl #26
 8000d10:	f852 fb04 	ldr.w	pc, [r2], #4

08000d14 <TYPEE>:
 8000d14:	f842 ed04 	str.w	lr, [r2, #-4]!
 8000d18:	f7ff fb82 	bl	8000420 <TOR>
 8000d1c:	f000 b806 	b.w	8000d2c <TYPE2>

08000d20 <TYPE1>:
 8000d20:	f7ff fc8a 	bl	8000638 <COUNT>
 8000d24:	f7ff fdae 	bl	8000884 <TCHAR>
 8000d28:	f7ff fb22 	bl	8000370 <EMIT>

08000d2c <TYPE2>:
 8000d2c:	f7ff fb3b 	bl	80003a6 <DONXT>
 8000d30:	20000d20 	andcs	r0, r0, r0, lsr #26
 8000d34:	f7ff fb7e 	bl	8000434 <DROP>
 8000d38:	f852 fb04 	ldr.w	pc, [r2], #4

08000d3c <CR>:
 8000d3c:	f842 ed04 	str.w	lr, [r2, #-4]!
 8000d40:	f7ff fb23 	bl	800038a <DOLIT>
 8000d44:	0000000d 	andeq	r0, r0, sp
 8000d48:	f7ff fb12 	bl	8000370 <EMIT>
 8000d4c:	f7ff fb1d 	bl	800038a <DOLIT>
 8000d50:	0000000a 	andeq	r0, r0, sl
 8000d54:	f7ff fb0c 	bl	8000370 <EMIT>
 8000d58:	f852 fb04 	ldr.w	pc, [r2], #4

08000d5c <DOSTR>:
 8000d5c:	f842 ed04 	str.w	lr, [r2, #-4]!
 8000d60:	f7ff fb54 	bl	800040c <RFROM>
 8000d64:	f7ff fb52 	bl	800040c <RFROM>
 8000d68:	f7ff fbc0 	bl	80004ec <ONEM>
 8000d6c:	f7ff fb66 	bl	800043c <DUPP>
 8000d70:	f7ff fc62 	bl	8000638 <COUNT>
 8000d74:	f7ff fb9a 	bl	80004ac <PLUS>
 8000d78:	f7ff fd7c 	bl	8000874 <ALGND>
 8000d7c:	f7ff fbb2 	bl	80004e4 <ONEP>
 8000d80:	f7ff fb4e 	bl	8000420 <TOR>
 8000d84:	f7ff fb5e 	bl	8000444 <SWAP>
 8000d88:	f7ff fb4a 	bl	8000420 <TOR>
 8000d8c:	f852 fb04 	ldr.w	pc, [r2], #4

08000d90 <STRQP>:
 8000d90:	f842 ed04 	str.w	lr, [r2, #-4]!
 8000d94:	f7ff ffe2 	bl	8000d5c <DOSTR>
 8000d98:	f852 fb04 	ldr.w	pc, [r2], #4

08000d9c <DOTST>:
 8000d9c:	f842 ed04 	str.w	lr, [r2, #-4]!
 8000da0:	f7ff fc4a 	bl	8000638 <COUNT>
 8000da4:	f7ff ffb6 	bl	8000d14 <TYPEE>
 8000da8:	f852 fb04 	ldr.w	pc, [r2], #4

08000dac <DOTQP>:
 8000dac:	f842 ed04 	str.w	lr, [r2, #-4]!
 8000db0:	f7ff ffd4 	bl	8000d5c <DOSTR>
 8000db4:	f7ff fff2 	bl	8000d9c <DOTST>
 8000db8:	f852 fb04 	ldr.w	pc, [r2], #4

08000dbc <DOTR>:
 8000dbc:	f842 ed04 	str.w	lr, [r2, #-4]!
 8000dc0:	f7ff fb2e 	bl	8000420 <TOR>
 8000dc4:	f7ff fe90 	bl	8000ae8 <STRR>
 8000dc8:	f7ff fb20 	bl	800040c <RFROM>
 8000dcc:	f7ff fb3e 	bl	800044c <OVER>
 8000dd0:	f7ff fb70 	bl	80004b4 <SUBB>
 8000dd4:	f7ff ff8a 	bl	8000cec <SPACS>
 8000dd8:	f7ff ff9c 	bl	8000d14 <TYPEE>
 8000ddc:	f852 fb04 	ldr.w	pc, [r2], #4

08000de0 <UDOTR>:
 8000de0:	f842 ed04 	str.w	lr, [r2, #-4]!
 8000de4:	f7ff fb1c 	bl	8000420 <TOR>
 8000de8:	f7ff fe28 	bl	8000a3c <BDIGS>
 8000dec:	f7ff fe4e 	bl	8000a8c <DIGS>
 8000df0:	f7ff fe6a 	bl	8000ac8 <EDIGS>
 8000df4:	f7ff fb0a 	bl	800040c <RFROM>
 8000df8:	f7ff fb28 	bl	800044c <OVER>
 8000dfc:	f7ff fb5a 	bl	80004b4 <SUBB>
 8000e00:	f7ff ff74 	bl	8000cec <SPACS>
 8000e04:	f7ff ff86 	bl	8000d14 <TYPEE>
 8000e08:	f852 fb04 	ldr.w	pc, [r2], #4

08000e0c <UDOT>:
 8000e0c:	f842 ed04 	str.w	lr, [r2, #-4]!
 8000e10:	f7ff fe14 	bl	8000a3c <BDIGS>
 8000e14:	f7ff fe3a 	bl	8000a8c <DIGS>
 8000e18:	f7ff fe56 	bl	8000ac8 <EDIGS>
 8000e1c:	f7ff ff5e 	bl	8000cdc <SPACE>
 8000e20:	f7ff ff78 	bl	8000d14 <TYPEE>
 8000e24:	f852 fb04 	ldr.w	pc, [r2], #4

08000e28 <HDOT>:
 8000e28:	f842 ed04 	str.w	lr, [r2, #-4]!
 8000e2c:	f7ff fc36 	bl	800069c <BASE>
 8000e30:	f7ff fae2 	bl	80003f8 <AT>
 8000e34:	f7ff faf4 	bl	8000420 <TOR>
 8000e38:	f7ff fe6a 	bl	8000b10 <HEX>
 8000e3c:	f7ff ffe6 	bl	8000e0c <UDOT>
 8000e40:	f7ff fae4 	bl	800040c <RFROM>
 8000e44:	f7ff fc2a 	bl	800069c <BASE>
 8000e48:	f7ff fad0 	bl	80003ec <STORE>
 8000e4c:	f852 fb04 	ldr.w	pc, [r2], #4

08000e50 <DOT>:
 8000e50:	f842 ed04 	str.w	lr, [r2, #-4]!
 8000e54:	f7ff fc22 	bl	800069c <BASE>
 8000e58:	f7ff face 	bl	80003f8 <AT>
 8000e5c:	f7ff fa95 	bl	800038a <DOLIT>
 8000e60:	0000000a 	andeq	r0, r0, sl
 8000e64:	f7ff fb08 	bl	8000478 <XORR>
 8000e68:	f7ff faac 	bl	80003c4 <QBRAN>
 8000e6c:	20000e78 	andcs	r0, r0, r8, ror lr
 8000e70:	f7ff ffcc 	bl	8000e0c <UDOT>
 8000e74:	f852 fb04 	ldr.w	pc, [r2], #4

08000e78 <DOT1>:
 8000e78:	f7ff fe36 	bl	8000ae8 <STRR>
 8000e7c:	f7ff ff2e 	bl	8000cdc <SPACE>
 8000e80:	f7ff ff48 	bl	8000d14 <TYPEE>
 8000e84:	f852 fb04 	ldr.w	pc, [r2], #4

08000e88 <QUEST>:
 8000e88:	f842 ed04 	str.w	lr, [r2, #-4]!
 8000e8c:	f7ff fab4 	bl	80003f8 <AT>
 8000e90:	f7ff ffde 	bl	8000e50 <DOT>
 8000e94:	f852 fb04 	ldr.w	pc, [r2], #4

08000e98 <PARS>:
 8000e98:	f842 ed04 	str.w	lr, [r2, #-4]!
 8000e9c:	f7ff fc03 	bl	80006a6 <TEMP>
 8000ea0:	f7ff faa4 	bl	80003ec <STORE>
 8000ea4:	f7ff fad2 	bl	800044c <OVER>
 8000ea8:	f7ff faba 	bl	8000420 <TOR>
 8000eac:	f7ff fac6 	bl	800043c <DUPP>
 8000eb0:	f7ff fa88 	bl	80003c4 <QBRAN>
 8000eb4:	20000fa6 	andcs	r0, r0, r6, lsr #31
 8000eb8:	f7ff fb18 	bl	80004ec <ONEM>
 8000ebc:	f7ff fbf3 	bl	80006a6 <TEMP>
 8000ec0:	f7ff fa9a 	bl	80003f8 <AT>
 8000ec4:	f7ff fb26 	bl	8000514 <BLANK>
 8000ec8:	f7ff fb72 	bl	80005b0 <EQUAL>
 8000ecc:	f7ff fa7a 	bl	80003c4 <QBRAN>
 8000ed0:	20000f20 	andcs	r0, r0, r0, lsr #30
 8000ed4:	f7ff faa4 	bl	8000420 <TOR>

08000ed8 <PARS1>:
 8000ed8:	f7ff fb1c 	bl	8000514 <BLANK>
 8000edc:	f7ff fab6 	bl	800044c <OVER>
 8000ee0:	f7ff fa92 	bl	8000408 <CAT>
 8000ee4:	f7ff fae6 	bl	80004b4 <SUBB>
 8000ee8:	f7ff fab4 	bl	8000454 <ZLESS>
 8000eec:	f7ff fb4a 	bl	8000584 <INVER>
 8000ef0:	f7ff fa68 	bl	80003c4 <QBRAN>
 8000ef4:	20000f1c 	andcs	r0, r0, ip, lsl pc
 8000ef8:	f7ff faf4 	bl	80004e4 <ONEP>
 8000efc:	f7ff fa53 	bl	80003a6 <DONXT>
 8000f00:	20000ed8 	ldrdcs	r0, [r0], -r8
 8000f04:	f7ff fa82 	bl	800040c <RFROM>
 8000f08:	f7ff fa94 	bl	8000434 <DROP>
 8000f0c:	f7ff fa3d 	bl	800038a <DOLIT>
 8000f10:	00000000 	andeq	r0, r0, r0
 8000f14:	f7ff fa92 	bl	800043c <DUPP>
 8000f18:	f852 fb04 	ldr.w	pc, [r2], #4

08000f1c <PARS2>:
 8000f1c:	f7ff fa76 	bl	800040c <RFROM>

08000f20 <PARS3>:
 8000f20:	f7ff fa94 	bl	800044c <OVER>
 8000f24:	f7ff fa8e 	bl	8000444 <SWAP>
 8000f28:	f7ff fa7a 	bl	8000420 <TOR>

08000f2c <PARS4>:
 8000f2c:	f7ff fbbb 	bl	80006a6 <TEMP>
 8000f30:	f7ff fa62 	bl	80003f8 <AT>
 8000f34:	f7ff fa8a 	bl	800044c <OVER>
 8000f38:	f7ff fa66 	bl	8000408 <CAT>
 8000f3c:	f7ff faba 	bl	80004b4 <SUBB>
 8000f40:	f7ff fbb1 	bl	80006a6 <TEMP>
 8000f44:	f7ff fa58 	bl	80003f8 <AT>
 8000f48:	f7ff fae4 	bl	8000514 <BLANK>
 8000f4c:	f7ff fb30 	bl	80005b0 <EQUAL>
 8000f50:	f7ff fa38 	bl	80003c4 <QBRAN>
 8000f54:	20000f5c 	andcs	r0, r0, ip, asr pc
 8000f58:	f7ff fa7c 	bl	8000454 <ZLESS>

08000f5c <PARS5>:
 8000f5c:	f7ff fa32 	bl	80003c4 <QBRAN>
 8000f60:	20000f7a 	andcs	r0, r0, sl, ror pc
 8000f64:	f7ff fabe 	bl	80004e4 <ONEP>
 8000f68:	f7ff fa1d 	bl	80003a6 <DONXT>
 8000f6c:	20000f2c 	andcs	r0, r0, ip, lsr #30
 8000f70:	f7ff fa64 	bl	800043c <DUPP>
 8000f74:	f7ff fa54 	bl	8000420 <TOR>
 8000f78:	e009      	b.n	8000f8e <PARS7>

08000f7a <PARS6>:
 8000f7a:	f7ff fa47 	bl	800040c <RFROM>
 8000f7e:	f7ff fa59 	bl	8000434 <DROP>
 8000f82:	f7ff fa5b 	bl	800043c <DUPP>
 8000f86:	f7ff faad 	bl	80004e4 <ONEP>
 8000f8a:	f7ff fa49 	bl	8000420 <TOR>

08000f8e <PARS7>:
 8000f8e:	f7ff fa5d 	bl	800044c <OVER>
 8000f92:	f7ff fa8f 	bl	80004b4 <SUBB>
 8000f96:	f7ff fa39 	bl	800040c <RFROM>
 8000f9a:	f7ff fa37 	bl	800040c <RFROM>
 8000f9e:	f7ff fa89 	bl	80004b4 <SUBB>
 8000fa2:	f852 fb04 	ldr.w	pc, [r2], #4

08000fa6 <PARS8>:
 8000fa6:	f7ff fa51 	bl	800044c <OVER>
 8000faa:	f7ff fa2f 	bl	800040c <RFROM>
 8000fae:	f7ff fa81 	bl	80004b4 <SUBB>
 8000fb2:	f852 fb04 	ldr.w	pc, [r2], #4
 8000fb6:	bf00      	nop

08000fb8 <PARSE>:
 8000fb8:	f842 ed04 	str.w	lr, [r2, #-4]!
 8000fbc:	f7ff fa30 	bl	8000420 <TOR>
 8000fc0:	f7ff fcaa 	bl	8000918 <TIB>
 8000fc4:	f7ff fb7a 	bl	80006bc <INN>
 8000fc8:	f7ff fa16 	bl	80003f8 <AT>
 8000fcc:	f7ff fa6e 	bl	80004ac <PLUS>
 8000fd0:	f7ff fb7a 	bl	80006c8 <NTIB>
 8000fd4:	f7ff fa10 	bl	80003f8 <AT>
 8000fd8:	f7ff fb70 	bl	80006bc <INN>
 8000fdc:	f7ff fa0c 	bl	80003f8 <AT>
 8000fe0:	f7ff fa68 	bl	80004b4 <SUBB>
 8000fe4:	f7ff fa12 	bl	800040c <RFROM>
 8000fe8:	f7ff ff56 	bl	8000e98 <PARS>
 8000fec:	f7ff fb66 	bl	80006bc <INN>
 8000ff0:	f7ff fb0a 	bl	8000608 <PSTOR>
 8000ff4:	f852 fb04 	ldr.w	pc, [r2], #4

08000ff8 <DOTPR>:
 8000ff8:	f842 ed04 	str.w	lr, [r2, #-4]!
 8000ffc:	f7ff f9c5 	bl	800038a <DOLIT>
 8001000:	00000029 	andeq	r0, r0, r9, lsr #32
 8001004:	f7ff ffd8 	bl	8000fb8 <PARSE>
 8001008:	f7ff fe84 	bl	8000d14 <TYPEE>
 800100c:	f852 fb04 	ldr.w	pc, [r2], #4

08001010 <PAREN>:
 8001010:	f842 ed04 	str.w	lr, [r2, #-4]!
 8001014:	f7ff f9b9 	bl	800038a <DOLIT>
 8001018:	00000029 	andeq	r0, r0, r9, lsr #32
 800101c:	f7ff ffcc 	bl	8000fb8 <PARSE>
 8001020:	f7ff fa9a 	bl	8000558 <DDROP>
 8001024:	f852 fb04 	ldr.w	pc, [r2], #4

08001028 <BKSLA>:
 8001028:	f842 ed04 	str.w	lr, [r2, #-4]!
 800102c:	f7ff fb4c 	bl	80006c8 <NTIB>
 8001030:	f7ff f9e2 	bl	80003f8 <AT>
 8001034:	f7ff fb42 	bl	80006bc <INN>
 8001038:	f7ff f9d8 	bl	80003ec <STORE>
 800103c:	f852 fb04 	ldr.w	pc, [r2], #4

08001040 <CAHR>:
 8001040:	f842 ed04 	str.w	lr, [r2, #-4]!
 8001044:	f7ff fa66 	bl	8000514 <BLANK>
 8001048:	f7ff ffb6 	bl	8000fb8 <PARSE>
 800104c:	f7ff f9f2 	bl	8000434 <DROP>
 8001050:	f7ff f9da 	bl	8000408 <CAT>
 8001054:	f852 fb04 	ldr.w	pc, [r2], #4

08001058 <WORDD>:
 8001058:	f842 ed04 	str.w	lr, [r2, #-4]!
 800105c:	f7ff ffac 	bl	8000fb8 <PARSE>
 8001060:	f7ff fc4a 	bl	80008f8 <HERE>
 8001064:	f7ff fa4e 	bl	8000504 <CELLP>
 8001068:	f7ff fc9a 	bl	80009a0 <PACKS>
 800106c:	f852 fb04 	ldr.w	pc, [r2], #4

08001070 <TOKEN>:
 8001070:	f842 ed04 	str.w	lr, [r2, #-4]!
 8001074:	f7ff fa4e 	bl	8000514 <BLANK>
 8001078:	f7ff ffee 	bl	8001058 <WORDD>
 800107c:	f852 fb04 	ldr.w	pc, [r2], #4

08001080 <TOCFA>:
 8001080:	f842 ed04 	str.w	lr, [r2, #-4]!
 8001084:	f7ff fad8 	bl	8000638 <COUNT>
 8001088:	f7ff f97f 	bl	800038a <DOLIT>
 800108c:	0000001f 	andeq	r0, r0, pc, lsl r0
 8001090:	f7ff f9e6 	bl	8000460 <ANDD>
 8001094:	f7ff fa0a 	bl	80004ac <PLUS>
 8001098:	f7ff fbec 	bl	8000874 <ALGND>
 800109c:	f852 fb04 	ldr.w	pc, [r2], #4

080010a0 <NAMET>:
 80010a0:	f842 ed04 	str.w	lr, [r2, #-4]!
 80010a4:	f7ff ffec 	bl	8001080 <TOCFA>
 80010a8:	f7ff f9a6 	bl	80003f8 <AT>
 80010ac:	f852 fb04 	ldr.w	pc, [r2], #4

080010b0 <SAMEQ>:
 80010b0:	f842 ed04 	str.w	lr, [r2, #-4]!
 80010b4:	f7ff f9b4 	bl	8000420 <TOR>
 80010b8:	f000 b81e 	b.w	80010f8 <SAME2>

080010bc <SAME1>:
 80010bc:	f7ff f9c6 	bl	800044c <OVER>
 80010c0:	f7ff f9aa 	bl	8000418 <RAT>
 80010c4:	f7ff f9f2 	bl	80004ac <PLUS>
 80010c8:	f7ff f99e 	bl	8000408 <CAT>
 80010cc:	f7ff f9be 	bl	800044c <OVER>
 80010d0:	f7ff f9a2 	bl	8000418 <RAT>
 80010d4:	f7ff f9ea 	bl	80004ac <PLUS>
 80010d8:	f7ff f996 	bl	8000408 <CAT>
 80010dc:	f7ff f9ea 	bl	80004b4 <SUBB>
 80010e0:	f7ff fa2e 	bl	8000540 <QDUP>
 80010e4:	f7ff f96e 	bl	80003c4 <QBRAN>
 80010e8:	200010f8 	strdcs	r1, [r0], -r8
 80010ec:	f7ff f98e 	bl	800040c <RFROM>
 80010f0:	f7ff f9a0 	bl	8000434 <DROP>
 80010f4:	f852 fb04 	ldr.w	pc, [r2], #4

080010f8 <SAME2>:
 80010f8:	f7ff f955 	bl	80003a6 <DONXT>
 80010fc:	200010bc 	strhcs	r1, [r0], -ip
 8001100:	f7ff f943 	bl	800038a <DOLIT>
 8001104:	00000000 	andeq	r0, r0, r0
 8001108:	f852 fb04 	ldr.w	pc, [r2], #4

0800110c <FIND>:
 800110c:	f842 ed04 	str.w	lr, [r2, #-4]!
 8001110:	f7ff f998 	bl	8000444 <SWAP>
 8001114:	f7ff fa90 	bl	8000638 <COUNT>
 8001118:	f7ff f990 	bl	800043c <DUPP>
 800111c:	f7ff fac3 	bl	80006a6 <TEMP>
 8001120:	f7ff f964 	bl	80003ec <STORE>
 8001124:	f7ff f97c 	bl	8000420 <TOR>
 8001128:	f7ff f98c 	bl	8000444 <SWAP>

0800112c <FIND1>:
 800112c:	f7ff f986 	bl	800043c <DUPP>
 8001130:	f7ff f948 	bl	80003c4 <QBRAN>
 8001134:	2000117c 	andcs	r1, r0, ip, ror r1
 8001138:	f7ff f980 	bl	800043c <DUPP>
 800113c:	f7ff f964 	bl	8000408 <CAT>
 8001140:	f7ff f923 	bl	800038a <DOLIT>
 8001144:	ffffff1f 			; <UNDEFINED> instruction: 0xffffff1f
 8001148:	f7ff f98a 	bl	8000460 <ANDD>
 800114c:	f7ff f964 	bl	8000418 <RAT>
 8001150:	f7ff f992 	bl	8000478 <XORR>
 8001154:	f7ff f936 	bl	80003c4 <QBRAN>
 8001158:	20001168 	andcs	r1, r0, r8, ror #2
 800115c:	f7ff f9d6 	bl	800050c <CELLM>
 8001160:	f7ff f94a 	bl	80003f8 <AT>
 8001164:	f7ff bfe2 	b.w	800112c <FIND1>

08001168 <FIND2>:
 8001168:	f7ff f9bc 	bl	80004e4 <ONEP>
 800116c:	f7ff fa9b 	bl	80006a6 <TEMP>
 8001170:	f7ff f942 	bl	80003f8 <AT>
 8001174:	f7ff ff9c 	bl	80010b0 <SAMEQ>

08001178 <FIND3>:
 8001178:	f000 b80c 	b.w	8001194 <FIND4>

0800117c <FIND6>:
 800117c:	f7ff f946 	bl	800040c <RFROM>
 8001180:	f7ff f958 	bl	8000434 <DROP>
 8001184:	f7ff f95e 	bl	8000444 <SWAP>
 8001188:	f7ff f9b0 	bl	80004ec <ONEM>
 800118c:	f7ff f95a 	bl	8000444 <SWAP>
 8001190:	f852 fb04 	ldr.w	pc, [r2], #4

08001194 <FIND4>:
 8001194:	f7ff f916 	bl	80003c4 <QBRAN>
 8001198:	200011ac 	andcs	r1, r0, ip, lsr #3
 800119c:	f7ff f9a6 	bl	80004ec <ONEM>
 80011a0:	f7ff f9b4 	bl	800050c <CELLM>
 80011a4:	f7ff f928 	bl	80003f8 <AT>
 80011a8:	f7ff bfc0 	b.w	800112c <FIND1>

080011ac <FIND5>:
 80011ac:	f7ff f92e 	bl	800040c <RFROM>
 80011b0:	f7ff f940 	bl	8000434 <DROP>
 80011b4:	f7ff f946 	bl	8000444 <SWAP>
 80011b8:	f7ff f93c 	bl	8000434 <DROP>
 80011bc:	f7ff f996 	bl	80004ec <ONEM>
 80011c0:	f7ff f93c 	bl	800043c <DUPP>
 80011c4:	f7ff ff6c 	bl	80010a0 <NAMET>
 80011c8:	f7ff f93c 	bl	8000444 <SWAP>
 80011cc:	f852 fb04 	ldr.w	pc, [r2], #4

080011d0 <NAMEQ>:
 80011d0:	f842 ed04 	str.w	lr, [r2, #-4]!
 80011d4:	f7ff fa8a 	bl	80006ec <CNTXT>
 80011d8:	f7ff f90e 	bl	80003f8 <AT>
 80011dc:	f7ff ff96 	bl	800110c <FIND>
 80011e0:	f852 fb04 	ldr.w	pc, [r2], #4

080011e4 <BKSP>:
 80011e4:	f842 ed04 	str.w	lr, [r2, #-4]!
 80011e8:	f7ff f91a 	bl	8000420 <TOR>
 80011ec:	f7ff f92e 	bl	800044c <OVER>
 80011f0:	f7ff f90c 	bl	800040c <RFROM>
 80011f4:	f7ff f926 	bl	8000444 <SWAP>
 80011f8:	f7ff f928 	bl	800044c <OVER>
 80011fc:	f7ff f93c 	bl	8000478 <XORR>
 8001200:	f7ff f8e0 	bl	80003c4 <QBRAN>
 8001204:	2000122c 	andcs	r1, r0, ip, lsr #4
 8001208:	f7ff f8bf 	bl	800038a <DOLIT>
 800120c:	00000008 	andeq	r0, r0, r8
 8001210:	f7ff f8ae 	bl	8000370 <EMIT>
 8001214:	f7ff f96a 	bl	80004ec <ONEM>
 8001218:	f7ff f97c 	bl	8000514 <BLANK>
 800121c:	f7ff f8a8 	bl	8000370 <EMIT>
 8001220:	f7ff f8b3 	bl	800038a <DOLIT>
 8001224:	00000008 	andeq	r0, r0, r8
 8001228:	f7ff f8a2 	bl	8000370 <EMIT>

0800122c <BACK1>:
 800122c:	f852 fb04 	ldr.w	pc, [r2], #4

08001230 <TAP>:
 8001230:	f842 ed04 	str.w	lr, [r2, #-4]!
 8001234:	f7ff f902 	bl	800043c <DUPP>
 8001238:	f7ff f89a 	bl	8000370 <EMIT>
 800123c:	f7ff f906 	bl	800044c <OVER>
 8001240:	f7ff f8dc 	bl	80003fc <CSTOR>
 8001244:	f7ff f94e 	bl	80004e4 <ONEP>
 8001248:	f852 fb04 	ldr.w	pc, [r2], #4

0800124c <KTAP>:
 800124c:	f842 ed04 	str.w	lr, [r2, #-4]!
 8001250:	f7ff f8f4 	bl	800043c <DUPP>
 8001254:	f7ff f899 	bl	800038a <DOLIT>
 8001258:	0000000d 	andeq	r0, r0, sp
 800125c:	f7ff f90c 	bl	8000478 <XORR>
 8001260:	f7ff f8b0 	bl	80003c4 <QBRAN>
 8001264:	20001294 	mulcs	r0, r4, r2
 8001268:	f7ff f88f 	bl	800038a <DOLIT>
 800126c:	00000008 	andeq	r0, r0, r8
 8001270:	f7ff f902 	bl	8000478 <XORR>
 8001274:	f7ff f8a6 	bl	80003c4 <QBRAN>
 8001278:	2000128c 	andcs	r1, r0, ip, lsl #5
 800127c:	f7ff f94a 	bl	8000514 <BLANK>
 8001280:	f7ff ffd6 	bl	8001230 <TAP>
 8001284:	f852 fb04 	ldr.w	pc, [r2], #4
 8001288:	00000000 	andeq	r0, r0, r0

0800128c <KTAP1>:
 800128c:	f7ff ffaa 	bl	80011e4 <BKSP>
 8001290:	f852 fb04 	ldr.w	pc, [r2], #4

08001294 <KTAP2>:
 8001294:	f7ff f8ce 	bl	8000434 <DROP>
 8001298:	f7ff f8d4 	bl	8000444 <SWAP>
 800129c:	f7ff f8ca 	bl	8000434 <DROP>
 80012a0:	f7ff f8cc 	bl	800043c <DUPP>
 80012a4:	f852 fb04 	ldr.w	pc, [r2], #4

080012a8 <ACCEP>:
 80012a8:	f842 ed04 	str.w	lr, [r2, #-4]!
 80012ac:	f7ff f8ce 	bl	800044c <OVER>
 80012b0:	f7ff f8fc 	bl	80004ac <PLUS>
 80012b4:	f7ff f8ca 	bl	800044c <OVER>

080012b8 <ACCP1>:
 80012b8:	f7ff f954 	bl	8000564 <DDUP>
 80012bc:	f7ff f8dc 	bl	8000478 <XORR>
 80012c0:	f7ff f880 	bl	80003c4 <QBRAN>
 80012c4:	200012f4 	strdcs	r1, [r0], -r4
 80012c8:	f7ff fcfe 	bl	8000cc8 <KEY>
 80012cc:	f7ff f8b6 	bl	800043c <DUPP>
 80012d0:	f7ff f920 	bl	8000514 <BLANK>
 80012d4:	f7ff f859 	bl	800038a <DOLIT>
 80012d8:	0000007f 	andeq	r0, r0, pc, ror r0
 80012dc:	f7ff fa38 	bl	8000750 <WITHI>
 80012e0:	f7ff f870 	bl	80003c4 <QBRAN>
 80012e4:	200012ee 	andcs	r1, r0, lr, ror #5
 80012e8:	f7ff ffa2 	bl	8001230 <TAP>
 80012ec:	e001      	b.n	80012f2 <ACCP3>

080012ee <ACCP2>:
 80012ee:	f7ff ffad 	bl	800124c <KTAP>

080012f2 <ACCP3>:
 80012f2:	e7e1      	b.n	80012b8 <ACCP1>

080012f4 <ACCP4>:
 80012f4:	f7ff f89e 	bl	8000434 <DROP>
 80012f8:	f7ff f8a8 	bl	800044c <OVER>
 80012fc:	f7ff f8da 	bl	80004b4 <SUBB>
 8001300:	f852 fb04 	ldr.w	pc, [r2], #4

08001304 <QUERY>:
 8001304:	f842 ed04 	str.w	lr, [r2, #-4]!
 8001308:	f7ff fb06 	bl	8000918 <TIB>
 800130c:	f7ff f83d 	bl	800038a <DOLIT>
 8001310:	00000050 	andeq	r0, r0, r0, asr r0
 8001314:	f7ff ffc8 	bl	80012a8 <ACCEP>
 8001318:	f7ff f9d6 	bl	80006c8 <NTIB>
 800131c:	f7ff f866 	bl	80003ec <STORE>
 8001320:	f7ff f888 	bl	8000434 <DROP>
 8001324:	f7ff f831 	bl	800038a <DOLIT>
 8001328:	00000000 	andeq	r0, r0, r0
 800132c:	f7ff f9c6 	bl	80006bc <INN>
 8001330:	f7ff f85c 	bl	80003ec <STORE>
 8001334:	f852 fb04 	ldr.w	pc, [r2], #4

08001338 <ABORT>:
 8001338:	f842 ed04 	str.w	lr, [r2, #-4]!
 800133c:	f7ff fcce 	bl	8000cdc <SPACE>

08001340 <ABORT1>:
 8001340:	f7ff f97a 	bl	8000638 <COUNT>
 8001344:	f7ff fce6 	bl	8000d14 <TYPEE>
 8001348:	f7ff f81f 	bl	800038a <DOLIT>
 800134c:	0000003f 	andeq	r0, r0, pc, lsr r0
 8001350:	f7ff f80e 	bl	8000370 <EMIT>
 8001354:	f7ff fcf2 	bl	8000d3c <CR>
 8001358:	f000 f88a 	bl	8001470 <PRESE>
 800135c:	f000 b892 	b.w	8001484 <QUIT>

08001360 <ABORQ>:
 8001360:	f842 ed04 	str.w	lr, [r2, #-4]!
 8001364:	f7ff fcfa 	bl	8000d5c <DOSTR>
 8001368:	f7ff f86c 	bl	8000444 <SWAP>
 800136c:	f7ff f82a 	bl	80003c4 <QBRAN>
 8001370:	20001376 	andcs	r1, r0, r6, ror r3
 8001374:	e7e4      	b.n	8001340 <ABORT1>
 8001376:	f7ff f85d 	bl	8000434 <DROP>
 800137a:	f852 fb04 	ldr.w	pc, [r2], #4
 800137e:	bf00      	nop

08001380 <INTER>:
 8001380:	f842 ed04 	str.w	lr, [r2, #-4]!
 8001384:	f7ff ff24 	bl	80011d0 <NAMEQ>
 8001388:	f7ff f8da 	bl	8000540 <QDUP>
 800138c:	f7ff f81a 	bl	80003c4 <QBRAN>
 8001390:	200013c0 	andcs	r1, r0, r0, asr #7
 8001394:	f7ff f830 	bl	80003f8 <AT>
 8001398:	f7fe fff7 	bl	800038a <DOLIT>
 800139c:	00000040 	andeq	r0, r0, r0, asr #32
 80013a0:	f7ff f85e 	bl	8000460 <ANDD>
 80013a4:	f7ff ffdc 	bl	8001360 <ABORQ>
 80013a8:	6f63200d 	svcvs	0x0063200d
 80013ac:	6c69706d 	stclvs	0, cr7, [r9], #-436	; 0xfffffe4c
 80013b0:	6e6f2065 	cdpvs	0, 6, cr2, cr15, cr5, {3}
 80013b4:	bf00796c 	svclt	0x0000796c
 80013b8:	f7fe fff0 	bl	800039c <EXECU>
 80013bc:	f852 fb04 	ldr.w	pc, [r2], #4

080013c0 <INTE1>:
 80013c0:	f7ff fbec 	bl	8000b9c <NUMBQ>
 80013c4:	f7fe fffe 	bl	80003c4 <QBRAN>
 80013c8:	200013d0 	ldrdcs	r1, [r0], -r0
 80013cc:	f852 fb04 	ldr.w	pc, [r2], #4

080013d0 <INTE2>:
 80013d0:	f7ff bfb2 	b.w	8001338 <ABORT>

080013d4 <LBRAC>:
 80013d4:	f842 ed04 	str.w	lr, [r2, #-4]!
 80013d8:	f7fe ffd7 	bl	800038a <DOLIT>
 80013dc:	20001380 	andcs	r1, r0, r0, lsl #7
 80013e0:	f7ff f978 	bl	80006d4 <TEVAL>
 80013e4:	f7ff f802 	bl	80003ec <STORE>
 80013e8:	f852 fb04 	ldr.w	pc, [r2], #4

080013ec <DOTOK>:
 80013ec:	f842 ed04 	str.w	lr, [r2, #-4]!
 80013f0:	f7fe ffcb 	bl	800038a <DOLIT>
 80013f4:	20001380 	andcs	r1, r0, r0, lsl #7
 80013f8:	f7ff f96c 	bl	80006d4 <TEVAL>
 80013fc:	f7fe fffc 	bl	80003f8 <AT>
 8001400:	f7ff f8d6 	bl	80005b0 <EQUAL>
 8001404:	f7fe ffde 	bl	80003c4 <QBRAN>
 8001408:	20001414 	andcs	r1, r0, r4, lsl r4
 800140c:	f7ff fcce 	bl	8000dac <DOTQP>
 8001410:	6b6f2003 	blvs	9bc9424 <OPTKEY1+0x1a369e9>

08001414 <DOTO1>:
 8001414:	f7ff fc92 	bl	8000d3c <CR>
 8001418:	f852 fb04 	ldr.w	pc, [r2], #4

0800141c <QSTAC>:
 800141c:	f842 ed04 	str.w	lr, [r2, #-4]!
 8001420:	f7ff fa50 	bl	80008c4 <DEPTH>
 8001424:	f7ff f816 	bl	8000454 <ZLESS>
 8001428:	f7ff ff9a 	bl	8001360 <ABORQ>
 800142c:	6e75200a 	cdpvs	0, 7, cr2, cr5, cr10, {0}
 8001430:	66726564 	ldrbtvs	r6, [r2], -r4, ror #10
 8001434:	00776f6c 	rsbseq	r6, r7, ip, ror #30
 8001438:	f852 fb04 	ldr.w	pc, [r2], #4

0800143c <EVAL>:
 800143c:	f842 ed04 	str.w	lr, [r2, #-4]!

08001440 <EVAL1>:
 8001440:	f7ff fe16 	bl	8001070 <TOKEN>
 8001444:	f7fe fffa 	bl	800043c <DUPP>
 8001448:	f7fe ffde 	bl	8000408 <CAT>
 800144c:	f7fe ffba 	bl	80003c4 <QBRAN>
 8001450:	20001464 	andcs	r1, r0, r4, ror #8
 8001454:	f7ff f93e 	bl	80006d4 <TEVAL>
 8001458:	f7ff fa62 	bl	8000920 <ATEXE>
 800145c:	f7ff ffde 	bl	800141c <QSTAC>
 8001460:	f7ff bfee 	b.w	8001440 <EVAL1>

08001464 <EVAL2>:
 8001464:	f7fe ffe6 	bl	8000434 <DROP>
 8001468:	f7ff ffc0 	bl	80013ec <DOTOK>
 800146c:	f852 fb04 	ldr.w	pc, [r2], #4

08001470 <PRESE>:
 8001470:	f842 ed04 	str.w	lr, [r2, #-4]!
 8001474:	f44f 417f 	mov.w	r1, #65280	; 0xff00
 8001478:	f2c2 0101 	movt	r1, #8193	; 0x2001
 800147c:	ea85 0505 	eor.w	r5, r5, r5
 8001480:	f852 fb04 	ldr.w	pc, [r2], #4

08001484 <QUIT>:
 8001484:	f842 ed04 	str.w	lr, [r2, #-4]!
 8001488:	f64f 7280 	movw	r2, #65408	; 0xff80
 800148c:	f2c2 0201 	movt	r2, #8193	; 0x2001

08001490 <QUIT1>:
 8001490:	f7ff ffa0 	bl	80013d4 <LBRAC>

08001494 <QUIT2>:
 8001494:	f7ff ff36 	bl	8001304 <QUERY>
 8001498:	f7ff ffd0 	bl	800143c <EVAL>
 800149c:	f7fe ff9e 	bl	80003dc <BRAN>
 80014a0:	20001494 	mulcs	r0, r4, r4

080014a4 <UNLOCK>:
 80014a4:	f842 ed04 	str.w	lr, [r2, #-4]!
 80014a8:	f7fe ff8c 	bl	80003c4 <QBRAN>
 80014ac:	200014cc 	andcs	r1, r0, ip, asr #9
 80014b0:	48d4      	ldr	r0, [pc, #848]	; (8001804 <flash_regs>)
 80014b2:	f04f 0434 	mov.w	r4, #52	; 0x34
 80014b6:	60c4      	str	r4, [r0, #12]
 80014b8:	6904      	ldr	r4, [r0, #16]
 80014ba:	f014 0f80 	tst.w	r4, #128	; 0x80
 80014be:	d003      	beq.n	80014c8 <UNLOCK+0x24>
 80014c0:	4cd1      	ldr	r4, [pc, #836]	; (8001808 <flash_regs+0x4>)
 80014c2:	6044      	str	r4, [r0, #4]
 80014c4:	4cd1      	ldr	r4, [pc, #836]	; (800180c <flash_regs+0x8>)
 80014c6:	6044      	str	r4, [r0, #4]
 80014c8:	f852 fb04 	ldr.w	pc, [r2], #4

080014cc <LOCK>:
 80014cc:	48cd      	ldr	r0, [pc, #820]	; (8001804 <flash_regs>)
 80014ce:	f04f 0480 	mov.w	r4, #128	; 0x80
 80014d2:	6104      	str	r4, [r0, #16]
 80014d4:	f852 fb04 	ldr.w	pc, [r2], #4

080014d8 <WAIT_BSY>:
 80014d8:	48ca      	ldr	r0, [pc, #808]	; (8001804 <flash_regs>)

080014da <WAIT1>:
 80014da:	68c4      	ldr	r4, [r0, #12]
 80014dc:	f014 0401 	ands.w	r4, r4, #1
 80014e0:	d1fb      	bne.n	80014da <WAIT1>
 80014e2:	4770      	bx	lr

080014e4 <EPAGE>:
 80014e4:	f842 ed04 	str.w	lr, [r2, #-4]!
 80014e8:	f7ff fff6 	bl	80014d8 <WAIT_BSY>
 80014ec:	f7fe ff4d 	bl	800038a <DOLIT>
 80014f0:	00000001 	andeq	r0, r0, r1
 80014f4:	f7ff ffd6 	bl	80014a4 <UNLOCK>
 80014f8:	48c2      	ldr	r0, [pc, #776]	; (8001804 <flash_regs>)
 80014fa:	f04f 0402 	mov.w	r4, #2
 80014fe:	6104      	str	r4, [r0, #16]
 8001500:	6904      	ldr	r4, [r0, #16]
 8001502:	f044 0440 	orr.w	r4, r4, #64	; 0x40
 8001506:	6104      	str	r4, [r0, #16]
 8001508:	f7ff ffe6 	bl	80014d8 <WAIT_BSY>
 800150c:	f7fe ff3d 	bl	800038a <DOLIT>
 8001510:	00000000 	andeq	r0, r0, r0
 8001514:	f7ff ffc6 	bl	80014a4 <UNLOCK>
 8001518:	68c5      	ldr	r5, [r0, #12]
 800151a:	f005 0514 	and.w	r5, r5, #20
 800151e:	f7ff ff1f 	bl	8001360 <ABORQ>
 8001522:	7265200d 	rsbvc	r2, r5, #13
 8001526:	20657361 	rsbcs	r7, r5, r1, ror #6
 800152a:	6f727265 	svcvs	0x00727265
 800152e:	f8522172 			; <UNDEFINED> instruction: 0xf8522172
 8001532:	fb04  			; <UNDEFINED> instruction: 0xfb04f842

08001534 <HWORD_WRITE>:
 8001534:	f842 ed04 	str.w	lr, [r2, #-4]!
 8001538:	6904      	ldr	r4, [r0, #16]
 800153a:	f04f 0401 	mov.w	r4, #1
 800153e:	6104      	str	r4, [r0, #16]
 8001540:	462e      	mov	r6, r5
 8001542:	f851 5b04 	ldr.w	r5, [r1], #4
 8001546:	8035      	strh	r5, [r6, #0]
 8001548:	f7ff ffc6 	bl	80014d8 <WAIT_BSY>
 800154c:	68c5      	ldr	r5, [r0, #12]
 800154e:	f005 0514 	and.w	r5, r5, #20
 8001552:	f7fe ff37 	bl	80003c4 <QBRAN>
 8001556:	2000156c 	andcs	r1, r0, ip, ror #10
 800155a:	f7ff ff01 	bl	8001360 <ABORQ>
 800155e:	7277200d 	rsbsvc	r2, r7, #13
 8001562:	20657469 	rsbcs	r7, r5, r9, ror #8
 8001566:	6f727265 	svcvs	0x00727265
 800156a:	f8522172 			; <UNDEFINED> instruction: 0xf8522172
 800156e:	fb04  			; <UNDEFINED> instruction: 0xfb04f842

08001570 <ISTOR>:
 8001570:	f842 ed04 	str.w	lr, [r2, #-4]!
 8001574:	f7ff ffb0 	bl	80014d8 <WAIT_BSY>
 8001578:	f7fe ff07 	bl	800038a <DOLIT>
 800157c:	00000001 	andeq	r0, r0, r1
 8001580:	f7ff ff90 	bl	80014a4 <UNLOCK>
 8001584:	f7fe ffee 	bl	8000564 <DDUP>
 8001588:	f7fe ff4a 	bl	8000420 <TOR>
 800158c:	f7fe ff48 	bl	8000420 <TOR>
 8001590:	f7ff ffd0 	bl	8001534 <HWORD_WRITE>
 8001594:	f7fe ff3a 	bl	800040c <RFROM>
 8001598:	ea4f 4535 	mov.w	r5, r5, ror #16
 800159c:	f7fe ff36 	bl	800040c <RFROM>
 80015a0:	f105 0502 	add.w	r5, r5, #2
 80015a4:	f7ff ffc6 	bl	8001534 <HWORD_WRITE>
 80015a8:	f7fe feef 	bl	800038a <DOLIT>
 80015ac:	00000000 	andeq	r0, r0, r0
 80015b0:	f7ff ff78 	bl	80014a4 <UNLOCK>
 80015b4:	f852 fb04 	ldr.w	pc, [r2], #4

080015b8 <IMG_SIZE>:
 80015b8:	f842 ed04 	str.w	lr, [r2, #-4]!
 80015bc:	f7fe fee5 	bl	800038a <DOLIT>
 80015c0:	00000038 	andeq	r0, r0, r8, lsr r0
 80015c4:	f7ff f8b0 	bl	8000728 <USER_END>
 80015c8:	f7ff f8a8 	bl	800071c <USER_BEGIN>
 80015cc:	f7fe ff72 	bl	80004b4 <SUBB>
 80015d0:	f7fe ff6c 	bl	80004ac <PLUS>
 80015d4:	f7fe fed9 	bl	800038a <DOLIT>
 80015d8:	00000400 	andeq	r0, r0, r0, lsl #8
 80015dc:	f7ff f916 	bl	800080c <SLMOD>
 80015e0:	f7fe ff30 	bl	8000444 <SWAP>
 80015e4:	f7fe feee 	bl	80003c4 <QBRAN>
 80015e8:	200015f0 	strdcs	r1, [r0], -r0
 80015ec:	f7fe ff7a 	bl	80004e4 <ONEP>
 80015f0:	f852 fb04 	ldr.w	pc, [r2], #4

080015f4 <IMGQ>:
 80015f4:	f842 ed04 	str.w	lr, [r2, #-4]!
 80015f8:	f7ff f89e 	bl	8000738 <IMG_ADR>
 80015fc:	f7fe fefc 	bl	80003f8 <AT>
 8001600:	f7ff f8a0 	bl	8000744 <IMG_SIGN>
 8001604:	f7fe fef8 	bl	80003f8 <AT>
 8001608:	f7fe ff36 	bl	8000478 <XORR>
 800160c:	f7fe ffc8 	bl	80005a0 <ZEQUAL>
 8001610:	f852 fb04 	ldr.w	pc, [r2], #4

08001614 <LOAD_IMG>:
 8001614:	f842 ed04 	str.w	lr, [r2, #-4]!
 8001618:	f7ff ffec 	bl	80015f4 <IMGQ>
 800161c:	f7fe fed2 	bl	80003c4 <QBRAN>
 8001620:	20001668 	andcs	r1, r0, r8, ror #12
 8001624:	f7ff f888 	bl	8000738 <IMG_ADR>
 8001628:	f7fe ff08 	bl	800043c <DUPP>
 800162c:	f7fe fef8 	bl	8000420 <TOR>
 8001630:	f7ff f888 	bl	8000744 <IMG_SIGN>
 8001634:	f841 5d04 	str.w	r5, [r1, #-4]!
 8001638:	f04f 0538 	mov.w	r5, #56	; 0x38
 800163c:	f7fe fefe 	bl	800043c <DUPP>
 8001640:	f7fe feee 	bl	8000420 <TOR>
 8001644:	f7ff f988 	bl	8000958 <MOVE>
 8001648:	f7fe fee0 	bl	800040c <RFROM>
 800164c:	f7fe fede 	bl	800040c <RFROM>
 8001650:	f7fe ff2c 	bl	80004ac <PLUS>
 8001654:	f7ff f862 	bl	800071c <USER_BEGIN>
 8001658:	f7ff f94e 	bl	80008f8 <HERE>
 800165c:	f7fe fef6 	bl	800044c <OVER>
 8001660:	f7fe ff28 	bl	80004b4 <SUBB>
 8001664:	f7ff f978 	bl	8000958 <MOVE>
 8001668:	f852 fb04 	ldr.w	pc, [r2], #4

0800166c <ERASE_MPG>:
 800166c:	f842 ed04 	str.w	lr, [r2, #-4]!
 8001670:	f7fe fed6 	bl	8000420 <TOR>
 8001674:	f000 f840 	bl	80016f8 <PG_TO_ADR>
 8001678:	f7fe feb0 	bl	80003dc <BRAN>
 800167c:	20001694 	mulcs	r0, r4, r6
 8001680:	f7fe fedc 	bl	800043c <DUPP>
 8001684:	f7fe fecc 	bl	8000420 <TOR>
 8001688:	f7ff ff2c 	bl	80014e4 <EPAGE>
 800168c:	f7fe febe 	bl	800040c <RFROM>
 8001690:	f505 4580 	add.w	r5, r5, #16384	; 0x4000
 8001694:	f7fe fe87 	bl	80003a6 <DONXT>
 8001698:	20001680 	andcs	r1, r0, r0, lsl #13
 800169c:	f851 5b04 	ldr.w	r5, [r1], #4
 80016a0:	f852 fb04 	ldr.w	pc, [r2], #4

080016a4 <FLSH_WR>:
 80016a4:	f842 ed04 	str.w	lr, [r2, #-4]!
 80016a8:	f7fe feba 	bl	8000420 <TOR>
 80016ac:	f7fe fe96 	bl	80003dc <BRAN>
 80016b0:	200016d4 	ldrdcs	r1, [r0], -r4
 80016b4:	f7fe feb4 	bl	8000420 <TOR>
 80016b8:	f7fe fec0 	bl	800043c <DUPP>
 80016bc:	f7fe fe9c 	bl	80003f8 <AT>
 80016c0:	f7fe feaa 	bl	8000418 <RAT>
 80016c4:	f7ff ff54 	bl	8001570 <ISTOR>
 80016c8:	f7fe ff1c 	bl	8000504 <CELLP>
 80016cc:	f7fe fe9e 	bl	800040c <RFROM>
 80016d0:	f7fe ff18 	bl	8000504 <CELLP>
 80016d4:	f7fe fe67 	bl	80003a6 <DONXT>
 80016d8:	200016b4 			; <UNDEFINED> instruction: 0x200016b4
 80016dc:	f7fe fea0 	bl	8000420 <TOR>
 80016e0:	f7fe fea8 	bl	8000434 <DROP>
 80016e4:	f7fe fe92 	bl	800040c <RFROM>
 80016e8:	f852 fb04 	ldr.w	pc, [r2], #4

080016ec <ADR_TO_PG>:
 80016ec:	ea4f 2595 	mov.w	r5, r5, lsr #10
 80016f0:	f005 057f 	and.w	r5, r5, #127	; 0x7f
 80016f4:	4770      	bx	lr
 80016f6:	bf00      	nop

080016f8 <PG_TO_ADR>:
 80016f8:	f2c0 0502 	movt	r5, #2
 80016fc:	ea4f 2585 	mov.w	r5, r5, lsl #10
 8001700:	4770      	bx	lr
 8001702:	bf00      	nop

08001704 <ERASE_IMG>:
 8001704:	f842 ed04 	str.w	lr, [r2, #-4]!
 8001708:	f7ff f816 	bl	8000738 <IMG_ADR>
 800170c:	f7ff ff54 	bl	80015b8 <IMG_SIZE>
 8001710:	f7fe fe86 	bl	8000420 <TOR>
 8001714:	f7fe fe62 	bl	80003dc <BRAN>
 8001718:	20001728 	andcs	r1, r0, r8, lsr #14
 800171c:	f7fe fe8e 	bl	800043c <DUPP>
 8001720:	f7ff fee0 	bl	80014e4 <EPAGE>
 8001724:	f505 4580 	add.w	r5, r5, #16384	; 0x4000
 8001728:	f7fe fe3d 	bl	80003a6 <DONXT>
 800172c:	2000171c 	andcs	r1, r0, ip, lsl r7
 8001730:	f7fe fe80 	bl	8000434 <DROP>
 8001734:	f852 fb04 	ldr.w	pc, [r2], #4

08001738 <SAVE_IMG>:
 8001738:	f842 ed04 	str.w	lr, [r2, #-4]!
 800173c:	f7ff f8dc 	bl	80008f8 <HERE>
 8001740:	f7fe ffec 	bl	800071c <USER_BEGIN>
 8001744:	f7fe ff34 	bl	80005b0 <EQUAL>
 8001748:	f7fe fe3c 	bl	80003c4 <QBRAN>
 800174c:	20001754 	andcs	r1, r0, r4, asr r7
 8001750:	f852 fb04 	ldr.w	pc, [r2], #4
 8001754:	f7ff ff4e 	bl	80015f4 <IMGQ>
 8001758:	f7fe fe34 	bl	80003c4 <QBRAN>
 800175c:	20001764 	andcs	r1, r0, r4, ror #14
 8001760:	f7ff ffd0 	bl	8001704 <ERASE_IMG>
 8001764:	f7fe ffee 	bl	8000744 <IMG_SIGN>
 8001768:	f7fe ffe6 	bl	8000738 <IMG_ADR>
 800176c:	f841 5d04 	str.w	r5, [r1, #-4]!
 8001770:	f04f 0538 	mov.w	r5, #56	; 0x38
 8001774:	f7fe fed8 	bl	8000528 <CELLSL>
 8001778:	f7ff ff94 	bl	80016a4 <FLSH_WR>
 800177c:	f7fe ffce 	bl	800071c <USER_BEGIN>
 8001780:	f7fe fe60 	bl	8000444 <SWAP>
 8001784:	f7ff f8b8 	bl	80008f8 <HERE>
 8001788:	f7fe ffc8 	bl	800071c <USER_BEGIN>
 800178c:	f7fe fe92 	bl	80004b4 <SUBB>
 8001790:	f7fe feca 	bl	8000528 <CELLSL>
 8001794:	f7ff ff86 	bl	80016a4 <FLSH_WR>
 8001798:	f852 fb04 	ldr.w	pc, [r2], #4

0800179c <TURNKEY>:
 800179c:	f842 ed04 	str.w	lr, [r2, #-4]!
 80017a0:	f000 f836 	bl	8001810 <TICK>
 80017a4:	f7fe ff74 	bl	8000690 <TBOOT>
 80017a8:	f7fe fe20 	bl	80003ec <STORE>
 80017ac:	f7ff ffc4 	bl	8001738 <SAVE_IMG>
 80017b0:	f852 fb04 	ldr.w	pc, [r2], #4

080017b4 <FORGET>:
 80017b4:	f842 ed04 	str.w	lr, [r2, #-4]!
 80017b8:	f7ff fc5a 	bl	8001070 <TOKEN>
 80017bc:	f7fe fe3e 	bl	800043c <DUPP>
 80017c0:	f7fe fe00 	bl	80003c4 <QBRAN>
 80017c4:	f7fe fde1 	bl	800038a <DOLIT>
 80017c8:	20001800 	andcs	r1, r0, r0, lsl #16
 80017cc:	f7ff fd00 	bl	80011d0 <NAMEQ>
 80017d0:	f7fe feb6 	bl	8000540 <QDUP>
 80017d4:	f7fe fdf6 	bl	80003c4 <QBRAN>
 80017d8:	200017fc 	strdcs	r1, [r0], -ip
 80017dc:	f7fe fe96 	bl	800050c <CELLM>
 80017e0:	f7fe fe2c 	bl	800043c <DUPP>
 80017e4:	f7fe ff88 	bl	80006f8 <CPP>
 80017e8:	f7fe fe00 	bl	80003ec <STORE>
 80017ec:	f7fe fe04 	bl	80003f8 <AT>
 80017f0:	f7fe ff8e 	bl	8000710 <LAST>
 80017f4:	f7fe fdfa 	bl	80003ec <STORE>
 80017f8:	f000 f9a0 	bl	8001b3c <OVERT>
 80017fc:	f7fe fe1a 	bl	8000434 <DROP>
 8001800:	f852 fb04 	ldr.w	pc, [r2], #4

08001804 <flash_regs>:
 8001804:	40023c00 	andmi	r3, r2, r0, lsl #24
 8001808:	45670123 	strbmi	r0, [r7, #-291]!	; 0xfffffedd
 800180c:	cdef89ab 			; <UNDEFINED> instruction: 0xcdef89ab

08001810 <TICK>:
 8001810:	f842 ed04 	str.w	lr, [r2, #-4]!
 8001814:	f7ff fc2c 	bl	8001070 <TOKEN>
 8001818:	f7ff fcda 	bl	80011d0 <NAMEQ>
 800181c:	f7fe fdd2 	bl	80003c4 <QBRAN>
 8001820:	20001828 	andcs	r1, r0, r8, lsr #16
 8001824:	f852 fb04 	ldr.w	pc, [r2], #4

08001828 <TICK1>:
 8001828:	f7ff bd86 	b.w	8001338 <ABORT>

0800182c <ALLOT>:
 800182c:	f842 ed04 	str.w	lr, [r2, #-4]!
 8001830:	f7fe ff62 	bl	80006f8 <CPP>
 8001834:	f7fe fee8 	bl	8000608 <PSTOR>
 8001838:	f852 fb04 	ldr.w	pc, [r2], #4

0800183c <COMMA>:
 800183c:	f842 ed04 	str.w	lr, [r2, #-4]!
 8001840:	f7ff f85a 	bl	80008f8 <HERE>
 8001844:	f7fe fdfa 	bl	800043c <DUPP>
 8001848:	f7fe fe5c 	bl	8000504 <CELLP>
 800184c:	f7fe ff54 	bl	80006f8 <CPP>
 8001850:	f7fe fdcc 	bl	80003ec <STORE>
 8001854:	f7fe fdca 	bl	80003ec <STORE>
 8001858:	f852 fb04 	ldr.w	pc, [r2], #4

0800185c <BCOMP>:
 800185c:	f842 ed04 	str.w	lr, [r2, #-4]!
 8001860:	f7ff ffd6 	bl	8001810 <TICK>
 8001864:	f7ff ffea 	bl	800183c <COMMA>
 8001868:	f852 fb04 	ldr.w	pc, [r2], #4

0800186c <COMPI>:
 800186c:	f842 ed04 	str.w	lr, [r2, #-4]!
 8001870:	f7fe fdcc 	bl	800040c <RFROM>
 8001874:	f025 0501 	bic.w	r5, r5, #1
 8001878:	f7fe fde0 	bl	800043c <DUPP>
 800187c:	f7fe fdbc 	bl	80003f8 <AT>
 8001880:	f000 f9a3 	bl	8001bca <CALLC>
 8001884:	f7fe fe3e 	bl	8000504 <CELLP>
 8001888:	f045 0501 	orr.w	r5, r5, #1
 800188c:	f7fe fdc8 	bl	8000420 <TOR>
 8001890:	f852 fb04 	ldr.w	pc, [r2], #4

08001894 <LITER>:
 8001894:	20003050 	andcs	r3, r0, r0, asr r0
 8001898:	f842 ed04 	str.w	lr, [r2, #-4]!
 800189c:	f7ff ffe6 	bl	800186c <COMPI>
 80018a0:	2000038a 	andcs	r0, r0, sl, lsl #7
 80018a4:	f7ff ffca 	bl	800183c <COMMA>
 80018a8:	f852 fb04 	ldr.w	pc, [r2], #4

080018ac <STRCQ>:
 80018ac:	f842 ed04 	str.w	lr, [r2, #-4]!
 80018b0:	f7fe fd6b 	bl	800038a <DOLIT>
 80018b4:	fffffffc 			; <UNDEFINED> instruction: 0xfffffffc
 80018b8:	f7fe ff1e 	bl	80006f8 <CPP>
 80018bc:	f7fe fea4 	bl	8000608 <PSTOR>
 80018c0:	f7fe fd63 	bl	800038a <DOLIT>
 80018c4:	00000022 	andeq	r0, r0, r2, lsr #32
 80018c8:	f7ff fbc6 	bl	8001058 <WORDD>
 80018cc:	f7fe feb4 	bl	8000638 <COUNT>
 80018d0:	f7fe fdec 	bl	80004ac <PLUS>
 80018d4:	f7fe ffce 	bl	8000874 <ALGND>
 80018d8:	f7fe ff0e 	bl	80006f8 <CPP>
 80018dc:	f7fe fd86 	bl	80003ec <STORE>
 80018e0:	f852 fb04 	ldr.w	pc, [r2], #4

080018e4 <FOR>:
 80018e4:	f842 ed04 	str.w	lr, [r2, #-4]!
 80018e8:	f7ff ffc0 	bl	800186c <COMPI>
 80018ec:	20000420 	andcs	r0, r0, r0, lsr #8
 80018f0:	f7ff f802 	bl	80008f8 <HERE>
 80018f4:	f852 fb04 	ldr.w	pc, [r2], #4

080018f8 <BEGIN>:
 80018f8:	f842 ed04 	str.w	lr, [r2, #-4]!
 80018fc:	f7fe fffc 	bl	80008f8 <HERE>
 8001900:	f852 fb04 	ldr.w	pc, [r2], #4

08001904 <NEXT>:
 8001904:	f842 ed04 	str.w	lr, [r2, #-4]!
 8001908:	f7ff ffb0 	bl	800186c <COMPI>
 800190c:	200003a6 	andcs	r0, r0, r6, lsr #7
 8001910:	f7ff ff94 	bl	800183c <COMMA>
 8001914:	f852 fb04 	ldr.w	pc, [r2], #4

08001918 <UNTIL>:
 8001918:	f842 ed04 	str.w	lr, [r2, #-4]!
 800191c:	f7ff ffa6 	bl	800186c <COMPI>
 8001920:	200003c4 	andcs	r0, r0, r4, asr #7
 8001924:	f7ff ff8a 	bl	800183c <COMMA>
 8001928:	f852 fb04 	ldr.w	pc, [r2], #4

0800192c <AGAIN>:
 800192c:	f842 ed04 	str.w	lr, [r2, #-4]!
 8001930:	f7ff ff9c 	bl	800186c <COMPI>
 8001934:	200003dc 	ldrdcs	r0, [r0], -ip
 8001938:	f7ff ff80 	bl	800183c <COMMA>
 800193c:	f852 fb04 	ldr.w	pc, [r2], #4

08001940 <IFF>:
 8001940:	f842 ed04 	str.w	lr, [r2, #-4]!
 8001944:	f7ff ff92 	bl	800186c <COMPI>
 8001948:	200003c4 	andcs	r0, r0, r4, asr #7
 800194c:	f7fe ffd4 	bl	80008f8 <HERE>
 8001950:	f7fe fd1b 	bl	800038a <DOLIT>
 8001954:	00000004 	andeq	r0, r0, r4
 8001958:	f7fe fece 	bl	80006f8 <CPP>
 800195c:	f7fe fe54 	bl	8000608 <PSTOR>
 8001960:	f852 fb04 	ldr.w	pc, [r2], #4

08001964 <AHEAD>:
 8001964:	f842 ed04 	str.w	lr, [r2, #-4]!
 8001968:	f7ff ff80 	bl	800186c <COMPI>
 800196c:	200003dc 	ldrdcs	r0, [r0], -ip
 8001970:	f7fe ffc2 	bl	80008f8 <HERE>
 8001974:	f7fe fd09 	bl	800038a <DOLIT>
 8001978:	00000004 	andeq	r0, r0, r4
 800197c:	f7fe febc 	bl	80006f8 <CPP>
 8001980:	f7fe fe42 	bl	8000608 <PSTOR>
 8001984:	f852 fb04 	ldr.w	pc, [r2], #4

08001988 <REPEA>:
 8001988:	f842 ed04 	str.w	lr, [r2, #-4]!
 800198c:	f7ff ffce 	bl	800192c <AGAIN>
 8001990:	f7fe ffb2 	bl	80008f8 <HERE>
 8001994:	f7fe fd56 	bl	8000444 <SWAP>
 8001998:	f7fe fd28 	bl	80003ec <STORE>
 800199c:	f852 fb04 	ldr.w	pc, [r2], #4

080019a0 <THENN>:
 80019a0:	f842 ed04 	str.w	lr, [r2, #-4]!
 80019a4:	f7fe ffa8 	bl	80008f8 <HERE>
 80019a8:	f7fe fd4c 	bl	8000444 <SWAP>
 80019ac:	f7fe fd1e 	bl	80003ec <STORE>
 80019b0:	f852 fb04 	ldr.w	pc, [r2], #4

080019b4 <AFT>:
 80019b4:	f842 ed04 	str.w	lr, [r2, #-4]!
 80019b8:	f7fe fd3c 	bl	8000434 <DROP>
 80019bc:	f7ff ffd2 	bl	8001964 <AHEAD>
 80019c0:	f7ff ff9a 	bl	80018f8 <BEGIN>
 80019c4:	f7fe fd3e 	bl	8000444 <SWAP>
 80019c8:	f852 fb04 	ldr.w	pc, [r2], #4

080019cc <ELSEE>:
 80019cc:	f842 ed04 	str.w	lr, [r2, #-4]!
 80019d0:	f7ff ffc8 	bl	8001964 <AHEAD>
 80019d4:	f7fe fd36 	bl	8000444 <SWAP>
 80019d8:	f7ff ffe2 	bl	80019a0 <THENN>
 80019dc:	f852 fb04 	ldr.w	pc, [r2], #4

080019e0 <WHILE>:
 80019e0:	f842 ed04 	str.w	lr, [r2, #-4]!
 80019e4:	f7ff ffac 	bl	8001940 <IFF>
 80019e8:	f7fe fd2c 	bl	8000444 <SWAP>
 80019ec:	f852 fb04 	ldr.w	pc, [r2], #4

080019f0 <ABRTQ>:
 80019f0:	f842 ed04 	str.w	lr, [r2, #-4]!
 80019f4:	f7ff ff3a 	bl	800186c <COMPI>
 80019f8:	20001360 	andcs	r1, r0, r0, ror #6
 80019fc:	f7ff ff56 	bl	80018ac <STRCQ>
 8001a00:	f852 fb04 	ldr.w	pc, [r2], #4

08001a04 <STRQ>:
 8001a04:	f842 ed04 	str.w	lr, [r2, #-4]!
 8001a08:	f7ff ff30 	bl	800186c <COMPI>
 8001a0c:	20000d90 	mulcs	r0, r0, sp
 8001a10:	f7ff ff4c 	bl	80018ac <STRCQ>
 8001a14:	f852 fb04 	ldr.w	pc, [r2], #4

08001a18 <DOTQ>:
 8001a18:	f842 ed04 	str.w	lr, [r2, #-4]!
 8001a1c:	f7ff ff26 	bl	800186c <COMPI>
 8001a20:	20000dac 	andcs	r0, r0, ip, lsr #27
 8001a24:	f7ff ff42 	bl	80018ac <STRCQ>
 8001a28:	f852 fb04 	ldr.w	pc, [r2], #4

08001a2c <UNIQU>:
 8001a2c:	f842 ed04 	str.w	lr, [r2, #-4]!
 8001a30:	f7fe fd04 	bl	800043c <DUPP>
 8001a34:	f7ff fbcc 	bl	80011d0 <NAMEQ>
 8001a38:	f7fe fcc4 	bl	80003c4 <QBRAN>
 8001a3c:	20001a58 	andcs	r1, r0, r8, asr sl
 8001a40:	f7ff f9b4 	bl	8000dac <DOTQP>
 8001a44:	65722007 	ldrbvs	r2, [r2, #-7]!
 8001a48:	20666544 	rsbcs	r6, r6, r4, asr #10
 8001a4c:	f7fe fcfe 	bl	800044c <OVER>
 8001a50:	f7fe fdf2 	bl	8000638 <COUNT>
 8001a54:	f7ff f95e 	bl	8000d14 <TYPEE>

08001a58 <UNIQ1>:
 8001a58:	f7fe fcec 	bl	8000434 <DROP>
 8001a5c:	f852 fb04 	ldr.w	pc, [r2], #4

08001a60 <SNAME>:
 8001a60:	f842 ed04 	str.w	lr, [r2, #-4]!
 8001a64:	f7fe fcea 	bl	800043c <DUPP>
 8001a68:	f7fe fcce 	bl	8000408 <CAT>
 8001a6c:	f7fe fcaa 	bl	80003c4 <QBRAN>
 8001a70:	20001aa8 	andcs	r1, r0, r8, lsr #21
 8001a74:	f7ff ffda 	bl	8001a2c <UNIQU>
 8001a78:	f7fe fe4a 	bl	8000710 <LAST>
 8001a7c:	f7fe fcbc 	bl	80003f8 <AT>
 8001a80:	f7ff fedc 	bl	800183c <COMMA>
 8001a84:	f7fe fcda 	bl	800043c <DUPP>
 8001a88:	f7fe fe42 	bl	8000710 <LAST>
 8001a8c:	f7fe fcae 	bl	80003ec <STORE>
 8001a90:	f7fe fdd2 	bl	8000638 <COUNT>
 8001a94:	f7fe fd0a 	bl	80004ac <PLUS>
 8001a98:	f7fe feec 	bl	8000874 <ALGND>
 8001a9c:	f7fe fe2c 	bl	80006f8 <CPP>
 8001aa0:	f7fe fca4 	bl	80003ec <STORE>
 8001aa4:	f852 fb04 	ldr.w	pc, [r2], #4

08001aa8 <SNAM1>:
 8001aa8:	f7ff f972 	bl	8000d90 <STRQP>
 8001aac:	616e2007 	cmnvs	lr, r7
 8001ab0:	203f656d 	eorscs	r6, pc, sp, ror #10
 8001ab4:	f7ff bc40 	b.w	8001338 <ABORT>

08001ab8 <SCOMP>:
 8001ab8:	f842 ed04 	str.w	lr, [r2, #-4]!
 8001abc:	f7ff fb88 	bl	80011d0 <NAMEQ>
 8001ac0:	f7fe fd3e 	bl	8000540 <QDUP>
 8001ac4:	f7fe fc7e 	bl	80003c4 <QBRAN>
 8001ac8:	20001af4 	strdcs	r1, [r0], -r4
 8001acc:	f7fe fc94 	bl	80003f8 <AT>
 8001ad0:	f7fe fc5b 	bl	800038a <DOLIT>
 8001ad4:	00000080 	andeq	r0, r0, r0, lsl #1
 8001ad8:	f7fe fcc2 	bl	8000460 <ANDD>
 8001adc:	f7fe fc72 	bl	80003c4 <QBRAN>
 8001ae0:	20001aec 	andcs	r1, r0, ip, ror #21
 8001ae4:	f7fe fc5a 	bl	800039c <EXECU>
 8001ae8:	f852 fb04 	ldr.w	pc, [r2], #4

08001aec <SCOM1>:
 8001aec:	f000 f86d 	bl	8001bca <CALLC>
 8001af0:	f852 fb04 	ldr.w	pc, [r2], #4

08001af4 <SCOM2>:
 8001af4:	f7ff f852 	bl	8000b9c <NUMBQ>
 8001af8:	f7fe fc64 	bl	80003c4 <QBRAN>
 8001afc:	20001b08 	andcs	r1, r0, r8, lsl #22
 8001b00:	f7ff fec8 	bl	8001894 <LITER>
 8001b04:	f852 fb04 	ldr.w	pc, [r2], #4

08001b08 <SCOM3>:
 8001b08:	f000 f802 	bl	8001b10 <COLON_ABORT>
 8001b0c:	f7ff bc14 	b.w	8001338 <ABORT>

08001b10 <COLON_ABORT>:
 8001b10:	f842 ed04 	str.w	lr, [r2, #-4]!
 8001b14:	f7fe fdfc 	bl	8000710 <LAST>
 8001b18:	f7fe fc6e 	bl	80003f8 <AT>
 8001b1c:	f7fe fcf6 	bl	800050c <CELLM>
 8001b20:	f7fe fc8c 	bl	800043c <DUPP>
 8001b24:	f7fe fde8 	bl	80006f8 <CPP>
 8001b28:	f7fe fc60 	bl	80003ec <STORE>
 8001b2c:	f7fe fc64 	bl	80003f8 <AT>
 8001b30:	f7fe fdee 	bl	8000710 <LAST>
 8001b34:	f7fe fc5a 	bl	80003ec <STORE>
 8001b38:	f852 fb04 	ldr.w	pc, [r2], #4

08001b3c <OVERT>:
 8001b3c:	f842 ed04 	str.w	lr, [r2, #-4]!
 8001b40:	f7fe fde6 	bl	8000710 <LAST>
 8001b44:	f7fe fc58 	bl	80003f8 <AT>
 8001b48:	f7fe fdd0 	bl	80006ec <CNTXT>
 8001b4c:	f7fe fc4e 	bl	80003ec <STORE>
 8001b50:	f852 fb04 	ldr.w	pc, [r2], #4

08001b54 <SEMIS>:
 8001b54:	f842 ed04 	str.w	lr, [r2, #-4]!
 8001b58:	f7fe fc17 	bl	800038a <DOLIT>
 8001b5c:	f852 fb04 	ldr.w	pc, [r2], #4
 8001b60:	f7ff fe6c 	bl	800183c <COMMA>
 8001b64:	f7ff fc36 	bl	80013d4 <LBRAC>
 8001b68:	f7ff ffe8 	bl	8001b3c <OVERT>
 8001b6c:	f852 fb04 	ldr.w	pc, [r2], #4

08001b70 <RBRAC>:
 8001b70:	f842 ed04 	str.w	lr, [r2, #-4]!
 8001b74:	f7fe fc09 	bl	800038a <DOLIT>
 8001b78:	20001ab8 			; <UNDEFINED> instruction: 0x20001ab8
 8001b7c:	f7fe fdaa 	bl	80006d4 <TEVAL>
 8001b80:	f7fe fc34 	bl	80003ec <STORE>
 8001b84:	f852 fb04 	ldr.w	pc, [r2], #4

08001b88 <COMPILE_BLW>:
 8001b88:	ea4f 0565 	mov.w	r5, r5, asr #1
 8001b8c:	f44f 4450 	mov.w	r4, #53248	; 0xd000
 8001b90:	f2cf 0400 	movt	r4, #61440	; 0xf000
 8001b94:	f365 040a 	bfi	r4, r5, #0, #11
 8001b98:	ea4f 25d5 	mov.w	r5, r5, lsr #11
 8001b9c:	f365 4419 	bfi	r4, r5, #16, #10
 8001ba0:	ea4f 25a5 	mov.w	r5, r5, asr #10
 8001ba4:	f365 24cb 	bfi	r4, r5, #11, #1
 8001ba8:	ea4f 0565 	mov.w	r5, r5, asr #1
 8001bac:	f365 344d 	bfi	r4, r5, #13, #1
 8001bb0:	ea4f 0565 	mov.w	r5, r5, asr #1
 8001bb4:	f365 649a 	bfi	r4, r5, #26, #1
 8001bb8:	f014 6f80 	tst.w	r4, #67108864	; 0x4000000
 8001bbc:	d102      	bne.n	8001bc4 <COMPILE_BLW+0x3c>
 8001bbe:	bf00      	nop
 8001bc0:	f484 5420 	eor.w	r4, r4, #10240	; 0x2800
 8001bc4:	ea4f 4534 	mov.w	r5, r4, ror #16
 8001bc8:	4770      	bx	lr

08001bca <CALLC>:
 8001bca:	f842 ed04 	str.w	lr, [r2, #-4]!
 8001bce:	f025 0501 	bic.w	r5, r5, #1
 8001bd2:	f7fe fe91 	bl	80008f8 <HERE>
 8001bd6:	f7fe fc6d 	bl	80004b4 <SUBB>
 8001bda:	f1a5 0504 	sub.w	r5, r5, #4
 8001bde:	f7ff ffd3 	bl	8001b88 <COMPILE_BLW>
 8001be2:	f7ff fe2b 	bl	800183c <COMMA>
 8001be6:	f852 fb04 	ldr.w	pc, [r2], #4
 8001bea:	bf00      	nop

08001bec <COLON>:
 8001bec:	f842 ed04 	str.w	lr, [r2, #-4]!
 8001bf0:	f000 f83a 	bl	8001c68 <HEAD>
 8001bf4:	f7ff ffbc 	bl	8001b70 <RBRAC>
 8001bf8:	f852 fb04 	ldr.w	pc, [r2], #4

08001bfc <IMMED>:
 8001bfc:	f842 ed04 	str.w	lr, [r2, #-4]!
 8001c00:	f7fe fbc3 	bl	800038a <DOLIT>
 8001c04:	00000080 	andeq	r0, r0, r0, lsl #1
 8001c08:	f7fe fd82 	bl	8000710 <LAST>
 8001c0c:	f7fe fbf4 	bl	80003f8 <AT>
 8001c10:	f7fe fbf2 	bl	80003f8 <AT>
 8001c14:	f7fe fc2a 	bl	800046c <ORR>
 8001c18:	f7fe fd7a 	bl	8000710 <LAST>
 8001c1c:	f7fe fbec 	bl	80003f8 <AT>
 8001c20:	f7fe fbe4 	bl	80003ec <STORE>
 8001c24:	f852 fb04 	ldr.w	pc, [r2], #4

08001c28 <ICOLON>:
 8001c28:	f842 ed04 	str.w	lr, [r2, #-4]!
 8001c2c:	f7fe fe64 	bl	80008f8 <HERE>
 8001c30:	f7fe fbab 	bl	800038a <DOLIT>
 8001c34:	f842 ed04 	str.w	lr, [r2, #-4]!
 8001c38:	f7ff fe00 	bl	800183c <COMMA>
 8001c3c:	f7ff ff98 	bl	8001b70 <RBRAC>
 8001c40:	f852 fb04 	ldr.w	pc, [r2], #4

08001c44 <ISEMIS>:
 8001c44:	f842 ed04 	str.w	lr, [r2, #-4]!
 8001c48:	f7fe fb9f 	bl	800038a <DOLIT>
 8001c4c:	f852 eb04 	ldr.w	lr, [r2], #4
 8001c50:	f7ff fdf4 	bl	800183c <COMMA>
 8001c54:	f7fe fb99 	bl	800038a <DOLIT>
 8001c58:	4770      	bx	lr
 8001c5a:	bf00      	nop
 8001c5c:	f7ff fdee 	bl	800183c <COMMA>
 8001c60:	f7ff fbb8 	bl	80013d4 <LBRAC>
 8001c64:	f852 fb04 	ldr.w	pc, [r2], #4

08001c68 <HEAD>:
 8001c68:	f842 ed04 	str.w	lr, [r2, #-4]!
 8001c6c:	f7ff fa00 	bl	8001070 <TOKEN>
 8001c70:	f7ff fef6 	bl	8001a60 <SNAME>
 8001c74:	f7fe fe40 	bl	80008f8 <HERE>
 8001c78:	f7fe fc44 	bl	8000504 <CELLP>
 8001c7c:	f7ff fdde 	bl	800183c <COMMA>
 8001c80:	f7fe fb83 	bl	800038a <DOLIT>
 8001c84:	f842 ed04 	str.w	lr, [r2, #-4]!
 8001c88:	f7ff fdd8 	bl	800183c <COMMA>
 8001c8c:	f852 fb04 	ldr.w	pc, [r2], #4

08001c90 <CONST>:
 8001c90:	f842 ed04 	str.w	lr, [r2, #-4]!
 8001c94:	f7ff ffe8 	bl	8001c68 <HEAD>
 8001c98:	f7fe fb77 	bl	800038a <DOLIT>
 8001c9c:	20000660 	andcs	r0, r0, r0, ror #12
 8001ca0:	f7ff ff93 	bl	8001bca <CALLC>
 8001ca4:	f7ff fdca 	bl	800183c <COMMA>
 8001ca8:	f7ff ff48 	bl	8001b3c <OVERT>
 8001cac:	f852 fb04 	ldr.w	pc, [r2], #4

08001cb0 <DODOES>:
 8001cb0:	f842 ed04 	str.w	lr, [r2, #-4]!
 8001cb4:	f7fe fd2c 	bl	8000710 <LAST>
 8001cb8:	f7fe fb9e 	bl	80003f8 <AT>
 8001cbc:	f7ff f9e0 	bl	8001080 <TOCFA>
 8001cc0:	f7fe fe1a 	bl	80008f8 <HERE>
 8001cc4:	f7fe fbc2 	bl	800044c <OVER>
 8001cc8:	f7fe fb90 	bl	80003ec <STORE>
 8001ccc:	f7fe fb5d 	bl	800038a <DOLIT>
 8001cd0:	f842 ed04 	str.w	lr, [r2, #-4]!
 8001cd4:	f7ff fdb2 	bl	800183c <COMMA>
 8001cd8:	f7fe fb57 	bl	800038a <DOLIT>
 8001cdc:	0000000c 	andeq	r0, r0, ip
 8001ce0:	f7fe fbe4 	bl	80004ac <PLUS>
 8001ce4:	f7ff fdd6 	bl	8001894 <LITER>
 8001ce8:	f7fe fb96 	bl	8000418 <RAT>
 8001cec:	f7fe fbfe 	bl	80004ec <ONEM>
 8001cf0:	f7fe fc08 	bl	8000504 <CELLP>
 8001cf4:	f7ff ff69 	bl	8001bca <CALLC>
 8001cf8:	f7fe fb47 	bl	800038a <DOLIT>
 8001cfc:	f852 fb04 	ldr.w	pc, [r2], #4
 8001d00:	f7ff fd9c 	bl	800183c <COMMA>
 8001d04:	f7ff ff1a 	bl	8001b3c <OVERT>
 8001d08:	f852 fb04 	ldr.w	pc, [r2], #4

08001d0c <DOES>:
 8001d0c:	f842 ed04 	str.w	lr, [r2, #-4]!
 8001d10:	f7fe fb3b 	bl	800038a <DOLIT>
 8001d14:	20001cb0 			; <UNDEFINED> instruction: 0x20001cb0
 8001d18:	f7ff ff57 	bl	8001bca <CALLC>
 8001d1c:	f7fe fb35 	bl	800038a <DOLIT>
 8001d20:	f852 fb04 	ldr.w	pc, [r2], #4
 8001d24:	f7ff fd8a 	bl	800183c <COMMA>
 8001d28:	f7fe fb2f 	bl	800038a <DOLIT>
 8001d2c:	f842 ed04 	str.w	lr, [r2, #-4]!
 8001d30:	f7ff fd84 	bl	800183c <COMMA>
 8001d34:	f852 fb04 	ldr.w	pc, [r2], #4

08001d38 <CREAT>:
 8001d38:	f842 ed04 	str.w	lr, [r2, #-4]!
 8001d3c:	f7ff ff94 	bl	8001c68 <HEAD>
 8001d40:	f7fe fb23 	bl	800038a <DOLIT>
 8001d44:	20000654 	andcs	r0, r0, r4, asr r6
 8001d48:	f7ff ff3f 	bl	8001bca <CALLC>
 8001d4c:	f852 fb04 	ldr.w	pc, [r2], #4

08001d50 <VARIA>:
 8001d50:	f842 ed04 	str.w	lr, [r2, #-4]!
 8001d54:	f7ff fff0 	bl	8001d38 <CREAT>
 8001d58:	f7fe fb17 	bl	800038a <DOLIT>
 8001d5c:	00000000 	andeq	r0, r0, r0
 8001d60:	f7ff fd6c 	bl	800183c <COMMA>
 8001d64:	f7ff feea 	bl	8001b3c <OVERT>
 8001d68:	f852 fb04 	ldr.w	pc, [r2], #4

08001d6c <FCALL>:
 8001d6c:	f842 ed04 	str.w	lr, [r2, #-4]!
 8001d70:	462c      	mov	r4, r5
 8001d72:	f851 5b04 	ldr.w	r5, [r1], #4
 8001d76:	f044 0401 	orr.w	r4, r4, #1
 8001d7a:	47a0      	blx	r4
 8001d7c:	f852 fb04 	ldr.w	pc, [r2], #4

08001d80 <DEFER>:
 8001d80:	f842 ed04 	str.w	lr, [r2, #-4]!
 8001d84:	f7ff ff70 	bl	8001c68 <HEAD>
 8001d88:	f7fe faff 	bl	800038a <DOLIT>
 8001d8c:	20000388 	andcs	r0, r0, r8, lsl #7
 8001d90:	f7ff ff1b 	bl	8001bca <CALLC>
 8001d94:	f7fe faf9 	bl	800038a <DOLIT>
 8001d98:	f852 fb04 	ldr.w	pc, [r2], #4
 8001d9c:	f7ff fd4e 	bl	800183c <COMMA>
 8001da0:	f7ff fecc 	bl	8001b3c <OVERT>
 8001da4:	f852 fb04 	ldr.w	pc, [r2], #4

08001da8 <DEFERSTO>:
 8001da8:	f842 ed04 	str.w	lr, [r2, #-4]!
 8001dac:	f025 0501 	bic.w	r5, r5, #1
 8001db0:	f7ff fd2e 	bl	8001810 <TICK>
 8001db4:	f7fe fba6 	bl	8000504 <CELLP>
 8001db8:	f7fe fb40 	bl	800043c <DUPP>
 8001dbc:	f7fe fb30 	bl	8000420 <TOR>
 8001dc0:	f7fe fb78 	bl	80004b4 <SUBB>
 8001dc4:	f1a5 0504 	sub.w	r5, r5, #4
 8001dc8:	f7ff fede 	bl	8001b88 <COMPILE_BLW>
 8001dcc:	f7fe fb1e 	bl	800040c <RFROM>
 8001dd0:	f7fe fb0c 	bl	80003ec <STORE>
 8001dd4:	f852 fb04 	ldr.w	pc, [r2], #4

08001dd8 <DEFERAT>:
 8001dd8:	f842 ed04 	str.w	lr, [r2, #-4]!
 8001ddc:	f7ff fd18 	bl	8001810 <TICK>
 8001de0:	f7fe fb90 	bl	8000504 <CELLP>
 8001de4:	f7fe fb2a 	bl	800043c <DUPP>
 8001de8:	f7fe fb1a 	bl	8000420 <TOR>
 8001dec:	f7fe fb04 	bl	80003f8 <AT>
 8001df0:	f7fe facb 	bl	800038a <DOLIT>
 8001df4:	080025dd 	stmdaeq	r0, {r0, r2, r3, r4, r6, r7, r8, sl, sp}
 8001df8:	f7ff ffb8 	bl	8001d6c <FCALL>
 8001dfc:	f7fe fac5 	bl	800038a <DOLIT>
 8001e00:	00000004 	andeq	r0, r0, r4
 8001e04:	f7fe fb52 	bl	80004ac <PLUS>
 8001e08:	f7fe fb00 	bl	800040c <RFROM>
 8001e0c:	f7fe fb4e 	bl	80004ac <PLUS>
 8001e10:	f852 fb04 	ldr.w	pc, [r2], #4

08001e14 <DUMP>:
 8001e14:	f7fe fab9 	bl	800038a <DOLIT>
 8001e18:	08002281 	stmdaeq	r0, {r0, r7, r9, sp}
 8001e1c:	462c      	mov	r4, r5
 8001e1e:	f851 5b04 	ldr.w	r5, [r1], #4
 8001e22:	47a0      	blx	r4
 8001e24:	4770      	bx	lr
 8001e26:	bf00      	nop

08001e28 <DOTS>:
 8001e28:	f7fe faaf 	bl	800038a <DOLIT>
 8001e2c:	080022ed 	stmdaeq	r0, {r0, r2, r3, r5, r6, r7, r9, sp}
 8001e30:	462c      	mov	r4, r5
 8001e32:	f851 5b04 	ldr.w	r5, [r1], #4
 8001e36:	47a0      	blx	r4
 8001e38:	4770      	bx	lr
 8001e3a:	bf00      	nop

08001e3c <TNAME>:
 8001e3c:	f7fe faa5 	bl	800038a <DOLIT>
 8001e40:	0800231d 	stmdaeq	r0, {r0, r2, r3, r4, r8, r9, sp}
 8001e44:	462c      	mov	r4, r5
 8001e46:	f851 5b04 	ldr.w	r5, [r1], #4
 8001e4a:	47a0      	blx	r4
 8001e4c:	4770      	bx	lr
 8001e4e:	bf00      	nop

08001e50 <DOTID>:
 8001e50:	f7fe fa9b 	bl	800038a <DOLIT>
 8001e54:	08002375 	stmdaeq	r0, {r0, r2, r4, r5, r6, r8, r9, sp}
 8001e58:	462c      	mov	r4, r5
 8001e5a:	f851 5b04 	ldr.w	r5, [r1], #4
 8001e5e:	47a0      	blx	r4
 8001e60:	4770      	bx	lr
 8001e62:	bf00      	nop

08001e64 <SEE>:
 8001e64:	f7fe fa91 	bl	800038a <DOLIT>
 8001e68:	0800253d 	stmdaeq	r0, {r0, r2, r3, r4, r5, r8, sl, sp}
 8001e6c:	462c      	mov	r4, r5
 8001e6e:	f851 5b04 	ldr.w	r5, [r1], #4
 8001e72:	47a0      	blx	r4
 8001e74:	4770      	bx	lr
 8001e76:	bf00      	nop

08001e78 <SCOL>:
 8001e78:	f7fe fa87 	bl	800038a <DOLIT>
 8001e7c:	08002571 	stmdaeq	r0, {r0, r4, r5, r6, r8, sl, sp}
 8001e80:	462c      	mov	r4, r5
 8001e82:	f851 5b04 	ldr.w	r5, [r1], #4
 8001e86:	47a0      	blx	r4
 8001e88:	4770      	bx	lr
 8001e8a:	bf00      	nop

08001e8c <DECOMP>:
 8001e8c:	f7fe fa7d 	bl	800038a <DOLIT>
 8001e90:	08002621 	stmdaeq	r0, {r0, r5, r9, sl, sp}
 8001e94:	462c      	mov	r4, r5
 8001e96:	f851 5b04 	ldr.w	r5, [r1], #4
 8001e9a:	47a0      	blx	r4
 8001e9c:	4770      	bx	lr
 8001e9e:	bf00      	nop

08001ea0 <WORDS>:
 8001ea0:	f7fe fa73 	bl	800038a <DOLIT>
 8001ea4:	080026a5 	stmdaeq	r0, {r0, r2, r5, r7, r9, sl, sp}
 8001ea8:	462c      	mov	r4, r5
 8001eaa:	f851 5b04 	ldr.w	r5, [r1], #4
 8001eae:	47a0      	blx	r4
 8001eb0:	4770      	bx	lr

08001eb2 <VERSN>:
 8001eb2:	f842 ed04 	str.w	lr, [r2, #-4]!
 8001eb6:	f7fe fa68 	bl	800038a <DOLIT>
 8001eba:	00000100 	andeq	r0, r0, r0, lsl #2
 8001ebe:	f852 fb04 	ldr.w	pc, [r2], #4
 8001ec2:	bf00      	nop

08001ec4 <HI>:
 8001ec4:	f842 ed04 	str.w	lr, [r2, #-4]!
 8001ec8:	f7fe ff38 	bl	8000d3c <CR>
 8001ecc:	f7fe fa5d 	bl	800038a <DOLIT>
 8001ed0:	080032fc 	stmdaeq	r0, {r2, r3, r4, r5, r6, r7, r9, ip, sp}
 8001ed4:	f7fe fbb0 	bl	8000638 <COUNT>
 8001ed8:	f7fe ff1c 	bl	8000d14 <TYPEE>
 8001edc:	f7fe fbde 	bl	800069c <BASE>
 8001ee0:	f7fe fa8a 	bl	80003f8 <AT>
 8001ee4:	f7fe fe14 	bl	8000b10 <HEX>
 8001ee8:	f7ff ffe3 	bl	8001eb2 <VERSN>
 8001eec:	f7fe fda6 	bl	8000a3c <BDIGS>
 8001ef0:	f7fe fdc0 	bl	8000a74 <DIG>
 8001ef4:	f7fe fdbe 	bl	8000a74 <DIG>
 8001ef8:	f7fe fa47 	bl	800038a <DOLIT>
 8001efc:	0000002e 	andeq	r0, r0, lr, lsr #32
 8001f00:	f7fe fda6 	bl	8000a50 <HOLD>
 8001f04:	f7fe fdc2 	bl	8000a8c <DIGS>
 8001f08:	f7fe fdde 	bl	8000ac8 <EDIGS>
 8001f0c:	f7fe ff02 	bl	8000d14 <TYPEE>
 8001f10:	f7fe fbc4 	bl	800069c <BASE>
 8001f14:	f7fe fa6a 	bl	80003ec <STORE>
 8001f18:	f7fe ff10 	bl	8000d3c <CR>
 8001f1c:	f852 fb04 	ldr.w	pc, [r2], #4

08001f20 <COLD>:
 8001f20:	f44f 7300 	mov.w	r3, #512	; 0x200
 8001f24:	f2c2 0300 	movt	r3, #8192	; 0x2000
 8001f28:	f44f 417f 	mov.w	r1, #65280	; 0xff00
 8001f2c:	f2c2 0101 	movt	r1, #8193	; 0x2001
 8001f30:	f64f 7280 	movw	r2, #65408	; 0xff80
 8001f34:	f2c2 0201 	movt	r2, #8193	; 0x2001
 8001f38:	ea85 0505 	eor.w	r5, r5, r5
 8001f3c:	f842 ed04 	str.w	lr, [r2, #-4]!

08001f40 <COLD1>:
 8001f40:	f7fe fa23 	bl	800038a <DOLIT>
 8001f44:	00000000 	andeq	r0, r0, r0
 8001f48:	f7fe f9ee 	bl	8000328 <ULED>
 8001f4c:	f7fe fa1d 	bl	800038a <DOLIT>
 8001f50:	08000200 	stmdaeq	r0, {r9}
 8001f54:	f7fe fa19 	bl	800038a <DOLIT>
 8001f58:	20000200 	andcs	r0, r0, r0, lsl #4
 8001f5c:	f7fe fa15 	bl	800038a <DOLIT>
 8001f60:	00000054 	andeq	r0, r0, r4, asr r0
 8001f64:	f7fe fcf8 	bl	8000958 <MOVE>
 8001f68:	f7ff fa82 	bl	8001470 <PRESE>
 8001f6c:	f7fe fb90 	bl	8000690 <TBOOT>
 8001f70:	f7fe fcd6 	bl	8000920 <ATEXE>
 8001f74:	f7ff fde2 	bl	8001b3c <OVERT>
 8001f78:	f7ff ba84 	b.w	8001484 <QUIT>

08001f7c <COLD2>:
 8001f7c:	ffffffff 			; <UNDEFINED> instruction: 0xffffffff

Disassembly of section .inflash:

08001f80 <default_handler>:
 8001f80:	4d01      	ldr	r5, [pc, #4]	; (8001f88 <exception_msg>)
 8001f82:	f000 f84f 	bl	8002024 <uart_puts>
 8001f86:	e039      	b.n	8001ffc <reset_mcu>

08001f88 <exception_msg>:
 8001f88:	08001f8c 	stmdaeq	r0, {r2, r3, r7, r8, r9, sl, fp, ip}
 8001f8c:	650d0a12 	strvs	r0, [sp, #-2578]	; 0xfffff5ee
 8001f90:	74706578 	ldrbtvc	r6, [r0], #-1400	; 0xfffffa88
 8001f94:	206e6f69 	rsbcs	r6, lr, r9, ror #30
 8001f98:	6f626572 	svcvs	0x00626572
 8001f9c:	0021746f 	eoreq	r7, r1, pc, ror #8

08001fa0 <systick_handler>:
 8001fa0:	f44f 7300 	mov.w	r3, #512	; 0x200
 8001fa4:	f2c2 0300 	movt	r3, #8192	; 0x2000
 8001fa8:	6898      	ldr	r0, [r3, #8]
 8001faa:	f100 0001 	add.w	r0, r0, #1
 8001fae:	6098      	str	r0, [r3, #8]
 8001fb0:	68d8      	ldr	r0, [r3, #12]
 8001fb2:	b110      	cbz	r0, 8001fba <systick_exit>
 8001fb4:	f1a0 0001 	sub.w	r0, r0, #1
 8001fb8:	60d8      	str	r0, [r3, #12]

08001fba <systick_exit>:
 8001fba:	4770      	bx	lr

08001fbc <uart_rx_handler>:
 8001fbc:	e92d 02d0 	stmdb	sp!, {r4, r6, r7, r9}
 8001fc0:	f44f 5480 	mov.w	r4, #4096	; 0x1000
 8001fc4:	f2c4 0401 	movt	r4, #16385	; 0x4001
 8001fc8:	6826      	ldr	r6, [r4, #0]
 8001fca:	f8d4 9004 	ldr.w	r9, [r4, #4]
 8001fce:	f016 0f20 	tst.w	r6, #32
 8001fd2:	d00d      	beq.n	8001ff0 <uart_rx_handler+0x34>
 8001fd4:	f1b9 0f03 	cmp.w	r9, #3
 8001fd8:	d00d      	beq.n	8001ff6 <user_reboot>
 8001fda:	f103 0750 	add.w	r7, r3, #80	; 0x50
 8001fde:	6e5c      	ldr	r4, [r3, #100]	; 0x64
 8001fe0:	4427      	add	r7, r4
 8001fe2:	f887 9000 	strb.w	r9, [r7]
 8001fe6:	f104 0401 	add.w	r4, r4, #1
 8001fea:	f004 040f 	and.w	r4, r4, #15
 8001fee:	665c      	str	r4, [r3, #100]	; 0x64
 8001ff0:	e8bd 02d0 	ldmia.w	sp!, {r4, r6, r7, r9}
 8001ff4:	4770      	bx	lr

08001ff6 <user_reboot>:
 8001ff6:	4d06      	ldr	r5, [pc, #24]	; (8002010 <user_reboot_msg>)
 8001ff8:	f000 f814 	bl	8002024 <uart_puts>

08001ffc <reset_mcu>:
 8001ffc:	4803      	ldr	r0, [pc, #12]	; (800200c <scb_adr>)
 8001ffe:	68c1      	ldr	r1, [r0, #12]
 8002000:	f041 0104 	orr.w	r1, r1, #4
 8002004:	f2c0 51fa 	movt	r1, #1530	; 0x5fa
 8002008:	60c1      	str	r1, [r0, #12]
 800200a:	e7fe      	b.n	800200a <reset_mcu+0xe>

0800200c <scb_adr>:
 800200c:	e000ed00 	and	lr, r0, r0, lsl #26

08002010 <user_reboot_msg>:
 8002010:	08002014 	stmdaeq	r0, {r2, r4, sp}
 8002014:	73750d0d 	cmnvc	r5, #832	; 0x340
 8002018:	72207265 	eorvc	r7, r0, #1342177286	; 0x50000006
 800201c:	6f6f6265 	svcvs	0x006f6265
 8002020:	bf002174 	svclt	0x00002174

08002024 <uart_puts>:
 8002024:	f44f 5080 	mov.w	r0, #4096	; 0x1000
 8002028:	f2c4 0001 	movt	r0, #16385	; 0x4001
 800202c:	f815 1b01 	ldrb.w	r1, [r5], #1
 8002030:	4009      	ands	r1, r1
 8002032:	d00c      	beq.n	800204e <uart_puts+0x2a>
 8002034:	6802      	ldr	r2, [r0, #0]
 8002036:	f012 0280 	ands.w	r2, r2, #128	; 0x80
 800203a:	d0fb      	beq.n	8002034 <uart_puts+0x10>
 800203c:	f815 2b01 	ldrb.w	r2, [r5], #1
 8002040:	7102      	strb	r2, [r0, #4]
 8002042:	3901      	subs	r1, #1
 8002044:	d1f6      	bne.n	8002034 <uart_puts+0x10>
 8002046:	6802      	ldr	r2, [r0, #0]
 8002048:	f012 0240 	ands.w	r2, r2, #64	; 0x40
 800204c:	d0fb      	beq.n	8002046 <uart_puts+0x22>
 800204e:	4770      	bx	lr

08002050 <reset_handler>:
 8002050:	f04f 0000 	mov.w	r0, #0
 8002054:	f2c2 0002 	movt	r0, #8194	; 0x2002
 8002058:	4685      	mov	sp, r0
 800205a:	f000 f8bb 	bl	80021d4 <remap>
 800205e:	f000 f83f 	bl	80020e0 <init_devices>
 8002062:	f000 f891 	bl	8002188 <uart_init>
 8002066:	f000 f807 	bl	8002078 <forth_init>
 800206a:	4802      	ldr	r0, [pc, #8]	; (8002074 <forth_entry>)
 800206c:	f040 0001 	orr.w	r0, r0, #1
 8002070:	4700      	bx	r0
 8002072:	bf00      	nop

08002074 <forth_entry>:
 8002074:	20001f20 	andcs	r1, r0, r0, lsr #30

08002078 <forth_init>:
 8002078:	f44f 7300 	mov.w	r3, #512	; 0x200
 800207c:	f2c2 0300 	movt	r3, #8192	; 0x2000
 8002080:	f44f 417f 	mov.w	r1, #65280	; 0xff00
 8002084:	f2c2 0101 	movt	r1, #8193	; 0x2001
 8002088:	f64f 7280 	movw	r2, #65408	; 0xff80
 800208c:	f2c2 0201 	movt	r2, #8193	; 0x2001
 8002090:	ea85 0505 	eor.w	r5, r5, r5
 8002094:	4770      	bx	lr

08002096 <echo>:
 8002096:	f7fe fe17 	bl	8000cc8 <KEY>
 800209a:	f7fe f969 	bl	8000370 <EMIT>
 800209e:	e7fa      	b.n	8002096 <echo>

080020a0 <blink>:
 80020a0:	f44f 6000 	mov.w	r0, #2048	; 0x800
 80020a4:	f2c4 0002 	movt	r0, #16386	; 0x4002
 80020a8:	f44f 5400 	mov.w	r4, #8192	; 0x2000
 80020ac:	6184      	str	r4, [r0, #24]
 80020ae:	f44f 74fa 	mov.w	r4, #500	; 0x1f4
 80020b2:	60dc      	str	r4, [r3, #12]
 80020b4:	b500      	push	{lr}
 80020b6:	f000 f80e 	bl	80020d6 <timeout>
 80020ba:	f85d eb04 	ldr.w	lr, [sp], #4
 80020be:	f04f 5400 	mov.w	r4, #536870912	; 0x20000000
 80020c2:	6184      	str	r4, [r0, #24]
 80020c4:	f44f 74fa 	mov.w	r4, #500	; 0x1f4
 80020c8:	60dc      	str	r4, [r3, #12]
 80020ca:	b500      	push	{lr}
 80020cc:	f000 f803 	bl	80020d6 <timeout>
 80020d0:	f85d eb04 	ldr.w	lr, [sp], #4
 80020d4:	e7e8      	b.n	80020a8 <blink+0x8>

080020d6 <timeout>:
 80020d6:	68dc      	ldr	r4, [r3, #12]
 80020d8:	4324      	orrs	r4, r4
 80020da:	d1fc      	bne.n	80020d6 <timeout>
 80020dc:	4770      	bx	lr
 80020de:	bf00      	nop

080020e0 <init_devices>:
 80020e0:	f44f 5070 	mov.w	r0, #15360	; 0x3c00
 80020e4:	f2c4 0002 	movt	r0, #16386	; 0x4002
 80020e8:	f04f 0103 	mov.w	r1, #3
 80020ec:	6001      	str	r1, [r0, #0]
 80020ee:	f44f 5060 	mov.w	r0, #14336	; 0x3800
 80020f2:	f2c4 0002 	movt	r0, #16386	; 0x4002
 80020f6:	6801      	ldr	r1, [r0, #0]
 80020f8:	f441 3180 	orr.w	r1, r1, #65536	; 0x10000
 80020fc:	6001      	str	r1, [r0, #0]

080020fe <wait_hserdy>:
 80020fe:	6801      	ldr	r1, [r0, #0]
 8002100:	f411 3f00 	tst.w	r1, #131072	; 0x20000
 8002104:	d0fb      	beq.n	80020fe <wait_hserdy>
 8002106:	f44f 5060 	mov.w	r0, #14336	; 0x3800
 800210a:	f2c4 0002 	movt	r0, #16386	; 0x4002
 800210e:	f246 0132 	movw	r1, #24626	; 0x6032
 8002112:	f2c0 4140 	movt	r1, #1088	; 0x440
 8002116:	6041      	str	r1, [r0, #4]
 8002118:	6801      	ldr	r1, [r0, #0]
 800211a:	f041 7180 	orr.w	r1, r1, #16777216	; 0x1000000
 800211e:	6001      	str	r1, [r0, #0]

08002120 <wait_pllrdy>:
 8002120:	6801      	ldr	r1, [r0, #0]
 8002122:	f011 7f00 	tst.w	r1, #33554432	; 0x2000000
 8002126:	d1fb      	bne.n	8002120 <wait_pllrdy>
 8002128:	f44f 5180 	mov.w	r1, #4096	; 0x1000
 800212c:	f2c0 0119 	movt	r1, #25
 8002130:	6081      	str	r1, [r0, #8]
 8002132:	6881      	ldr	r1, [r0, #8]
 8002134:	f041 0102 	orr.w	r1, r1, #2
 8002138:	6081      	str	r1, [r0, #8]

0800213a <wait_sws>:
 800213a:	6881      	ldr	r1, [r0, #8]
 800213c:	f011 0f08 	tst.w	r1, #8
 8002140:	d0fb      	beq.n	800213a <wait_sws>
 8002142:	f04f 0105 	mov.w	r1, #5
 8002146:	6301      	str	r1, [r0, #48]	; 0x30
 8002148:	f04f 0110 	mov.w	r1, #16
 800214c:	6441      	str	r1, [r0, #68]	; 0x44
 800214e:	f44f 6000 	mov.w	r0, #2048	; 0x800
 8002152:	f2c4 0002 	movt	r0, #16386	; 0x4002
 8002156:	6801      	ldr	r1, [r0, #0]
 8002158:	f06f 6240 	mvn.w	r2, #201326592	; 0xc000000
 800215c:	ea01 0102 	and.w	r1, r1, r2
 8002160:	f041 6180 	orr.w	r1, r1, #67108864	; 0x4000000
 8002164:	6001      	str	r1, [r0, #0]
 8002166:	6841      	ldr	r1, [r0, #4]
 8002168:	f441 5100 	orr.w	r1, r1, #8192	; 0x2000
 800216c:	6041      	str	r1, [r0, #4]
 800216e:	f24e 0010 	movw	r0, #57360	; 0xe010
 8002172:	f2ce 0000 	movt	r0, #57344	; 0xe000
 8002176:	f247 61ff 	movw	r1, #30463	; 0x76ff
 800217a:	f2c0 0101 	movt	r1, #1
 800217e:	6041      	str	r1, [r0, #4]
 8002180:	f04f 0107 	mov.w	r1, #7
 8002184:	6001      	str	r1, [r0, #0]
 8002186:	4770      	bx	lr

08002188 <uart_init>:
 8002188:	f04f 0000 	mov.w	r0, #0
 800218c:	f2c4 0002 	movt	r0, #16386	; 0x4002
 8002190:	6801      	ldr	r1, [r0, #0]
 8002192:	f46f 1270 	mvn.w	r2, #3932160	; 0x3c0000
 8002196:	ea01 0102 	and.w	r1, r1, r2
 800219a:	f44f 1220 	mov.w	r2, #2621440	; 0x280000
 800219e:	ea41 0102 	orr.w	r1, r1, r2
 80021a2:	6001      	str	r1, [r0, #0]
 80021a4:	f44f 61ee 	mov.w	r1, #1904	; 0x770
 80021a8:	6241      	str	r1, [r0, #36]	; 0x24
 80021aa:	f44f 5080 	mov.w	r0, #4096	; 0x1000
 80021ae:	f2c4 0001 	movt	r0, #16385	; 0x4001
 80021b2:	f240 3141 	movw	r1, #833	; 0x341
 80021b6:	6081      	str	r1, [r0, #8]
 80021b8:	f242 012c 	movw	r1, #8236	; 0x202c
 80021bc:	60c1      	str	r1, [r0, #12]
 80021be:	f44f 4060 	mov.w	r0, #57344	; 0xe000
 80021c2:	f2ce 0000 	movt	r0, #57344	; 0xe000
 80021c6:	f8d0 1104 	ldr.w	r1, [r0, #260]	; 0x104
 80021ca:	f041 0120 	orr.w	r1, r1, #32
 80021ce:	f8c0 1104 	str.w	r1, [r0, #260]	; 0x104
 80021d2:	4770      	bx	lr

080021d4 <remap>:
 80021d4:	f04f 0000 	mov.w	r0, #0
 80021d8:	f2c2 0000 	movt	r0, #8192	; 0x2000
 80021dc:	ea81 0101 	eor.w	r1, r1, r1
 80021e0:	f44f 72cc 	mov.w	r2, #408	; 0x198
 80021e4:	f851 3b04 	ldr.w	r3, [r1], #4
 80021e8:	f840 3b04 	str.w	r3, [r0], #4
 80021ec:	3a04      	subs	r2, #4
 80021ee:	d1f9      	bne.n	80021e4 <remap+0x10>
 80021f0:	f44f 406d 	mov.w	r0, #60672	; 0xed00
 80021f4:	f2ce 0000 	movt	r0, #57344	; 0xe000
 80021f8:	f04f 0100 	mov.w	r1, #0
 80021fc:	f2c2 0100 	movt	r1, #8192	; 0x2000
 8002200:	6081      	str	r1, [r0, #8]
 8002202:	480d      	ldr	r0, [pc, #52]	; (8002238 <remap_dest>)
 8002204:	490b      	ldr	r1, [pc, #44]	; (8002234 <remap_src>)
 8002206:	f641 527c 	movw	r2, #7548	; 0x1d7c
 800220a:	f102 0203 	add.w	r2, r2, #3
 800220e:	f022 0203 	bic.w	r2, r2, #3
 8002212:	f851 3b04 	ldr.w	r3, [r1], #4
 8002216:	f840 3b04 	str.w	r3, [r0], #4
 800221a:	3a04      	subs	r2, #4
 800221c:	d1f9      	bne.n	8002212 <remap+0x3e>
 800221e:	f04f 0200 	mov.w	r2, #0
 8002222:	f2c2 0202 	movt	r2, #8194	; 0x2002
 8002226:	ea83 0303 	eor.w	r3, r3, r3
 800222a:	f840 3b04 	str.w	r3, [r0], #4
 800222e:	4290      	cmp	r0, r2
 8002230:	dbfb      	blt.n	800222a <remap+0x56>
 8002232:	4770      	bx	lr

08002234 <remap_src>:
 8002234:	08000200 	stmdaeq	r0, {r9}

08002238 <remap_dest>:
 8002238:	20000200 	andcs	r0, r0, r0, lsl #4

0800223c <DMP>:
 800223c:	f842 ed04 	str.w	lr, [r2, #-4]!
 8002240:	f7fe f904 	bl	800044c <OVER>
 8002244:	f7fe f8a1 	bl	800038a <DOLIT>
 8002248:	00000004 	andeq	r0, r0, r4
 800224c:	f7fe fdc8 	bl	8000de0 <UDOTR>
 8002250:	f7fe fd44 	bl	8000cdc <SPACE>
 8002254:	f7fe f8e4 	bl	8000420 <TOR>
 8002258:	f000 b80c 	b.w	8002274 <PDUM2>

0800225c <PDUM1>:
 800225c:	f7fe f8ee 	bl	800043c <DUPP>
 8002260:	f7fe f8d2 	bl	8000408 <CAT>
 8002264:	f7fe f891 	bl	800038a <DOLIT>
 8002268:	00000003 	andeq	r0, r0, r3
 800226c:	f7fe fdb8 	bl	8000de0 <UDOTR>
 8002270:	f7fe f938 	bl	80004e4 <ONEP>

08002274 <PDUM2>:
 8002274:	f7fe f897 	bl	80003a6 <DONXT>
 8002278:	0800225c 	stmdaeq	r0, {r2, r3, r4, r6, r9, sp}
 800227c:	f852 fb04 	ldr.w	pc, [r2], #4

08002280 <FL_DUMP>:
 8002280:	f842 ed04 	str.w	lr, [r2, #-4]!
 8002284:	f7fe fa0a 	bl	800069c <BASE>
 8002288:	f7fe f8b6 	bl	80003f8 <AT>
 800228c:	f7fe f8c8 	bl	8000420 <TOR>
 8002290:	f7fe fc3e 	bl	8000b10 <HEX>
 8002294:	f7fe f879 	bl	800038a <DOLIT>
 8002298:	00000010 	andeq	r0, r0, r0, lsl r0
 800229c:	f7fe faca 	bl	8000834 <SLASH>
 80022a0:	f7fe f8be 	bl	8000420 <TOR>
 80022a4:	f000 b814 	b.w	80022d0 <DUMP4>

080022a8 <DUMP1>:
 80022a8:	f7fe fd48 	bl	8000d3c <CR>
 80022ac:	f7fe f86d 	bl	800038a <DOLIT>
 80022b0:	00000010 	andeq	r0, r0, r0, lsl r0
 80022b4:	f7fe f956 	bl	8000564 <DDUP>
 80022b8:	f7ff ffc0 	bl	800223c <DMP>
 80022bc:	f7fe f946 	bl	800054c <ROT>
 80022c0:	f7fe f944 	bl	800054c <ROT>
 80022c4:	f7fe fd0a 	bl	8000cdc <SPACE>
 80022c8:	f7fe fd08 	bl	8000cdc <SPACE>
 80022cc:	f7fe fd22 	bl	8000d14 <TYPEE>

080022d0 <DUMP4>:
 80022d0:	f7fe f869 	bl	80003a6 <DONXT>
 80022d4:	080022a8 	stmdaeq	r0, {r3, r5, r7, r9, sp}

080022d8 <DUMP3>:
 80022d8:	f7fe f8ac 	bl	8000434 <DROP>
 80022dc:	f7fe f896 	bl	800040c <RFROM>
 80022e0:	f7fe f9dc 	bl	800069c <BASE>
 80022e4:	f7fe f882 	bl	80003ec <STORE>
 80022e8:	f852 fb04 	ldr.w	pc, [r2], #4

080022ec <FL_DOTS>:
 80022ec:	f842 ed04 	str.w	lr, [r2, #-4]!
 80022f0:	f7fe fcf4 	bl	8000cdc <SPACE>
 80022f4:	f7fe fae6 	bl	80008c4 <DEPTH>
 80022f8:	f7fe f892 	bl	8000420 <TOR>
 80022fc:	f000 b806 	b.w	800230c <DOTS2>

08002300 <DOTS1>:
 8002300:	f7fe f88a 	bl	8000418 <RAT>
 8002304:	f7fe faea 	bl	80008dc <PICK>
 8002308:	f7fe fda2 	bl	8000e50 <DOT>

0800230c <DOTS2>:
 800230c:	f7fe f84b 	bl	80003a6 <DONXT>
 8002310:	08002300 	stmdaeq	r0, {r8, r9, sp}
 8002314:	f7fe fce2 	bl	8000cdc <SPACE>
 8002318:	f852 fb04 	ldr.w	pc, [r2], #4

0800231c <FL_TNAME>:
 800231c:	f842 ed04 	str.w	lr, [r2, #-4]!
 8002320:	f7fe f87e 	bl	8000420 <TOR>
 8002324:	f7fe f9e2 	bl	80006ec <CNTXT>
 8002328:	f7fe f866 	bl	80003f8 <AT>

0800232c <TNAM1>:
 800232c:	f7fe f886 	bl	800043c <DUPP>
 8002330:	f7fe f848 	bl	80003c4 <QBRAN>
 8002334:	08002368 	stmdaeq	r0, {r3, r5, r6, r8, r9, sp}
 8002338:	f7fe f880 	bl	800043c <DUPP>
 800233c:	f7fe feb0 	bl	80010a0 <NAMET>
 8002340:	f7fe f86a 	bl	8000418 <RAT>
 8002344:	f7fe f898 	bl	8000478 <XORR>
 8002348:	f7fe f81f 	bl	800038a <DOLIT>
 800234c:	00ffffff 	ldrshteq	pc, [pc], #255	; <UNPREDICTABLE>
 8002350:	f7fe f886 	bl	8000460 <ANDD>
 8002354:	f7fe f836 	bl	80003c4 <QBRAN>
 8002358:	08002368 	stmdaeq	r0, {r3, r5, r6, r8, r9, sp}
 800235c:	f7fe f8d6 	bl	800050c <CELLM>
 8002360:	f7fe f84a 	bl	80003f8 <AT>
 8002364:	f7ff bfe2 	b.w	800232c <TNAM1>

08002368 <TNAM2>:
 8002368:	f7fe f850 	bl	800040c <RFROM>
 800236c:	f7fe f862 	bl	8000434 <DROP>
 8002370:	f852 fb04 	ldr.w	pc, [r2], #4

08002374 <FL_DOTID>:
 8002374:	f842 ed04 	str.w	lr, [r2, #-4]!
 8002378:	f7fe f8e2 	bl	8000540 <QDUP>
 800237c:	f7fe f822 	bl	80003c4 <QBRAN>
 8002380:	0800239c 	stmdaeq	r0, {r2, r3, r4, r7, r8, r9, sp}
 8002384:	f7fe f958 	bl	8000638 <COUNT>
 8002388:	f7fd ffff 	bl	800038a <DOLIT>
 800238c:	0000001f 	andeq	r0, r0, pc, lsl r0
 8002390:	f7fe f866 	bl	8000460 <ANDD>
 8002394:	f7fe fcbe 	bl	8000d14 <TYPEE>
 8002398:	f852 fb04 	ldr.w	pc, [r2], #4

0800239c <DOTI1>:
 800239c:	f7fe fd06 	bl	8000dac <DOTQP>
 80023a0:	6e7b2009 	cdpvs	0, 7, cr2, cr11, cr9, {0}
 80023a4:	6d614e6f 	stclvs	14, cr4, [r1, #-444]!	; 0xfffffe44
 80023a8:	bf007d65 	svclt	0x00007d65
 80023ac:	f852 fb04 	ldr.w	pc, [r2], #4

080023b0 <DOTCA>:
 80023b0:	f842 ed04 	str.w	lr, [r2, #-4]!
 80023b4:	f7fe f842 	bl	800043c <DUPP>
 80023b8:	f7fe fd28 	bl	8000e0c <UDOT>
 80023bc:	f7fd ffe5 	bl	800038a <DOLIT>
 80023c0:	00000002 	andeq	r0, r0, r2
 80023c4:	f7fe fc92 	bl	8000cec <SPACS>
 80023c8:	f852 fb04 	ldr.w	pc, [r2], #4

080023cc <CODE_ABORT>:
 80023cc:	f842 ed04 	str.w	lr, [r2, #-4]!
 80023d0:	f7ff ffee 	bl	80023b0 <DOTCA>
 80023d4:	f7fe f832 	bl	800043c <DUPP>
 80023d8:	f7fe f80e 	bl	80003f8 <AT>
 80023dc:	f7fd ffd5 	bl	800038a <DOLIT>
 80023e0:	f842 ed04 	str.w	lr, [r2, #-4]!
 80023e4:	f7fe f848 	bl	8000478 <XORR>
 80023e8:	f7fd ffec 	bl	80003c4 <QBRAN>
 80023ec:	08002404 	stmdaeq	r0, {r2, sl, sp}
 80023f0:	f7fe fb9a 	bl	8000b28 <DECIM>
 80023f4:	f7fe ffb4 	bl	8001360 <ABORQ>
 80023f8:	646f6309 	strbtvs	r6, [pc], #-777	; 8002400 <CODE_ABORT+0x34>
 80023fc:	6f772065 	svcvs	0x00772065
 8002400:	bf006472 	svclt	0x00006472
 8002404:	f7fe fcd2 	bl	8000dac <DOTQP>
 8002408:	73656e04 	cmnvc	r5, #4, 28	; 0x40
 800240c:	bf000074 	svclt	0x00000074
 8002410:	f7fe fc94 	bl	8000d3c <CR>
 8002414:	f852 fb04 	ldr.w	pc, [r2], #4

08002418 <UNNESTQ>:
 8002418:	f842 ed04 	str.w	lr, [r2, #-4]!
 800241c:	f7fe f80e 	bl	800043c <DUPP>
 8002420:	f7fd ffea 	bl	80003f8 <AT>
 8002424:	f7fd ffb1 	bl	800038a <DOLIT>
 8002428:	f852 fb04 	ldr.w	pc, [r2], #4
 800242c:	f7fe f8c0 	bl	80005b0 <EQUAL>
 8002430:	f7fe f804 	bl	800043c <DUPP>
 8002434:	f7fd ffc6 	bl	80003c4 <QBRAN>
 8002438:	0800244c 	stmdaeq	r0, {r2, r3, r6, sl, sp}
 800243c:	f7fe fcb6 	bl	8000dac <DOTQP>
 8002440:	6e6e7506 	cdpvs	5, 6, cr7, cr14, cr6, {0}
 8002444:	00747365 	rsbseq	r7, r4, r5, ror #6
 8002448:	f7fe fc78 	bl	8000d3c <CR>
 800244c:	f852 fb04 	ldr.w	pc, [r2], #4

08002450 <NONAMEQ>:
 8002450:	f842 ed04 	str.w	lr, [r2, #-4]!
 8002454:	f7fd ff99 	bl	800038a <DOLIT>
 8002458:	00000000 	andeq	r0, r0, r0
 800245c:	f7fd fff2 	bl	8000444 <SWAP>
 8002460:	f7fd ff93 	bl	800038a <DOLIT>
 8002464:	08003314 	stmdaeq	r0, {r2, r4, r8, r9, ip, sp}
 8002468:	f7fd ffda 	bl	8000420 <TOR>
 800246c:	f7fd ffe6 	bl	800043c <DUPP>
 8002470:	f7fd ffd2 	bl	8000418 <RAT>
 8002474:	f7fd ffc0 	bl	80003f8 <AT>
 8002478:	f7fe f862 	bl	8000540 <QDUP>
 800247c:	f7fd ffa2 	bl	80003c4 <QBRAN>
 8002480:	080024e4 	stmdaeq	r0, {r2, r5, r6, r7, sl, sp}
 8002484:	f7fd fff8 	bl	8000478 <XORR>
 8002488:	f7fd ff7f 	bl	800038a <DOLIT>
 800248c:	00ffffff 	ldrshteq	pc, [pc], #255	; <UNPREDICTABLE>
 8002490:	f7fd ffe6 	bl	8000460 <ANDD>
 8002494:	f7fd ff96 	bl	80003c4 <QBRAN>
 8002498:	080024b0 	stmdaeq	r0, {r4, r5, r7, sl, sp}
 800249c:	f7fd ffb6 	bl	800040c <RFROM>
 80024a0:	f7fe f830 	bl	8000504 <CELLP>
 80024a4:	f7fd ffbc 	bl	8000420 <TOR>
 80024a8:	f7fd ff98 	bl	80003dc <BRAN>
 80024ac:	0800246c 	stmdaeq	r0, {r2, r3, r5, r6, sl, sp}
 80024b0:	f7fd ffac 	bl	800040c <RFROM>
 80024b4:	f7fd ff69 	bl	800038a <DOLIT>
 80024b8:	08003314 	stmdaeq	r0, {r2, r4, r8, r9, ip, sp}
 80024bc:	f7fd fffa 	bl	80004b4 <SUBB>
 80024c0:	f7fd ff63 	bl	800038a <DOLIT>
 80024c4:	08003350 	stmdaeq	r0, {r4, r6, r8, r9, ip, sp}
 80024c8:	f7fd fff0 	bl	80004ac <PLUS>
 80024cc:	f7fd ff94 	bl	80003f8 <AT>
 80024d0:	f7fd ffb8 	bl	8000444 <SWAP>
 80024d4:	f7fd ffae 	bl	8000434 <DROP>
 80024d8:	f7fd ffb4 	bl	8000444 <SWAP>
 80024dc:	f7fe f852 	bl	8000584 <INVER>
 80024e0:	f852 fb04 	ldr.w	pc, [r2], #4
 80024e4:	f7fd ffa6 	bl	8000434 <DROP>
 80024e8:	f7fd ffac 	bl	8000444 <SWAP>
 80024ec:	f7fd ff8e 	bl	800040c <RFROM>
 80024f0:	f7fd ffa0 	bl	8000434 <DROP>
 80024f4:	f852 fb04 	ldr.w	pc, [r2], #4

080024f8 <DOTNONAME>:
 80024f8:	f842 ed04 	str.w	lr, [r2, #-4]!
 80024fc:	f841 5d04 	str.w	r5, [r1, #-4]!
 8002500:	f7fd ff43 	bl	800038a <DOLIT>
 8002504:	08003350 	stmdaeq	r0, {r4, r6, r8, r9, ip, sp}
 8002508:	f7fd ffd0 	bl	80004ac <PLUS>
 800250c:	f7fd ff74 	bl	80003f8 <AT>
 8002510:	f7fe fc00 	bl	8000d14 <TYPEE>
 8002514:	f852 fb04 	ldr.w	pc, [r2], #4

08002518 <IS_BLW>:
 8002518:	f842 ed04 	str.w	lr, [r2, #-4]!
 800251c:	f7fd ff35 	bl	800038a <DOLIT>
 8002520:	d000f000 	andle	pc, r0, r0
 8002524:	f7fd ff8a 	bl	800043c <DUPP>
 8002528:	f7fd ff7a 	bl	8000420 <TOR>
 800252c:	f7fd ff98 	bl	8000460 <ANDD>
 8002530:	f7fd ff6c 	bl	800040c <RFROM>
 8002534:	f7fe f83c 	bl	80005b0 <EQUAL>
 8002538:	f852 fb04 	ldr.w	pc, [r2], #4

0800253c <FL_SEE>:
 800253c:	f842 ed04 	str.w	lr, [r2, #-4]!
 8002540:	f7fe f8ac 	bl	800069c <BASE>
 8002544:	f7fd ff58 	bl	80003f8 <AT>
 8002548:	f7fd ff6a 	bl	8000420 <TOR>
 800254c:	f7fe fae0 	bl	8000b10 <HEX>
 8002550:	f7ff f95e 	bl	8001810 <TICK>
 8002554:	f7fe fbf2 	bl	8000d3c <CR>
 8002558:	f7ff ff38 	bl	80023cc <CODE_ABORT>
 800255c:	f000 f808 	bl	8002570 <FL_SCOL>
 8002560:	f7fd ff54 	bl	800040c <RFROM>
 8002564:	f7fe f89a 	bl	800069c <BASE>
 8002568:	f7fd ff40 	bl	80003ec <STORE>
 800256c:	f852 fb04 	ldr.w	pc, [r2], #4

08002570 <FL_SCOL>:
 8002570:	f842 ed04 	str.w	lr, [r2, #-4]!
 8002574:	f7fd ff09 	bl	800038a <DOLIT>
 8002578:	00000009 	andeq	r0, r0, r9
 800257c:	f7fd ff50 	bl	8000420 <TOR>

08002580 <SCOL1>:
 8002580:	f7fd ffc0 	bl	8000504 <CELLP>
 8002584:	f7ff ff14 	bl	80023b0 <DOTCA>
 8002588:	f7ff ff46 	bl	8002418 <UNNESTQ>
 800258c:	f7fd ff1a 	bl	80003c4 <QBRAN>
 8002590:	080025c0 	stmdaeq	r0, {r6, r7, r8, sl, sp}
 8002594:	f7fd ff52 	bl	800043c <DUPP>
 8002598:	f7fd ffb4 	bl	8000504 <CELLP>
 800259c:	f7fd ff2c 	bl	80003f8 <AT>
 80025a0:	f7ff ffba 	bl	8002518 <IS_BLW>
 80025a4:	f7fd ffee 	bl	8000584 <INVER>
 80025a8:	f7fd ff0c 	bl	80003c4 <QBRAN>
 80025ac:	08002580 	stmdaeq	r0, {r7, r8, sl, sp}
 80025b0:	f7fd ff2c 	bl	800040c <RFROM>
 80025b4:	f7fd ff3e 	bl	8000434 <DROP>
 80025b8:	f7fd ff10 	bl	80003dc <BRAN>
 80025bc:	080025d4 	stmdaeq	r0, {r2, r4, r6, r7, r8, sl, sp}
 80025c0:	f7fd ff3c 	bl	800043c <DUPP>
 80025c4:	f000 f82c 	bl	8002620 <FL_DECOMP>
 80025c8:	f7fe fbb8 	bl	8000d3c <CR>
 80025cc:	f7fd feeb 	bl	80003a6 <DONXT>
 80025d0:	08002580 	stmdaeq	r0, {r7, r8, sl, sp}
 80025d4:	f7fd ff2e 	bl	8000434 <DROP>
 80025d8:	f852 fb04 	ldr.w	pc, [r2], #4

080025dc <BLADR>:
 80025dc:	ea4f 0405 	mov.w	r4, r5
 80025e0:	ea4f 4434 	mov.w	r4, r4, ror #16
 80025e4:	f364 050a 	bfi	r5, r4, #0, #11
 80025e8:	ea4f 24e4 	mov.w	r4, r4, asr #11
 80025ec:	f364 5555 	bfi	r5, r4, #21, #1
 80025f0:	ea4f 04a4 	mov.w	r4, r4, asr #2
 80025f4:	f364 5596 	bfi	r5, r4, #22, #1
 80025f8:	ea4f 04e4 	mov.w	r4, r4, asr #3
 80025fc:	f364 25d4 	bfi	r5, r4, #11, #10
 8002600:	ea4f 24a4 	mov.w	r4, r4, asr #10
 8002604:	f364 55d7 	bfi	r5, r4, #23, #1
 8002608:	f415 0f00 	tst.w	r5, #8388608	; 0x800000
 800260c:	f040 8002 	bne.w	8002614 <BLADR+0x38>
 8002610:	f485 05c0 	eor.w	r5, r5, #6291456	; 0x600000
 8002614:	ea4f 2505 	mov.w	r5, r5, lsl #8
 8002618:	ea4f 15e5 	mov.w	r5, r5, asr #7
 800261c:	4770      	bx	lr
 800261e:	bf00      	nop

08002620 <FL_DECOMP>:
 8002620:	f842 ed04 	str.w	lr, [r2, #-4]!
 8002624:	f7fd ff0a 	bl	800043c <DUPP>
 8002628:	f7fd fee6 	bl	80003f8 <AT>
 800262c:	f7fd ff06 	bl	800043c <DUPP>
 8002630:	f7ff ff72 	bl	8002518 <IS_BLW>
 8002634:	f7fd fec6 	bl	80003c4 <QBRAN>
 8002638:	08002698 	stmdaeq	r0, {r3, r4, r7, r9, sl, sp}
 800263c:	f7fe fbb6 	bl	8000dac <DOTQP>
 8002640:	204c4203 	subcs	r4, ip, r3, lsl #4
 8002644:	f7ff ffca 	bl	80025dc <BLADR>
 8002648:	f7fd ff00 	bl	800044c <OVER>
 800264c:	f7fd ff2e 	bl	80004ac <PLUS>
 8002650:	f7fd ff58 	bl	8000504 <CELLP>
 8002654:	f7ff feac 	bl	80023b0 <DOTCA>
 8002658:	f7ff fefa 	bl	8002450 <NONAMEQ>
 800265c:	f7fd feb2 	bl	80003c4 <QBRAN>
 8002660:	0800266c 	stmdaeq	r0, {r2, r3, r5, r6, r9, sl, sp}
 8002664:	f7fd feba 	bl	80003dc <BRAN>
 8002668:	08002670 	stmdaeq	r0, {r4, r5, r6, r9, sl, sp}

0800266c <DECOMP1>:
 800266c:	f7ff fe56 	bl	800231c <FL_TNAME>

08002670 <DECOMP3>:
 8002670:	f7ff fe80 	bl	8002374 <FL_DOTID>
 8002674:	f7fd fede 	bl	8000434 <DROP>
 8002678:	f7fd fec8 	bl	800040c <RFROM>
 800267c:	f7fd fec6 	bl	800040c <RFROM>
 8002680:	f7fd fed8 	bl	8000434 <DROP>
 8002684:	f7fd fe81 	bl	800038a <DOLIT>
 8002688:	00000009 	andeq	r0, r0, r9
 800268c:	f7fd fec8 	bl	8000420 <TOR>
 8002690:	f7fd fec6 	bl	8000420 <TOR>
 8002694:	f852 fb04 	ldr.w	pc, [r2], #4

08002698 <DECOM2>:
 8002698:	f7fe fbb8 	bl	8000e0c <UDOT>
 800269c:	f7fd feca 	bl	8000434 <DROP>
 80026a0:	f852 fb04 	ldr.w	pc, [r2], #4

080026a4 <FL_WORDS>:
 80026a4:	f842 ed04 	str.w	lr, [r2, #-4]!
 80026a8:	f7fe fb48 	bl	8000d3c <CR>
 80026ac:	f7fe f81e 	bl	80006ec <CNTXT>
 80026b0:	f7fd fea2 	bl	80003f8 <AT>

080026b4 <WORS1>:
 80026b4:	f7fd ff44 	bl	8000540 <QDUP>
 80026b8:	f7fd fe84 	bl	80003c4 <QBRAN>
 80026bc:	080026d8 	stmdaeq	r0, {r3, r4, r6, r7, r9, sl, sp}
 80026c0:	f7fd febc 	bl	800043c <DUPP>
 80026c4:	f7fe fb0a 	bl	8000cdc <SPACE>
 80026c8:	f7ff fe54 	bl	8002374 <FL_DOTID>
 80026cc:	f7fd ff1e 	bl	800050c <CELLM>
 80026d0:	f7fd fe92 	bl	80003f8 <AT>
 80026d4:	f7ff bfee 	b.w	80026b4 <WORS1>

080026d8 <WORS2>:
 80026d8:	f852 fb04 	ldr.w	pc, [r2], #4

080026dc <LF_RSTIVEC>:
 80026dc:	0000      	movs	r0, r0
	...

080026e0 <_RSTIVEC>:
 80026e0:	5208      	strh	r0, [r1, r0]
 80026e2:	5453      	strb	r3, [r2, r1]
 80026e4:	492d      	ldr	r1, [pc, #180]	; (800279c <_CSTOR>)
 80026e6:	4556      	cmp	r6, sl
 80026e8:	0043      	lsls	r3, r0, #1
	...

080026ec <CA_RSTIVEC>:
 80026ec:	20000270 	andcs	r0, r0, r0, ror r2

080026f0 <LF_SETIVEC>:
 80026f0:	080026e0 	stmdaeq	r0, {r5, r6, r7, r9, sl, sp}

080026f4 <_SETIVEC>:
 80026f4:	54455308 	strbpl	r5, [r5], #-776	; 0xfffffcf8
 80026f8:	4556492d 	ldrbmi	r4, [r6, #-2349]	; 0xfffff6d3
 80026fc:	00000043 	andeq	r0, r0, r3, asr #32

08002700 <CA_SETIVEC>:
 8002700:	20000298 	mulcs	r0, r8, r2

08002704 <LF_RAND>:
 8002704:	080026f4 	stmdaeq	r0, {r2, r4, r5, r6, r7, r9, sl, sp}

08002708 <_RAND>:
 8002708:	4e415206 	cdpmi	2, 4, cr5, cr1, cr6, {0}
 800270c:	004d4f44 	subeq	r4, sp, r4, asr #30

08002710 <CA_RAND>:
 8002710:	200002c0 	andcs	r0, r0, r0, asr #5

08002714 <LF_PAUSE>:
 8002714:	08002708 	stmdaeq	r0, {r3, r8, r9, sl, sp}

08002718 <_PAUSE>:
 8002718:	55415005 	strbpl	r5, [r1, #-5]
 800271c:	00004553 	andeq	r4, r0, r3, asr r5

08002720 <CA_PAUSE>:
 8002720:	20000300 	andcs	r0, r0, r0, lsl #6

08002724 <LF_ULED>:
 8002724:	08002718 	stmdaeq	r0, {r3, r4, r8, r9, sl, sp}

08002728 <_ULED>:
 8002728:	454c5504 	strbmi	r5, [ip, #-1284]	; 0xfffffafc
 800272c:	00000044 	andeq	r0, r0, r4, asr #32

08002730 <CA_ULED>:
 8002730:	20000328 	andcs	r0, r0, r8, lsr #6

08002734 <LF_QRX>:
 8002734:	08002728 	stmdaeq	r0, {r3, r5, r8, r9, sl, sp}

08002738 <_QRX>:
 8002738:	454b3f04 	strbmi	r3, [fp, #-3844]	; 0xfffff0fc
 800273c:	00000059 	andeq	r0, r0, r9, asr r0

08002740 <CA_QRX>:
 8002740:	20000344 	andcs	r0, r0, r4, asr #6

08002744 <LF_EMIT>:
 8002744:	08002738 	stmdaeq	r0, {r3, r4, r5, r8, r9, sl, sp}

08002748 <_EMIT>:
 8002748:	494d4504 	stmdbmi	sp, {r2, r8, sl, lr}^
 800274c:	00000054 	andeq	r0, r0, r4, asr r0

08002750 <CA_EMIT>:
 8002750:	20000370 	andcs	r0, r0, r0, ror r3

08002754 <LF_NOP>:
 8002754:	08002748 	stmdaeq	r0, {r3, r6, r8, r9, sl, sp}

08002758 <_NOP>:
 8002758:	504f4e03 	subpl	r4, pc, r3, lsl #28

0800275c <CA_NOP>:
 800275c:	20000388 	andcs	r0, r0, r8, lsl #7

08002760 <LF_EXECU>:
 8002760:	08002758 	stmdaeq	r0, {r3, r4, r6, r8, r9, sl, sp}

08002764 <_EXECU>:
 8002764:	45584507 	ldrbmi	r4, [r8, #-1287]	; 0xfffffaf9
 8002768:	45545543 	ldrbmi	r5, [r4, #-1347]	; 0xfffffabd

0800276c <CA_EXECU>:
 800276c:	2000039c 	mulcs	r0, ip, r3

08002770 <LF_EXIT>:
 8002770:	08002764 	stmdaeq	r0, {r2, r5, r6, r8, r9, sl, sp}

08002774 <_EXIT>:
 8002774:	49584504 	ldmdbmi	r8, {r2, r8, sl, lr}^
 8002778:	00000054 	andeq	r0, r0, r4, asr r0

0800277c <CA_EXIT>:
 800277c:	200003e8 	andcs	r0, r0, r8, ror #7

08002780 <LF_STORE>:
 8002780:	08002774 	stmdaeq	r0, {r2, r4, r5, r6, r8, r9, sl, sp}

08002784 <_STORE>:
 8002784:	00002101 	andeq	r2, r0, r1, lsl #2

08002788 <CA_STORE>:
 8002788:	200003ec 	andcs	r0, r0, ip, ror #7

0800278c <LF_AT>:
 800278c:	08002784 	stmdaeq	r0, {r2, r7, r8, r9, sl, sp}

08002790 <_AT>:
 8002790:	00004001 	andeq	r4, r0, r1

08002794 <CA_AT>:
 8002794:	200003f8 	strdcs	r0, [r0], -r8

08002798 <LF_CSTOR>:
 8002798:	08002790 	stmdaeq	r0, {r4, r7, r8, r9, sl, sp}

0800279c <_CSTOR>:
 800279c:	00214302 	eoreq	r4, r1, r2, lsl #6

080027a0 <CA_CSTOR>:
 80027a0:	200003fc 	strdcs	r0, [r0], -ip

080027a4 <LF_CAT>:
 80027a4:	0800279c 	stmdaeq	r0, {r2, r3, r4, r7, r8, r9, sl, sp}

080027a8 <_CAT>:
 80027a8:	00404302 	subeq	r4, r0, r2, lsl #6

080027ac <CA_CAT>:
 80027ac:	20000408 	andcs	r0, r0, r8, lsl #8

080027b0 <LF_RFROM>:
 80027b0:	080027a8 	stmdaeq	r0, {r3, r5, r7, r8, r9, sl, sp}

080027b4 <_RFROM>:
 80027b4:	003e5202 	eorseq	r5, lr, r2, lsl #4

080027b8 <CA_RFROM>:
 80027b8:	2000040c 	andcs	r0, r0, ip, lsl #8

080027bc <LF_RAT>:
 80027bc:	080027b4 	stmdaeq	r0, {r2, r4, r5, r7, r8, r9, sl, sp}

080027c0 <_RAT>:
 80027c0:	00405202 	subeq	r5, r0, r2, lsl #4

080027c4 <CA_RAT>:
 80027c4:	20000418 	andcs	r0, r0, r8, lsl r4

080027c8 <LF_TOR>:
 80027c8:	080027c0 	stmdaeq	r0, {r6, r7, r8, r9, sl, sp}

080027cc <_TOR>:
 80027cc:	00523e42 	subseq	r3, r2, r2, asr #28

080027d0 <CA_TOR>:
 80027d0:	20000420 	andcs	r0, r0, r0, lsr #8

080027d4 <LF_SPAT>:
 80027d4:	080027cc 	stmdaeq	r0, {r2, r3, r6, r7, r8, r9, sl, sp}

080027d8 <_SPAT>:
 80027d8:	40505303 	subsmi	r5, r0, r3, lsl #6

080027dc <CA_SPAT>:
 80027dc:	2000042c 	andcs	r0, r0, ip, lsr #8

080027e0 <LF_DROP>:
 80027e0:	080027d8 	stmdaeq	r0, {r3, r4, r6, r7, r8, r9, sl, sp}

080027e4 <_DROP>:
 80027e4:	4f524404 	svcmi	0x00524404
 80027e8:	00000050 	andeq	r0, r0, r0, asr r0

080027ec <CA_DROP>:
 80027ec:	20000434 	andcs	r0, r0, r4, lsr r4

080027f0 <LF_DUPP>:
 80027f0:	080027e4 	stmdaeq	r0, {r2, r5, r6, r7, r8, r9, sl, sp}

080027f4 <_DUPP>:
 80027f4:	50554403 	subspl	r4, r5, r3, lsl #8

080027f8 <CA_DUPP>:
 80027f8:	2000043c 	andcs	r0, r0, ip, lsr r4

080027fc <LF_SWAP>:
 80027fc:	080027f4 	stmdaeq	r0, {r2, r4, r5, r6, r7, r8, r9, sl, sp}

08002800 <_SWAP>:
 8002800:	41575304 	cmpmi	r7, r4, lsl #6
 8002804:	00000050 	andeq	r0, r0, r0, asr r0

08002808 <CA_SWAP>:
 8002808:	20000444 	andcs	r0, r0, r4, asr #8

0800280c <LF_OVER>:
 800280c:	08002800 	stmdaeq	r0, {fp, sp}

08002810 <_OVER>:
 8002810:	45564f04 	ldrbmi	r4, [r6, #-3844]	; 0xfffff0fc
 8002814:	00000052 	andeq	r0, r0, r2, asr r0

08002818 <CA_OVER>:
 8002818:	2000044c 	andcs	r0, r0, ip, asr #8

0800281c <LF_ZLESS>:
 800281c:	08002810 	stmdaeq	r0, {r4, fp, sp}

08002820 <_ZLESS>:
 8002820:	003c3002 	eorseq	r3, ip, r2

08002824 <CA_ZLESS>:
 8002824:	20000454 	andcs	r0, r0, r4, asr r4

08002828 <LF_ANDD>:
 8002828:	08002820 	stmdaeq	r0, {r5, fp, sp}

0800282c <_ANDD>:
 800282c:	444e4103 	strbmi	r4, [lr], #-259	; 0xfffffefd

08002830 <CA_ANDD>:
 8002830:	20000460 	andcs	r0, r0, r0, ror #8

08002834 <LF_ORR>:
 8002834:	0800282c 	stmdaeq	r0, {r2, r3, r5, fp, sp}

08002838 <_ORR>:
 8002838:	00524f02 	subseq	r4, r2, r2, lsl #30

0800283c <CA_ORR>:
 800283c:	2000046c 	andcs	r0, r0, ip, ror #8

08002840 <LF_XORR>:
 8002840:	08002838 	stmdaeq	r0, {r3, r4, r5, fp, sp}

08002844 <_XORR>:
 8002844:	524f5803 	subpl	r5, pc, #196608	; 0x30000

08002848 <CA_XORR>:
 8002848:	20000478 	andcs	r0, r0, r8, ror r4

0800284c <LF_UPLUS>:
 800284c:	08002844 	stmdaeq	r0, {r2, r6, fp, sp}

08002850 <_UPLUS>:
 8002850:	2b4d5503 	blcs	9357c64 <OPTKEY1+0x11c5229>

08002854 <CA_UPLUS>:
 8002854:	20000484 	andcs	r0, r0, r4, lsl #9

08002858 <LF_RSHIFT>:
 8002858:	08002850 	stmdaeq	r0, {r4, r6, fp, sp}

0800285c <_RSHIFT>:
 800285c:	48535206 	ldmdami	r3, {r1, r2, r9, ip, lr}^
 8002860:	00544649 	subseq	r4, r4, r9, asr #12

08002864 <CA_RSHIFT>:
 8002864:	20000494 	mulcs	r0, r4, r4

08002868 <LF_LSHIFT>:
 8002868:	0800285c 	stmdaeq	r0, {r2, r3, r4, r6, fp, sp}

0800286c <_LSHIFT>:
 800286c:	48534c06 	ldmdami	r3, {r1, r2, sl, fp, lr}^
 8002870:	00544649 	subseq	r4, r4, r9, asr #12

08002874 <CA_LSHIFT>:
 8002874:	200004a0 	andcs	r0, r0, r0, lsr #9

08002878 <LF_PLUS>:
 8002878:	0800286c 	stmdaeq	r0, {r2, r3, r5, r6, fp, sp}

0800287c <_PLUS>:
 800287c:	00002b01 	andeq	r2, r0, r1, lsl #22

08002880 <CA_PLUS>:
 8002880:	200004ac 	andcs	r0, r0, ip, lsr #9

08002884 <LF_SUBB>:
 8002884:	0800287c 	stmdaeq	r0, {r2, r3, r4, r5, r6, fp, sp}

08002888 <_SUBB>:
 8002888:	00002d01 	andeq	r2, r0, r1, lsl #26

0800288c <CA_SUBB>:
 800288c:	200004b4 			; <UNDEFINED> instruction: 0x200004b4

08002890 <LF_STAR>:
 8002890:	08002888 	stmdaeq	r0, {r3, r7, fp, sp}

08002894 <_STAR>:
 8002894:	00002a01 	andeq	r2, r0, r1, lsl #20

08002898 <CA_STAR>:
 8002898:	200004c0 	andcs	r0, r0, r0, asr #9

0800289c <LF_UMSTA>:
 800289c:	08002894 	stmdaeq	r0, {r2, r4, r7, fp, sp}

080028a0 <_UMSTA>:
 80028a0:	2a4d5503 	bcs	9357cb4 <OPTKEY1+0x11c5279>

080028a4 <CA_UMSTA>:
 80028a4:	200004cc 	andcs	r0, r0, ip, asr #9

080028a8 <LF_MSTAR>:
 80028a8:	080028a0 	stmdaeq	r0, {r5, r7, fp, sp}

080028ac <_MSTAR>:
 80028ac:	002a4d02 	eoreq	r4, sl, r2, lsl #26

080028b0 <CA_MSTAR>:
 80028b0:	200004d8 	ldrdcs	r0, [r0], -r8

080028b4 <LF_ONEP>:
 80028b4:	080028ac 	stmdaeq	r0, {r2, r3, r5, r7, fp, sp}

080028b8 <_ONEP>:
 80028b8:	002b3102 	eoreq	r3, fp, r2, lsl #2

080028bc <CA_ONEP>:
 80028bc:	200004e4 	andcs	r0, r0, r4, ror #9

080028c0 <LF_ONEM>:
 80028c0:	080028b8 	stmdaeq	r0, {r3, r4, r5, r7, fp, sp}

080028c4 <_ONEM>:
 80028c4:	002d3102 	eoreq	r3, sp, r2, lsl #2

080028c8 <CA_ONEM>:
 80028c8:	200004ec 	andcs	r0, r0, ip, ror #9

080028cc <LF_TWOP>:
 80028cc:	080028c4 	stmdaeq	r0, {r2, r6, r7, fp, sp}

080028d0 <_TWOP>:
 80028d0:	002b3202 	eoreq	r3, fp, r2, lsl #4

080028d4 <CA_TWOP>:
 80028d4:	200004f4 	strdcs	r0, [r0], -r4

080028d8 <LF_TWOM>:
 80028d8:	080028d0 	stmdaeq	r0, {r4, r6, r7, fp, sp}

080028dc <_TWOM>:
 80028dc:	002d3202 	eoreq	r3, sp, r2, lsl #4

080028e0 <CA_TWOM>:
 80028e0:	200004fc 	strdcs	r0, [r0], -ip

080028e4 <LF_CELLP>:
 80028e4:	080028dc 	stmdaeq	r0, {r2, r3, r4, r6, r7, fp, sp}

080028e8 <_CELLP>:
 80028e8:	4c454305 	mcrrmi	3, 0, r4, r5, cr5
 80028ec:	00002b4c 	andeq	r2, r0, ip, asr #22

080028f0 <CA_CELLP>:
 80028f0:	20000504 	andcs	r0, r0, r4, lsl #10

080028f4 <LF_CELLM>:
 80028f4:	080028e8 	stmdaeq	r0, {r3, r5, r6, r7, fp, sp}

080028f8 <_CELLM>:
 80028f8:	4c454305 	mcrrmi	3, 0, r4, r5, cr5
 80028fc:	00002d4c 	andeq	r2, r0, ip, asr #26

08002900 <CA_CELLM>:
 8002900:	2000050c 	andcs	r0, r0, ip, lsl #10

08002904 <LF_BLANK>:
 8002904:	080028f8 	stmdaeq	r0, {r3, r4, r5, r6, r7, fp, sp}

08002908 <_BLANK>:
 8002908:	004c4202 	subeq	r4, ip, r2, lsl #4

0800290c <CA_BLANK>:
 800290c:	20000514 	andcs	r0, r0, r4, lsl r5

08002910 <LF_CELLS>:
 8002910:	08002908 	stmdaeq	r0, {r3, r8, fp, sp}

08002914 <_CELLS>:
 8002914:	4c454305 	mcrrmi	3, 0, r4, r5, cr5
 8002918:	0000534c 	andeq	r5, r0, ip, asr #6

0800291c <CA_CELLS>:
 800291c:	20000520 	andcs	r0, r0, r0, lsr #10

08002920 <LF_CELLSL>:
 8002920:	08002914 	stmdaeq	r0, {r2, r4, r8, fp, sp}

08002924 <_CELLSL>:
 8002924:	4c454305 	mcrrmi	3, 0, r4, r5, cr5
 8002928:	00002f4c 	andeq	r2, r0, ip, asr #30

0800292c <CA_CELLSL>:
 800292c:	20000528 	andcs	r0, r0, r8, lsr #10

08002930 <LF_TWOST>:
 8002930:	08002924 	stmdaeq	r0, {r2, r5, r8, fp, sp}

08002934 <_TWOST>:
 8002934:	002a3202 	eoreq	r3, sl, r2, lsl #4

08002938 <CA_TWOST>:
 8002938:	20000530 	andcs	r0, r0, r0, lsr r5

0800293c <LF_TWOSL>:
 800293c:	08002934 	stmdaeq	r0, {r2, r4, r5, r8, fp, sp}

08002940 <_TWOSL>:
 8002940:	002f3202 	eoreq	r3, pc, r2, lsl #4

08002944 <CA_TWOSL>:
 8002944:	20000538 	andcs	r0, r0, r8, lsr r5

08002948 <LF_QDUP>:
 8002948:	08002940 	stmdaeq	r0, {r6, r8, fp, sp}

0800294c <_QDUP>:
 800294c:	55443f04 	strbpl	r3, [r4, #-3844]	; 0xfffff0fc
 8002950:	00000050 	andeq	r0, r0, r0, asr r0

08002954 <CA_QDUP>:
 8002954:	20000540 	andcs	r0, r0, r0, asr #10

08002958 <LF_ROT>:
 8002958:	0800294c 	stmdaeq	r0, {r2, r3, r6, r8, fp, sp}

0800295c <_ROT>:
 800295c:	544f5203 	strbpl	r5, [pc], #-515	; 8002964 <LF_DDROP>

08002960 <CA_ROT>:
 8002960:	2000054c 	andcs	r0, r0, ip, asr #10

08002964 <LF_DDROP>:
 8002964:	0800295c 	stmdaeq	r0, {r2, r3, r4, r6, r8, fp, sp}

08002968 <_DDROP>:
 8002968:	52443205 	subpl	r3, r4, #1342177280	; 0x50000000
 800296c:	0000504f 	andeq	r5, r0, pc, asr #32

08002970 <CA_DDROP>:
 8002970:	20000558 	andcs	r0, r0, r8, asr r5

08002974 <LF_DDUP>:
 8002974:	08002968 	stmdaeq	r0, {r3, r5, r6, r8, fp, sp}

08002978 <_DDUP>:
 8002978:	55443204 	strbpl	r3, [r4, #-516]	; 0xfffffdfc
 800297c:	00000050 	andeq	r0, r0, r0, asr r0

08002980 <CA_DDUP>:
 8002980:	20000564 	andcs	r0, r0, r4, ror #10

08002984 <LF_DPLUS>:
 8002984:	08002978 	stmdaeq	r0, {r3, r4, r5, r6, r8, fp, sp}

08002988 <_DPLUS>:
 8002988:	002b4402 	eoreq	r4, fp, r2, lsl #8

0800298c <CA_DPLUS>:
 800298c:	20000570 	andcs	r0, r0, r0, ror r5

08002990 <LF_INVER>:
 8002990:	08002988 	stmdaeq	r0, {r3, r7, r8, fp, sp}

08002994 <_INVER>:
 8002994:	544f4e03 	strbpl	r4, [pc], #-3587	; 800299c <LF_NEGAT>

08002998 <CA_INVER>:
 8002998:	20000584 	andcs	r0, r0, r4, lsl #11

0800299c <LF_NEGAT>:
 800299c:	08002994 	stmdaeq	r0, {r2, r4, r7, r8, fp, sp}

080029a0 <_NEGAT>:
 80029a0:	47454e06 	strbmi	r4, [r5, -r6, lsl #28]
 80029a4:	00455441 	subeq	r5, r5, r1, asr #8

080029a8 <CA_NEGAT>:
 80029a8:	2000058c 	andcs	r0, r0, ip, lsl #11

080029ac <LF_ABSS>:
 80029ac:	080029a0 	stmdaeq	r0, {r5, r7, r8, fp, sp}

080029b0 <_ABSS>:
 80029b0:	53424103 	movtpl	r4, #8451	; 0x2103

080029b4 <CA_ABSS>:
 80029b4:	20000594 	mulcs	r0, r4, r5

080029b8 <LF_ZEQUAL>:
 80029b8:	080029b0 	stmdaeq	r0, {r4, r5, r7, r8, fp, sp}

080029bc <_ZEQUAL>:
 80029bc:	003d3002 	eorseq	r3, sp, r2

080029c0 <CA_ZEQUAL>:
 80029c0:	200005a0 	andcs	r0, r0, r0, lsr #11

080029c4 <LF_EQUAL>:
 80029c4:	080029bc 	stmdaeq	r0, {r2, r3, r4, r5, r7, r8, fp, sp}

080029c8 <_EQUAL>:
 80029c8:	00003d01 	andeq	r3, r0, r1, lsl #26

080029cc <CA_EQUAL>:
 80029cc:	200005b0 			; <UNDEFINED> instruction: 0x200005b0

080029d0 <LF_ULESS>:
 80029d0:	080029c8 	stmdaeq	r0, {r3, r6, r7, r8, fp, sp}

080029d4 <_ULESS>:
 80029d4:	003c5502 	eorseq	r5, ip, r2, lsl #10

080029d8 <CA_ULESS>:
 80029d8:	200005c0 	andcs	r0, r0, r0, asr #11

080029dc <LF_LESS>:
 80029dc:	080029d4 	stmdaeq	r0, {r2, r4, r6, r7, r8, fp, sp}

080029e0 <_LESS>:
 80029e0:	00003c01 	andeq	r3, r0, r1, lsl #24

080029e4 <CA_LESS>:
 80029e4:	200005d0 	ldrdcs	r0, [r0], -r0	; <UNPREDICTABLE>

080029e8 <LF_GREAT>:
 80029e8:	080029e0 	stmdaeq	r0, {r5, r6, r7, r8, fp, sp}

080029ec <_GREAT>:
 80029ec:	00003e01 	andeq	r3, r0, r1, lsl #28

080029f0 <CA_GREAT>:
 80029f0:	200005e0 	andcs	r0, r0, r0, ror #11

080029f4 <LF_MAX>:
 80029f4:	080029ec 	stmdaeq	r0, {r2, r3, r5, r6, r7, r8, fp, sp}

080029f8 <_MAX>:
 80029f8:	58414d03 	stmdapl	r1, {r0, r1, r8, sl, fp, lr}^

080029fc <CA_MAX>:
 80029fc:	200005f0 	strdcs	r0, [r0], -r0	; <UNPREDICTABLE>

08002a00 <LF_MIN>:
 8002a00:	080029f8 	stmdaeq	r0, {r3, r4, r5, r6, r7, r8, fp, sp}

08002a04 <_MIN>:
 8002a04:	4e494d03 	cdpmi	13, 4, cr4, cr9, cr3, {0}

08002a08 <CA_MIN>:
 8002a08:	200005fc 	strdcs	r0, [r0], -ip

08002a0c <LF_PSTOR>:
 8002a0c:	08002a04 	stmdaeq	r0, {r2, r9, fp, sp}

08002a10 <_PSTOR>:
 8002a10:	00212b02 	eoreq	r2, r1, r2, lsl #22

08002a14 <CA_PSTOR>:
 8002a14:	20000608 	andcs	r0, r0, r8, lsl #12

08002a18 <LF_DSTOR>:
 8002a18:	08002a10 	stmdaeq	r0, {r4, r9, fp, sp}

08002a1c <_DSTOR>:
 8002a1c:	00213202 	eoreq	r3, r1, r2, lsl #4

08002a20 <CA_DSTOR>:
 8002a20:	20000618 	andcs	r0, r0, r8, lsl r6

08002a24 <LF_DAT>:
 8002a24:	08002a1c 	stmdaeq	r0, {r2, r3, r4, r9, fp, sp}

08002a28 <_DAT>:
 8002a28:	00403202 	subeq	r3, r0, r2, lsl #4

08002a2c <CA_DAT>:
 8002a2c:	2000062c 	andcs	r0, r0, ip, lsr #12

08002a30 <LF_COUNT>:
 8002a30:	08002a28 	stmdaeq	r0, {r3, r5, r9, fp, sp}

08002a34 <_COUNT>:
 8002a34:	554f4305 	strbpl	r4, [pc, #-773]	; 8002737 <LF_QRX+0x3>
 8002a38:	0000544e 	andeq	r5, r0, lr, asr #8

08002a3c <CA_COUNT>:
 8002a3c:	20000638 	andcs	r0, r0, r8, lsr r6

08002a40 <LF_DNEGA>:
 8002a40:	08002a34 	stmdaeq	r0, {r2, r4, r5, r9, fp, sp}

08002a44 <_DNEGA>:
 8002a44:	454e4407 	strbmi	r4, [lr, #-1031]	; 0xfffffbf9
 8002a48:	45544147 	ldrbmi	r4, [r4, #-327]	; 0xfffffeb9

08002a4c <CA_DNEGA>:
 8002a4c:	20000644 	andcs	r0, r0, r4, asr #12

08002a50 <LF_SEED>:
 8002a50:	08002a44 	stmdaeq	r0, {r2, r6, r9, fp, sp}

08002a54 <_SEED>:
 8002a54:	45455304 	strbmi	r5, [r5, #-772]	; 0xfffffcfc
 8002a58:	00000044 	andeq	r0, r0, r4, asr #32

08002a5c <CA_SEED>:
 8002a5c:	2000066c 	andcs	r0, r0, ip, ror #12

08002a60 <LF_MSEC>:
 8002a60:	08002a54 	stmdaeq	r0, {r2, r4, r6, r9, fp, sp}

08002a64 <_MSEC>:
 8002a64:	45534d04 	ldrbmi	r4, [r3, #-3332]	; 0xfffff2fc
 8002a68:	00000043 	andeq	r0, r0, r3, asr #32

08002a6c <CA_MSEC>:
 8002a6c:	20000678 	andcs	r0, r0, r8, ror r6

08002a70 <LF_TIMER>:
 8002a70:	08002a64 	stmdaeq	r0, {r2, r5, r6, r9, fp, sp}

08002a74 <_TIMER>:
 8002a74:	4d495405 	cfstrdmi	mvd5, [r9, #-20]	; 0xffffffec
 8002a78:	00005245 	andeq	r5, r0, r5, asr #4

08002a7c <CA_TIMER>:
 8002a7c:	20000684 	andcs	r0, r0, r4, lsl #13

08002a80 <LF_TBOOT>:
 8002a80:	08002a74 	stmdaeq	r0, {r2, r4, r5, r6, r9, fp, sp}

08002a84 <_TBOOT>:
 8002a84:	4f422705 	svcmi	0x00422705
 8002a88:	0000544f 	andeq	r5, r0, pc, asr #8

08002a8c <CA_TBOOT>:
 8002a8c:	20000690 	mulcs	r0, r0, r6

08002a90 <LF_BASE>:
 8002a90:	08002a84 	stmdaeq	r0, {r2, r7, r9, fp, sp}

08002a94 <_BASE>:
 8002a94:	53414204 	movtpl	r4, #4612	; 0x1204
 8002a98:	00000045 	andeq	r0, r0, r5, asr #32

08002a9c <CA_BASE>:
 8002a9c:	2000069c 	mulcs	r0, ip, r6

08002aa0 <LF_SPAN>:
 8002aa0:	08002a94 	stmdaeq	r0, {r2, r4, r7, r9, fp, sp}

08002aa4 <_SPAN>:
 8002aa4:	41505304 	cmpmi	r0, r4, lsl #6
 8002aa8:	0000004e 	andeq	r0, r0, lr, asr #32

08002aac <CA_SPAN>:
 8002aac:	200006b0 			; <UNDEFINED> instruction: 0x200006b0

08002ab0 <LF_INN>:
 8002ab0:	08002aa4 	stmdaeq	r0, {r2, r5, r7, r9, fp, sp}

08002ab4 <_INN>:
 8002ab4:	4e493e03 	cdpmi	14, 4, cr3, cr9, cr3, {0}

08002ab8 <CA_INN>:
 8002ab8:	200006bc 			; <UNDEFINED> instruction: 0x200006bc

08002abc <LF_NTIB>:
 8002abc:	08002ab4 	stmdaeq	r0, {r2, r4, r5, r7, r9, fp, sp}

08002ac0 <_NTIB>:
 8002ac0:	49542304 	ldmdbmi	r4, {r2, r8, r9, sp}^
 8002ac4:	00000042 	andeq	r0, r0, r2, asr #32

08002ac8 <CA_NTIB>:
 8002ac8:	200006c8 	andcs	r0, r0, r8, asr #13

08002acc <LF_TEVAL>:
 8002acc:	08002ac0 	stmdaeq	r0, {r6, r7, r9, fp, sp}

08002ad0 <_TEVAL>:
 8002ad0:	56452705 	strbpl	r2, [r5], -r5, lsl #14
 8002ad4:	00004c41 	andeq	r4, r0, r1, asr #24

08002ad8 <CA_TEVAL>:
 8002ad8:	200006d4 	ldrdcs	r0, [r0], -r4

08002adc <LF_HLD>:
 8002adc:	08002ad0 	stmdaeq	r0, {r4, r6, r7, r9, fp, sp}

08002ae0 <_HLD>:
 8002ae0:	444c4803 	strbmi	r4, [ip], #-2051	; 0xfffff7fd

08002ae4 <CA_HLD>:
 8002ae4:	200006e0 	andcs	r0, r0, r0, ror #13

08002ae8 <LF_CNTXT>:
 8002ae8:	08002ae0 	stmdaeq	r0, {r5, r6, r7, r9, fp, sp}

08002aec <_CNTXT>:
 8002aec:	4e4f4307 	cdpmi	3, 4, cr4, cr15, cr7, {0}
 8002af0:	54584554 	ldrbpl	r4, [r8], #-1364	; 0xfffffaac

08002af4 <CA_CNTXT>:
 8002af4:	200006ec 	andcs	r0, r0, ip, ror #13

08002af8 <LF_CPP>:
 8002af8:	08002aec 	stmdaeq	r0, {r2, r3, r5, r6, r7, r9, fp, sp}

08002afc <_CPP>:
 8002afc:	00504302 	subseq	r4, r0, r2, lsl #6

08002b00 <CA_CPP>:
 8002b00:	200006f8 	strdcs	r0, [r0], -r8

08002b04 <LF_FCP>:
 8002b04:	08002afc 	stmdaeq	r0, {r2, r3, r4, r5, r6, r7, r9, fp, sp}

08002b08 <_FCP>:
 8002b08:	50434603 	subpl	r4, r3, r3, lsl #12

08002b0c <CA_FCP>:
 8002b0c:	20000704 	andcs	r0, r0, r4, lsl #14

08002b10 <LF_LAST>:
 8002b10:	08002b08 	stmdaeq	r0, {r3, r8, r9, fp, sp}

08002b14 <_LAST>:
 8002b14:	53414c04 	movtpl	r4, #7172	; 0x1c04
 8002b18:	00000054 	andeq	r0, r0, r4, asr r0

08002b1c <CA_LAST>:
 8002b1c:	20000710 	andcs	r0, r0, r0, lsl r7

08002b20 <LF_USER_BEGIN>:
 8002b20:	08002b14 	stmdaeq	r0, {r2, r4, r8, r9, fp, sp}

08002b24 <_USER_BEGIN>:
 8002b24:	4553550a 	ldrbmi	r5, [r3, #-1290]	; 0xfffffaf6
 8002b28:	45425f52 	strbmi	r5, [r2, #-3922]	; 0xfffff0ae
 8002b2c:	004e4947 	subeq	r4, lr, r7, asr #18

08002b30 <CA_USER_BEGIN>:
 8002b30:	2000071c 	andcs	r0, r0, ip, lsl r7

08002b34 <LF_USER_END>:
 8002b34:	08002b24 	stmdaeq	r0, {r2, r5, r8, r9, fp, sp}

08002b38 <_USER_END>:
 8002b38:	45535508 	ldrbmi	r5, [r3, #-1288]	; 0xfffffaf8
 8002b3c:	4e455f52 	mcrmi	15, 2, r5, cr5, cr2, {2}
 8002b40:	00000044 	andeq	r0, r0, r4, asr #32

08002b44 <CA_USER_END>:
 8002b44:	20000728 	andcs	r0, r0, r8, lsr #14

08002b48 <LF_IMG_ADR>:
 8002b48:	08002b38 	stmdaeq	r0, {r3, r4, r5, r8, r9, fp, sp}

08002b4c <_IMG_ADR>:
 8002b4c:	474d4907 	strbmi	r4, [sp, -r7, lsl #18]
 8002b50:	5244415f 	subpl	r4, r4, #-1073741801	; 0xc0000017

08002b54 <CA_IMG_ADR>:
 8002b54:	20000738 	andcs	r0, r0, r8, lsr r7

08002b58 <LF_IMG_SIGN>:
 8002b58:	08002b4c 	stmdaeq	r0, {r2, r3, r6, r8, r9, fp, sp}

08002b5c <_IMG_SIGN>:
 8002b5c:	474d4908 	strbmi	r4, [sp, -r8, lsl #18]
 8002b60:	4749535f 	smlsldmi	r5, r9, pc, r3	; <UNPREDICTABLE>
 8002b64:	0000004e 	andeq	r0, r0, lr, asr #32

08002b68 <CA_IMG_SIGN>:
 8002b68:	20000744 	andcs	r0, r0, r4, asr #14

08002b6c <LF_WITHI>:
 8002b6c:	08002b5c 	stmdaeq	r0, {r2, r3, r4, r6, r8, r9, fp, sp}

08002b70 <_WITHI>:
 8002b70:	54495706 	strbpl	r5, [r9], #-1798	; 0xfffff8fa
 8002b74:	004e4948 	subeq	r4, lr, r8, asr #18

08002b78 <CA_WITHI>:
 8002b78:	20000750 	andcs	r0, r0, r0, asr r7

08002b7c <LF_UMMOD>:
 8002b7c:	08002b70 	stmdaeq	r0, {r4, r5, r6, r8, r9, fp, sp}

08002b80 <_UMMOD>:
 8002b80:	2f4d5506 	svccs	0x004d5506
 8002b84:	00444f4d 	subeq	r4, r4, sp, asr #30

08002b88 <CA_UMMOD>:
 8002b88:	20000770 	andcs	r0, r0, r0, ror r7

08002b8c <LF_MSMOD>:
 8002b8c:	08002b80 	stmdaeq	r0, {r7, r8, r9, fp, sp}

08002b90 <_MSMOD>:
 8002b90:	4d2f4d05 	stcmi	13, cr4, [pc, #-20]!	; 8002b84 <_UMMOD+0x4>
 8002b94:	0000444f 	andeq	r4, r0, pc, asr #8

08002b98 <CA_MSMOD>:
 8002b98:	200007a0 	andcs	r0, r0, r0, lsr #15

08002b9c <LF_SLMOD>:
 8002b9c:	08002b90 	stmdaeq	r0, {r4, r7, r8, r9, fp, sp}

08002ba0 <_SLMOD>:
 8002ba0:	4f4d2f04 	svcmi	0x004d2f04
 8002ba4:	00000044 	andeq	r0, r0, r4, asr #32

08002ba8 <CA_SLMOD>:
 8002ba8:	2000080c 	andcs	r0, r0, ip, lsl #16

08002bac <LF_MODD>:
 8002bac:	08002ba0 	stmdaeq	r0, {r5, r7, r8, r9, fp, sp}

08002bb0 <_MODD>:
 8002bb0:	444f4d03 	strbmi	r4, [pc], #-3331	; 8002bb8 <CA_MODD>
 8002bb4:	00000044 	andeq	r0, r0, r4, asr #32

08002bb8 <CA_MODD>:
 8002bb8:	20000824 	andcs	r0, r0, r4, lsr #16

08002bbc <LF_SLASH>:
 8002bbc:	08002bb0 	stmdaeq	r0, {r4, r5, r7, r8, r9, fp, sp}

08002bc0 <_SLASH>:
 8002bc0:	00002f01 	andeq	r2, r0, r1, lsl #30

08002bc4 <CA_SLASH>:
 8002bc4:	20000834 	andcs	r0, r0, r4, lsr r8

08002bc8 <LF_SSMOD>:
 8002bc8:	08002bc0 	stmdaeq	r0, {r6, r7, r8, r9, fp, sp}

08002bcc <_SSMOD>:
 8002bcc:	4d2f2a05 	vstmdbmi	pc!, {s4-s8}
 8002bd0:	0000444f 	andeq	r4, r0, pc, asr #8

08002bd4 <CA_SSMOD>:
 8002bd4:	20000848 	andcs	r0, r0, r8, asr #16

08002bd8 <LF_STASL>:
 8002bd8:	08002bcc 	stmdaeq	r0, {r2, r3, r6, r7, r8, r9, fp, sp}

08002bdc <_STASL>:
 8002bdc:	002f2a02 	eoreq	r2, pc, r2, lsl #20

08002be0 <CA_STASL>:
 8002be0:	20000860 	andcs	r0, r0, r0, ror #16

08002be4 <LF_ALGND>:
 8002be4:	08002bdc 	stmdaeq	r0, {r2, r3, r4, r6, r7, r8, r9, fp, sp}

08002be8 <_ALGND>:
 8002be8:	494c4107 	stmdbmi	ip, {r0, r1, r2, r8, lr}^
 8002bec:	44454e47 	strbmi	r4, [r5], #-3655	; 0xfffff1b9

08002bf0 <CA_ALGND>:
 8002bf0:	20000874 	andcs	r0, r0, r4, ror r8

08002bf4 <LF_TCHAR>:
 8002bf4:	08002be8 	stmdaeq	r0, {r3, r5, r6, r7, r8, r9, fp, sp}

08002bf8 <_TCHAR>:
 8002bf8:	48433e05 	stmdami	r3, {r0, r2, r9, sl, fp, ip, sp}^
 8002bfc:	00005241 	andeq	r5, r0, r1, asr #4

08002c00 <CA_TCHAR>:
 8002c00:	20000884 	andcs	r0, r0, r4, lsl #17

08002c04 <LF_DEPTH>:
 8002c04:	08002bf8 	stmdaeq	r0, {r3, r4, r5, r6, r7, r8, r9, fp, sp}

08002c08 <_DEPTH>:
 8002c08:	50454405 	subpl	r4, r5, r5, lsl #8
 8002c0c:	00004854 	andeq	r4, r0, r4, asr r8

08002c10 <CA_DEPTH>:
 8002c10:	200008c4 	andcs	r0, r0, r4, asr #17

08002c14 <LF_PICK>:
 8002c14:	08002c08 	stmdaeq	r0, {r3, sl, fp, sp}

08002c18 <_PICK>:
 8002c18:	43495004 	movtmi	r5, #36868	; 0x9004
 8002c1c:	0000004b 	andeq	r0, r0, fp, asr #32

08002c20 <CA_PICK>:
 8002c20:	200008dc 	ldrdcs	r0, [r0], -ip

08002c24 <LF_HERE>:
 8002c24:	08002c18 	stmdaeq	r0, {r3, r4, sl, fp, sp}

08002c28 <_HERE>:
 8002c28:	52454804 	subpl	r4, r5, #4, 16	; 0x40000
 8002c2c:	00000045 	andeq	r0, r0, r5, asr #32

08002c30 <CA_HERE>:
 8002c30:	200008f8 	strdcs	r0, [r0], -r8

08002c34 <LF_PAD>:
 8002c34:	08002c28 	stmdaeq	r0, {r3, r5, sl, fp, sp}

08002c38 <_PAD>:
 8002c38:	44415004 	strbmi	r5, [r1], #-4

08002c3c <CA_PAD>:
 8002c3c:	20000908 	andcs	r0, r0, r8, lsl #18

08002c40 <LF_TIB>:
 8002c40:	08002c38 	stmdaeq	r0, {r3, r4, r5, sl, fp, sp}

08002c44 <_TIB>:
 8002c44:	42495403 	submi	r5, r9, #50331648	; 0x3000000

08002c48 <CA_TIB>:
 8002c48:	20000918 	andcs	r0, r0, r8, lsl r9

08002c4c <LF_ATEXE>:
 8002c4c:	08002c44 	stmdaeq	r0, {r2, r6, sl, fp, sp}

08002c50 <_ATEXE>:
 8002c50:	58454008 	stmdapl	r5, {r3, lr}^
 8002c54:	54554345 	ldrbpl	r4, [r5], #-837	; 0xfffffcbb
 8002c58:	00000045 	andeq	r0, r0, r5, asr #32

08002c5c <CA_ATEXE>:
 8002c5c:	20000920 	andcs	r0, r0, r0, lsr #18

08002c60 <LF_CMOVE>:
 8002c60:	08002c50 	stmdaeq	r0, {r4, r6, sl, fp, sp}

08002c64 <_CMOVE>:
 8002c64:	4f4d4305 	svcmi	0x004d4305
 8002c68:	00004556 	andeq	r4, r0, r6, asr r5

08002c6c <CA_CMOVE>:
 8002c6c:	20000934 	andcs	r0, r0, r4, lsr r9

08002c70 <LF_MOVE>:
 8002c70:	08002c64 	stmdaeq	r0, {r2, r5, r6, sl, fp, sp}

08002c74 <_MOVE>:
 8002c74:	564f4d04 	strbpl	r4, [pc], -r4, lsl #26
 8002c78:	00000045 	andeq	r0, r0, r5, asr #32

08002c7c <CA_MOVE>:
 8002c7c:	20000958 	andcs	r0, r0, r8, asr r9

08002c80 <LF_FILL>:
 8002c80:	08002c74 	stmdaeq	r0, {r2, r4, r5, r6, sl, fp, sp}

08002c84 <_FILL>:
 8002c84:	4c494604 	mcrrmi	6, 0, r4, r9, cr4
 8002c88:	0000004c 	andeq	r0, r0, ip, asr #32

08002c8c <CA_FILL>:
 8002c8c:	20000980 	andcs	r0, r0, r0, lsl #19

08002c90 <LF_PACKS>:
 8002c90:	08002c84 	stmdaeq	r0, {r2, r7, sl, fp, sp}

08002c94 <_PACKS>:
 8002c94:	43415005 	movtmi	r5, #4101	; 0x1005
 8002c98:	0000244b 	andeq	r2, r0, fp, asr #8

08002c9c <CA_PACKS>:
 8002c9c:	200009a0 	andcs	r0, r0, r0, lsr #19

08002ca0 <LF_DIGIT>:
 8002ca0:	08002c94 	stmdaeq	r0, {r2, r4, r7, sl, fp, sp}

08002ca4 <_DIGIT>:
 8002ca4:	47494405 	strbmi	r4, [r9, -r5, lsl #8]
 8002ca8:	00005449 	andeq	r5, r0, r9, asr #8

08002cac <CA_DIGIT>:
 8002cac:	200009f8 	strdcs	r0, [r0], -r8

08002cb0 <LF_EXTRC>:
 8002cb0:	08002ca4 	stmdaeq	r0, {r2, r5, r7, sl, fp, sp}

08002cb4 <_EXTRC>:
 8002cb4:	54584507 	ldrbpl	r4, [r8], #-1287	; 0xfffffaf9
 8002cb8:	54434152 	strbpl	r4, [r3], #-338	; 0xfffffeae

08002cbc <CA_EXTRC>:
 8002cbc:	20000a1c 	andcs	r0, r0, ip, lsl sl

08002cc0 <LF_BDIGS>:
 8002cc0:	08002cb4 	stmdaeq	r0, {r2, r4, r5, r7, sl, fp, sp}

08002cc4 <_BDIGS>:
 8002cc4:	00233c02 	eoreq	r3, r3, r2, lsl #24

08002cc8 <CA_BDIGS>:
 8002cc8:	20000a3c 	andcs	r0, r0, ip, lsr sl

08002ccc <LF_HOLD>:
 8002ccc:	08002cc4 	stmdaeq	r0, {r2, r6, r7, sl, fp, sp}

08002cd0 <_HOLD>:
 8002cd0:	4c4f4804 	mcrrmi	8, 0, r4, pc, cr4
 8002cd4:	00000044 	andeq	r0, r0, r4, asr #32

08002cd8 <CA_HOLD>:
 8002cd8:	20000a50 	andcs	r0, r0, r0, asr sl

08002cdc <LF_DIG>:
 8002cdc:	08002cd0 	stmdaeq	r0, {r4, r6, r7, sl, fp, sp}

08002ce0 <_DIG>:
 8002ce0:	00002301 	andeq	r2, r0, r1, lsl #6

08002ce4 <CA_DIG>:
 8002ce4:	20000a74 	andcs	r0, r0, r4, ror sl

08002ce8 <LF_DIGS>:
 8002ce8:	08002ce0 	stmdaeq	r0, {r5, r6, r7, sl, fp, sp}

08002cec <_DIGS>:
 8002cec:	00532302 	subseq	r2, r3, r2, lsl #6

08002cf0 <CA_DIGS>:
 8002cf0:	20000a8c 	andcs	r0, r0, ip, lsl #21

08002cf4 <LF_SIGN>:
 8002cf4:	08002cec 	stmdaeq	r0, {r2, r3, r5, r6, r7, sl, fp, sp}

08002cf8 <_SIGN>:
 8002cf8:	47495304 	strbmi	r5, [r9, -r4, lsl #6]
 8002cfc:	0000004e 	andeq	r0, r0, lr, asr #32

08002d00 <CA_SIGN>:
 8002d00:	20000aa8 	andcs	r0, r0, r8, lsr #21

08002d04 <LF_EDIGS>:
 8002d04:	08002cf8 	stmdaeq	r0, {r3, r4, r5, r6, r7, sl, fp, sp}

08002d08 <_EDIGS>:
 8002d08:	003e2302 	eorseq	r2, lr, r2, lsl #6

08002d0c <CA_EDIGS>:
 8002d0c:	20000ac8 	andcs	r0, r0, r8, asr #21

08002d10 <LF_HEX>:
 8002d10:	08002d08 	stmdaeq	r0, {r3, r8, sl, fp, sp}

08002d14 <_HEX>:
 8002d14:	58454803 	stmdapl	r5, {r0, r1, fp, lr}^

08002d18 <CA_HEX>:
 8002d18:	20000b10 	andcs	r0, r0, r0, lsl fp

08002d1c <LF_DECIM>:
 8002d1c:	08002d14 	stmdaeq	r0, {r2, r4, r8, sl, fp, sp}

08002d20 <_DECIM>:
 8002d20:	43454407 	movtmi	r4, #21511	; 0x5407
 8002d24:	4c414d49 	mcrrmi	13, 4, r4, r1, cr9

08002d28 <CA_DECIM>:
 8002d28:	20000b28 	andcs	r0, r0, r8, lsr #22

08002d2c <LF_DIGTQ>:
 8002d2c:	08002d20 	stmdaeq	r0, {r5, r8, sl, fp, sp}

08002d30 <_DIGTQ>:
 8002d30:	47494406 	strbmi	r4, [r9, -r6, lsl #8]
 8002d34:	003f5449 	eorseq	r5, pc, r9, asr #8

08002d38 <CA_DIGTQ>:
 8002d38:	20000b40 	andcs	r0, r0, r0, asr #22

08002d3c <LF_NUMBQ>:
 8002d3c:	08002d30 	stmdaeq	r0, {r4, r5, r8, sl, fp, sp}

08002d40 <_NUMBQ>:
 8002d40:	4d554e07 	ldclmi	14, cr4, [r5, #-28]	; 0xffffffe4
 8002d44:	3f524542 	svccc	0x00524542

08002d48 <CA_NUMBQ>:
 8002d48:	20000b9c 	mulcs	r0, ip, fp

08002d4c <LF_KEY>:
 8002d4c:	08002d40 	stmdaeq	r0, {r6, r8, sl, fp, sp}

08002d50 <_KEY>:
 8002d50:	59454b03 	stmdbpl	r5, {r0, r1, r8, r9, fp, lr}^

08002d54 <CA_KEY>:
 8002d54:	20000cc8 	andcs	r0, r0, r8, asr #25

08002d58 <LF_SPACE>:
 8002d58:	08002d50 	stmdaeq	r0, {r4, r6, r8, sl, fp, sp}

08002d5c <_SPACE>:
 8002d5c:	41505305 	cmpmi	r0, r5, lsl #6
 8002d60:	00004543 	andeq	r4, r0, r3, asr #10

08002d64 <CA_SPACE>:
 8002d64:	20000cdc 	ldrdcs	r0, [r0], -ip

08002d68 <LF_SPACS>:
 8002d68:	08002d5c 	stmdaeq	r0, {r2, r3, r4, r6, r8, sl, fp, sp}

08002d6c <_SPACS>:
 8002d6c:	41505306 	cmpmi	r0, r6, lsl #6
 8002d70:	00534543 	subseq	r4, r3, r3, asr #10

08002d74 <CA_SPACS>:
 8002d74:	20000cec 	andcs	r0, r0, ip, ror #25

08002d78 <LF_TYPEE>:
 8002d78:	08002d6c 	stmdaeq	r0, {r2, r3, r5, r6, r8, sl, fp, sp}

08002d7c <_TYPEE>:
 8002d7c:	50595404 	subspl	r5, r9, r4, lsl #8
 8002d80:	00000045 	andeq	r0, r0, r5, asr #32

08002d84 <CA_TYPEE>:
 8002d84:	20000d14 	andcs	r0, r0, r4, lsl sp

08002d88 <LF_CR>:
 8002d88:	08002d7c 	stmdaeq	r0, {r2, r3, r4, r5, r6, r8, sl, fp, sp}

08002d8c <_CR>:
 8002d8c:	00524302 	subseq	r4, r2, r2, lsl #6

08002d90 <CA_CR>:
 8002d90:	20000d3c 	andcs	r0, r0, ip, lsr sp

08002d94 <LF_DOTR>:
 8002d94:	08002d8c 	stmdaeq	r0, {r2, r3, r7, r8, sl, fp, sp}

08002d98 <_DOTR>:
 8002d98:	00522e02 	subseq	r2, r2, r2, lsl #28

08002d9c <CA_DOTR>:
 8002d9c:	20000dbc 			; <UNDEFINED> instruction: 0x20000dbc

08002da0 <LF_UDOTR>:
 8002da0:	08002d98 	stmdaeq	r0, {r3, r4, r7, r8, sl, fp, sp}

08002da4 <_UDOTR>:
 8002da4:	522e5503 	eorpl	r5, lr, #12582912	; 0xc00000

08002da8 <CA_UDOTR>:
 8002da8:	20000de0 	andcs	r0, r0, r0, ror #27

08002dac <LF_UDOT>:
 8002dac:	08002da4 	stmdaeq	r0, {r2, r5, r7, r8, sl, fp, sp}

08002db0 <_UDOT>:
 8002db0:	002e5502 	eoreq	r5, lr, r2, lsl #10

08002db4 <CA_UDOT>:
 8002db4:	20000e0c 	andcs	r0, r0, ip, lsl #28

08002db8 <LF_HDOT>:
 8002db8:	08002db0 	stmdaeq	r0, {r4, r5, r7, r8, sl, fp, sp}

08002dbc <_HDOT>:
 8002dbc:	002e4802 	eoreq	r4, lr, r2, lsl #16

08002dc0 <CA_HDOT>:
 8002dc0:	20000e28 	andcs	r0, r0, r8, lsr #28

08002dc4 <LF_DOT>:
 8002dc4:	08002dbc 	stmdaeq	r0, {r2, r3, r4, r5, r7, r8, sl, fp, sp}

08002dc8 <_DOT>:
 8002dc8:	00002e01 	andeq	r2, r0, r1, lsl #28

08002dcc <CA_DOT>:
 8002dcc:	20000e50 	andcs	r0, r0, r0, asr lr

08002dd0 <LF_QUEST>:
 8002dd0:	08002dc8 	stmdaeq	r0, {r3, r6, r7, r8, sl, fp, sp}

08002dd4 <_QUEST>:
 8002dd4:	00003f01 	andeq	r3, r0, r1, lsl #30

08002dd8 <CA_QUEST>:
 8002dd8:	20000e88 	andcs	r0, r0, r8, lsl #29

08002ddc <LF_PARSE>:
 8002ddc:	08002dd4 	stmdaeq	r0, {r2, r4, r6, r7, r8, sl, fp, sp}

08002de0 <_PARSE>:
 8002de0:	52415005 	subpl	r5, r1, #5
 8002de4:	00004553 	andeq	r4, r0, r3, asr r5

08002de8 <CA_PARSE>:
 8002de8:	20000fb8 			; <UNDEFINED> instruction: 0x20000fb8

08002dec <LF_DOTPR>:
 8002dec:	08002de0 	stmdaeq	r0, {r5, r6, r7, r8, sl, fp, sp}

08002df0 <_DOTPR>:
 8002df0:	00282e82 	eoreq	r2, r8, r2, lsl #29

08002df4 <CA_DOTPR>:
 8002df4:	20000ff8 	strdcs	r0, [r0], -r8

08002df8 <LF_PAREN>:
 8002df8:	08002df0 	stmdaeq	r0, {r4, r5, r6, r7, r8, sl, fp, sp}

08002dfc <_PAREN>:
 8002dfc:	00002881 	andeq	r2, r0, r1, lsl #17

08002e00 <CA_PAREN>:
 8002e00:	20001010 	andcs	r1, r0, r0, lsl r0

08002e04 <LF_BKSLA>:
 8002e04:	08002dfc 	stmdaeq	r0, {r2, r3, r4, r5, r6, r7, r8, sl, fp, sp}

08002e08 <_BKSLA>:
 8002e08:	00005c01 	andeq	r5, r0, r1, lsl #24

08002e0c <CA_BKSLA>:
 8002e0c:	20001028 	andcs	r1, r0, r8, lsr #32

08002e10 <LF_CAHR>:
 8002e10:	08002e08 	stmdaeq	r0, {r3, r9, sl, fp, sp}

08002e14 <_CAHR>:
 8002e14:	41484304 	cmpmi	r8, r4, lsl #6
 8002e18:	00000052 	andeq	r0, r0, r2, asr r0

08002e1c <CA_CAHR>:
 8002e1c:	20001040 	andcs	r1, r0, r0, asr #32

08002e20 <LF_WORDD>:
 8002e20:	08002e14 	stmdaeq	r0, {r2, r4, r9, sl, fp, sp}

08002e24 <_WORDD>:
 8002e24:	524f5704 	subpl	r5, pc, #4, 14	; 0x100000
 8002e28:	00000044 	andeq	r0, r0, r4, asr #32

08002e2c <CA_WORDD>:
 8002e2c:	20001058 	andcs	r1, r0, r8, asr r0

08002e30 <LF_TOKEN>:
 8002e30:	08002e24 	stmdaeq	r0, {r2, r5, r9, sl, fp, sp}

08002e34 <_TOKEN>:
 8002e34:	4b4f5405 	blmi	93d7e50 <OPTKEY1+0x1245415>
 8002e38:	00004e45 	andeq	r4, r0, r5, asr #28

08002e3c <CA_TOKEN>:
 8002e3c:	20001070 	andcs	r1, r0, r0, ror r0

08002e40 <LF_TOCFA>:
 8002e40:	08002e34 	stmdaeq	r0, {r2, r4, r5, r9, sl, fp, sp}

08002e44 <_TOCFA>:
 8002e44:	46433e04 	strbmi	r3, [r3], -r4, lsl #28
 8002e48:	00000041 	andeq	r0, r0, r1, asr #32

08002e4c <CA_TOCFA>:
 8002e4c:	20001080 	andcs	r1, r0, r0, lsl #1

08002e50 <LF_NAMET>:
 8002e50:	08002e44 	stmdaeq	r0, {r2, r6, r9, sl, fp, sp}

08002e54 <_NAMET>:
 8002e54:	4d414e05 	stclmi	14, cr4, [r1, #-20]	; 0xffffffec
 8002e58:	00003e45 	andeq	r3, r0, r5, asr #28

08002e5c <CA_NAMET>:
 8002e5c:	200010a0 	andcs	r1, r0, r0, lsr #1

08002e60 <LF_SAMEQ>:
 8002e60:	08002e54 	stmdaeq	r0, {r2, r4, r6, r9, sl, fp, sp}

08002e64 <_SAMEQ>:
 8002e64:	4d415305 	stclmi	3, cr5, [r1, #-20]	; 0xffffffec
 8002e68:	00003f45 	andeq	r3, r0, r5, asr #30

08002e6c <CA_SAMEQ>:
 8002e6c:	200010b0 	strhcs	r1, [r0], -r0

08002e70 <LF_NAMEQ>:
 8002e70:	08002e64 	stmdaeq	r0, {r2, r5, r6, r9, sl, fp, sp}

08002e74 <_NAMEQ>:
 8002e74:	4d414e05 	stclmi	14, cr4, [r1, #-20]	; 0xffffffec
 8002e78:	00003f45 	andeq	r3, r0, r5, asr #30

08002e7c <CA_NAMEQ>:
 8002e7c:	200011d0 	ldrdcs	r1, [r0], -r0

08002e80 <LF_ACCEP>:
 8002e80:	08002e74 	stmdaeq	r0, {r2, r4, r5, r6, r9, sl, fp, sp}

08002e84 <_ACCEP>:
 8002e84:	43434106 	movtmi	r4, #12550	; 0x3106
 8002e88:	00545045 	subseq	r5, r4, r5, asr #32

08002e8c <CA_ACCEP>:
 8002e8c:	200012a8 	andcs	r1, r0, r8, lsr #5

08002e90 <LF_QUERY>:
 8002e90:	08002e84 	stmdaeq	r0, {r2, r7, r9, sl, fp, sp}

08002e94 <_QUERY>:
 8002e94:	45555105 	ldrbmi	r5, [r5, #-261]	; 0xfffffefb
 8002e98:	00005952 	andeq	r5, r0, r2, asr r9

08002e9c <CA_QUERY>:
 8002e9c:	20001304 	andcs	r1, r0, r4, lsl #6

08002ea0 <LF_ABORT>:
 8002ea0:	08002e94 	stmdaeq	r0, {r2, r4, r7, r9, sl, fp, sp}

08002ea4 <_ABORT>:
 8002ea4:	4f424105 	svcmi	0x00424105
 8002ea8:	00005452 	andeq	r5, r0, r2, asr r4

08002eac <CA_ABORT>:
 8002eac:	20001338 	andcs	r1, r0, r8, lsr r3

08002eb0 <LF_INTER>:
 8002eb0:	08002ea4 	stmdaeq	r0, {r2, r5, r7, r9, sl, fp, sp}

08002eb4 <_INTER>:
 8002eb4:	4e49240a 	cdpmi	4, 4, cr2, cr9, cr10, {0}
 8002eb8:	50524554 	subspl	r4, r2, r4, asr r5
 8002ebc:	00544552 	subseq	r4, r4, r2, asr r5

08002ec0 <CA_INTER>:
 8002ec0:	20001380 	andcs	r1, r0, r0, lsl #7

08002ec4 <LF_LBRAC>:
 8002ec4:	08002eb4 	stmdaeq	r0, {r2, r4, r5, r7, r9, sl, fp, sp}

08002ec8 <_LBRAC>:
 8002ec8:	00005b81 	andeq	r5, r0, r1, lsl #23

08002ecc <CA_LBRAC>:
 8002ecc:	200013d4 	ldrdcs	r1, [r0], -r4

08002ed0 <LF_DOTOK>:
 8002ed0:	08002ec8 	stmdaeq	r0, {r3, r6, r7, r9, sl, fp, sp}

08002ed4 <_DOTOK>:
 8002ed4:	4b4f2e03 	blmi	93ce6e8 <OPTKEY1+0x123bcad>

08002ed8 <CA_DOTOK>:
 8002ed8:	200013ec 	andcs	r1, r0, ip, ror #7

08002edc <LF_QSTAC>:
 8002edc:	08002ed4 	stmdaeq	r0, {r2, r4, r6, r7, r9, sl, fp, sp}

08002ee0 <_QSTAC>:
 8002ee0:	54533f06 	ldrbpl	r3, [r3], #-3846	; 0xfffff0fa
 8002ee4:	004b4341 	subeq	r4, fp, r1, asr #6

08002ee8 <CA_QSTAC>:
 8002ee8:	2000141c 	andcs	r1, r0, ip, lsl r4

08002eec <LF_EVAL>:
 8002eec:	08002ee0 	stmdaeq	r0, {r5, r6, r7, r9, sl, fp, sp}

08002ef0 <_EVAL>:
 8002ef0:	41564504 	cmpmi	r6, r4, lsl #10
 8002ef4:	0000004c 	andeq	r0, r0, ip, asr #32

08002ef8 <CA_EVAL>:
 8002ef8:	2000143c 	andcs	r1, r0, ip, lsr r4

08002efc <LF_PRESE>:
 8002efc:	08002ef0 	stmdaeq	r0, {r4, r5, r6, r7, r9, sl, fp, sp}

08002f00 <_PRESE>:
 8002f00:	45525006 	ldrbmi	r5, [r2, #-6]
 8002f04:	00544553 	subseq	r4, r4, r3, asr r5

08002f08 <CA_PRESE>:
 8002f08:	20001470 	andcs	r1, r0, r0, ror r4

08002f0c <LF_QUIT>:
 8002f0c:	08002f00 	stmdaeq	r0, {r8, r9, sl, fp, sp}

08002f10 <_QUIT>:
 8002f10:	49555104 	ldmdbmi	r5, {r2, r8, ip, lr}^
 8002f14:	00000054 	andeq	r0, r0, r4, asr r0

08002f18 <CA_QUIT>:
 8002f18:	20001484 	andcs	r1, r0, r4, lsl #9

08002f1c <LF_UNLOCK>:
 8002f1c:	08002f10 	stmdaeq	r0, {r4, r8, r9, sl, fp, sp}

08002f20 <_UNLOCK>:
 8002f20:	4c4e5506 	cfstr64mi	mvdx5, [lr], {6}
 8002f24:	004b434f 	subeq	r4, fp, pc, asr #6

08002f28 <CA_UNLOCK>:
 8002f28:	200014a4 	andcs	r1, r0, r4, lsr #9

08002f2c <LF_EPAGE>:
 8002f2c:	08002f20 	stmdaeq	r0, {r5, r8, r9, sl, fp, sp}

08002f30 <_EPAGE>:
 8002f30:	4152450a 	cmpmi	r2, sl, lsl #10
 8002f34:	505f4553 	subspl	r4, pc, r3, asr r5	; <UNPREDICTABLE>
 8002f38:	00454741 	subeq	r4, r5, r1, asr #14

08002f3c <CA_EPAGE>:
 8002f3c:	200014e4 	andcs	r1, r0, r4, ror #9

08002f40 <LF_ISTOR>:
 8002f40:	08002f30 	stmdaeq	r0, {r4, r5, r8, r9, sl, fp, sp}

08002f44 <_ISTOR>:
 8002f44:	00214902 	eoreq	r4, r1, r2, lsl #18

08002f48 <CA_ISTOR>:
 8002f48:	20001570 	andcs	r1, r0, r0, ror r5

08002f4c <LF_IMG_SIZE>:
 8002f4c:	08002f44 	stmdaeq	r0, {r2, r6, r8, r9, sl, fp, sp}

08002f50 <_IMG_SIZE>:
 8002f50:	474d4908 	strbmi	r4, [sp, -r8, lsl #18]
 8002f54:	5a49535f 	bpl	9257cd8 <OPTKEY1+0x10c529d>
 8002f58:	00000045 	andeq	r0, r0, r5, asr #32

08002f5c <CA_IMG_SIZE>:
 8002f5c:	200015b8 			; <UNDEFINED> instruction: 0x200015b8

08002f60 <LF_IMGQ>:
 8002f60:	08002f50 	stmdaeq	r0, {r4, r6, r8, r9, sl, fp, sp}

08002f64 <_IMGQ>:
 8002f64:	474d4904 	strbmi	r4, [sp, -r4, lsl #18]
 8002f68:	0000003f 	andeq	r0, r0, pc, lsr r0

08002f6c <CA_IMGQ>:
 8002f6c:	200015f4 	strdcs	r1, [r0], -r4

08002f70 <LF_LOAD_IMG>:
 8002f70:	08002f64 	stmdaeq	r0, {r2, r5, r6, r8, r9, sl, fp, sp}

08002f74 <_LOAD_IMG>:
 8002f74:	414f4c08 	cmpmi	pc, r8, lsl #24
 8002f78:	4d495f44 	stclmi	15, cr5, [r9, #-272]	; 0xfffffef0
 8002f7c:	00000047 	andeq	r0, r0, r7, asr #32

08002f80 <CA_LOAD_IMG>:
 8002f80:	20001614 	andcs	r1, r0, r4, lsl r6

08002f84 <LF_ERASE_MPG>:
 8002f84:	08002f74 	stmdaeq	r0, {r2, r4, r5, r6, r8, r9, sl, fp, sp}

08002f88 <_ERASE_MPG>:
 8002f88:	41524509 	cmpmi	r2, r9, lsl #10
 8002f8c:	4d5f4553 	cfldr64mi	mvdx4, [pc, #-332]	; 8002e48 <_TOCFA+0x4>
 8002f90:	00004750 	andeq	r4, r0, r0, asr r7

08002f94 <CA_ERASE_MPG>:
 8002f94:	2000166c 	andcs	r1, r0, ip, ror #12

08002f98 <LF_FLSH_WR>:
 8002f98:	08002f88 	stmdaeq	r0, {r3, r7, r8, r9, sl, fp, sp}

08002f9c <_FLSH_WR>:
 8002f9c:	534c4607 	movtpl	r4, #50695	; 0xc607
 8002fa0:	52575f48 	subspl	r5, r7, #72, 30	; 0x120

08002fa4 <CA_FLSH_WR>:
 8002fa4:	200016a4 	andcs	r1, r0, r4, lsr #13

08002fa8 <LF_ADR_TO_PG>:
 8002fa8:	08002f9c 	stmdaeq	r0, {r2, r3, r4, r7, r8, r9, sl, fp, sp}

08002fac <_ADR_TO_PG>:
 8002fac:	52444106 	subpl	r4, r4, #-2147483647	; 0x80000001
 8002fb0:	0047503e 	subeq	r5, r7, lr, lsr r0

08002fb4 <CA_ADR_TO_PG>:
 8002fb4:	200016ec 	andcs	r1, r0, ip, ror #13

08002fb8 <LF_PG_TO_ADR>:
 8002fb8:	08002fac 	stmdaeq	r0, {r2, r3, r5, r7, r8, r9, sl, fp, sp}

08002fbc <_PG_TO_ADR>:
 8002fbc:	3e475006 	cdpcc	0, 4, cr5, cr7, cr6, {0}
 8002fc0:	00524441 	subseq	r4, r2, r1, asr #8

08002fc4 <CA_PG_TO_ADR>:
 8002fc4:	200016f8 	strdcs	r1, [r0], -r8

08002fc8 <LF_ERASE_IMG>:
 8002fc8:	08002fbc 	stmdaeq	r0, {r2, r3, r4, r5, r7, r8, r9, sl, fp, sp}

08002fcc <_ERASE_IMG>:
 8002fcc:	41524509 	cmpmi	r2, r9, lsl #10
 8002fd0:	495f4553 	ldmdbmi	pc, {r0, r1, r4, r6, r8, sl, lr}^	; <UNPREDICTABLE>
 8002fd4:	0000474d 	andeq	r4, r0, sp, asr #14

08002fd8 <CA_ERASE_IMG>:
 8002fd8:	20001704 	andcs	r1, r0, r4, lsl #14

08002fdc <LF_SAVE_IMG>:
 8002fdc:	08002fcc 	stmdaeq	r0, {r2, r3, r6, r7, r8, r9, sl, fp, sp}

08002fe0 <_SAVE_IMG>:
 8002fe0:	56415308 	strbpl	r5, [r1], -r8, lsl #6
 8002fe4:	4d495f45 	stclmi	15, cr5, [r9, #-276]	; 0xfffffeec
 8002fe8:	00000047 	andeq	r0, r0, r7, asr #32

08002fec <CA_SAVE_IMG>:
 8002fec:	20001738 	andcs	r1, r0, r8, lsr r7

08002ff0 <LF_TURNKEY>:
 8002ff0:	08002fe0 	stmdaeq	r0, {r5, r6, r7, r8, r9, sl, fp, sp}

08002ff4 <_TURNKEY>:
 8002ff4:	52555407 	subspl	r5, r5, #117440512	; 0x7000000
 8002ff8:	59454b4e 	stmdbpl	r5, {r1, r2, r3, r6, r8, r9, fp, lr}^

08002ffc <CA_TURNKEY>:
 8002ffc:	2000179c 	mulcs	r0, ip, r7

08003000 <LF_FORGET>:
 8003000:	08002ff4 	stmdaeq	r0, {r2, r4, r5, r6, r7, r8, r9, sl, fp, sp}

08003004 <_FORGET>:
 8003004:	524f4606 	subpl	r4, pc, #6291456	; 0x600000
 8003008:	00544547 	subseq	r4, r4, r7, asr #10

0800300c <CA_FORGET>:
 800300c:	200017b4 			; <UNDEFINED> instruction: 0x200017b4

08003010 <LF_TICK>:
 8003010:	08003004 	stmdaeq	r0, {r2, ip, sp}

08003014 <_TICK>:
 8003014:	00002701 	andeq	r2, r0, r1, lsl #14

08003018 <CA_TICK>:
 8003018:	20001810 	andcs	r1, r0, r0, lsl r8

0800301c <LF_ALLOT>:
 800301c:	08003014 	stmdaeq	r0, {r2, r4, ip, sp}

08003020 <_ALLOT>:
 8003020:	4c4c4105 	stfmie	f4, [ip], {5}
 8003024:	0000544f 	andeq	r5, r0, pc, asr #8

08003028 <CA_ALLOT>:
 8003028:	2000182c 	andcs	r1, r0, ip, lsr #16

0800302c <LF_COMMA>:
 800302c:	08003020 	stmdaeq	r0, {r5, ip, sp}

08003030 <_COMMA>:
 8003030:	00002c01 	andeq	r2, r0, r1, lsl #24

08003034 <CA_COMMA>:
 8003034:	2000183c 	andcs	r1, r0, ip, lsr r8

08003038 <LF_BCOMP>:
 8003038:	08003030 	stmdaeq	r0, {r4, r5, ip, sp}

0800303c <_BCOMP>:
 800303c:	4f435b89 	svcmi	0x00435b89
 8003040:	4c49504d 	mcrrmi	0, 4, r5, r9, cr13
 8003044:	00005d45 	andeq	r5, r0, r5, asr #26

08003048 <CA_BCOMP>:
 8003048:	2000185c 	andcs	r1, r0, ip, asr r8

0800304c <LF_COMPI>:
 800304c:	0800303c 	stmdaeq	r0, {r2, r3, r4, r5, ip, sp}

08003050 <_COMPI>:
 8003050:	4d4f4347 	stclmi	3, cr4, [pc, #-284]	; 8002f3c <CA_EPAGE>
 8003054:	454c4950 	strbmi	r4, [ip, #-2384]	; 0xfffff6b0

08003058 <CA_COMPI>:
 8003058:	2000186c 	andcs	r1, r0, ip, ror #16

0800305c <LF_LITER>:
 800305c:	08003050 	stmdaeq	r0, {r4, r6, ip, sp}

08003060 <_LITER>:
 8003060:	54494c87 	strbpl	r4, [r9], #-3207	; 0xfffff379
 8003064:	4c415245 	sfmmi	f5, 2, [r1], {69}	; 0x45

08003068 <CA_LITER>:
 8003068:	20001894 	mulcs	r0, r4, r8

0800306c <LF_FOR>:
 800306c:	08003060 	stmdaeq	r0, {r5, r6, ip, sp}

08003070 <_FOR>:
 8003070:	524f46c3 	subpl	r4, pc, #204472320	; 0xc300000

08003074 <CA_FOR>:
 8003074:	200018e4 	andcs	r1, r0, r4, ror #17

08003078 <LF_BEGIN>:
 8003078:	08003070 	stmdaeq	r0, {r4, r5, r6, ip, sp}

0800307c <_BEGIN>:
 800307c:	474542c5 	strbmi	r4, [r5, -r5, asr #5]
 8003080:	00004e49 	andeq	r4, r0, r9, asr #28

08003084 <CA_BEGIN>:
 8003084:	200018f8 	strdcs	r1, [r0], -r8

08003088 <LF_NEXT>:
 8003088:	0800307c 	stmdaeq	r0, {r2, r3, r4, r5, r6, ip, sp}

0800308c <_NEXT>:
 800308c:	58454ec4 	stmdapl	r5, {r2, r6, r7, r9, sl, fp, lr}^
 8003090:	00000054 	andeq	r0, r0, r4, asr r0

08003094 <CA_NEXT>:
 8003094:	20001904 	andcs	r1, r0, r4, lsl #18

08003098 <LF_UNTIL>:
 8003098:	0800308c 	stmdaeq	r0, {r2, r3, r7, ip, sp}

0800309c <_UNTIL>:
 800309c:	544e55c5 	strbpl	r5, [lr], #-1477	; 0xfffffa3b
 80030a0:	00004c49 	andeq	r4, r0, r9, asr #24

080030a4 <CA_UNTIL>:
 80030a4:	20001918 	andcs	r1, r0, r8, lsl r9

080030a8 <LF_AGAIN>:
 80030a8:	0800309c 	stmdaeq	r0, {r2, r3, r4, r7, ip, sp}

080030ac <_AGAIN>:
 80030ac:	414741c5 	smlalbtmi	r4, r7, r5, r1
 80030b0:	00004e49 	andeq	r4, r0, r9, asr #28

080030b4 <CA_AGAIN>:
 80030b4:	2000192c 	andcs	r1, r0, ip, lsr #18

080030b8 <LF_IFF>:
 80030b8:	080030ac 	stmdaeq	r0, {r2, r3, r5, r7, ip, sp}

080030bc <_IFF>:
 80030bc:	004649c2 	subeq	r4, r6, r2, asr #19

080030c0 <CA_IFF>:
 80030c0:	20001940 	andcs	r1, r0, r0, asr #18

080030c4 <LF_AHEAD>:
 80030c4:	080030bc 	stmdaeq	r0, {r2, r3, r4, r5, r7, ip, sp}

080030c8 <_AHEAD>:
 80030c8:	454841c5 	strbmi	r4, [r8, #-453]	; 0xfffffe3b
 80030cc:	00004441 	andeq	r4, r0, r1, asr #8

080030d0 <CA_AHEAD>:
 80030d0:	20001964 	andcs	r1, r0, r4, ror #18

080030d4 <LF_REPEA>:
 80030d4:	080030c8 	stmdaeq	r0, {r3, r6, r7, ip, sp}

080030d8 <_REPEA>:
 80030d8:	504552c6 	subpl	r5, r5, r6, asr #5
 80030dc:	00544145 	subseq	r4, r4, r5, asr #2

080030e0 <CA_REPEA>:
 80030e0:	20001988 	andcs	r1, r0, r8, lsl #19

080030e4 <LF_THENN>:
 80030e4:	080030d8 	stmdaeq	r0, {r3, r4, r6, r7, ip, sp}

080030e8 <_THENN>:
 80030e8:	454854c4 	strbmi	r5, [r8, #-1220]	; 0xfffffb3c
 80030ec:	0000004e 	andeq	r0, r0, lr, asr #32

080030f0 <CA_THENN>:
 80030f0:	200019a0 	andcs	r1, r0, r0, lsr #19

080030f4 <LF_AFT>:
 80030f4:	080030e8 	stmdaeq	r0, {r3, r5, r6, r7, ip, sp}

080030f8 <_AFT>:
 80030f8:	544641c3 	strbpl	r4, [r6], #-451	; 0xfffffe3d

080030fc <CA_AFT>:
 80030fc:	200019b4 			; <UNDEFINED> instruction: 0x200019b4

08003100 <LF_ELSEE>:
 8003100:	080030f8 	stmdaeq	r0, {r3, r4, r5, r6, r7, ip, sp}

08003104 <_ELSEE>:
 8003104:	534c45c4 	movtpl	r4, #50628	; 0xc5c4
 8003108:	00000045 	andeq	r0, r0, r5, asr #32

0800310c <CA_ELSEE>:
 800310c:	200019cc 	andcs	r1, r0, ip, asr #19

08003110 <LF_WHILE>:
 8003110:	08003104 	stmdaeq	r0, {r2, r8, ip, sp}

08003114 <_WHILE>:
 8003114:	494857c5 	stmdbmi	r8, {r0, r2, r6, r7, r8, r9, sl, ip, lr}^
 8003118:	0000454c 	andeq	r4, r0, ip, asr #10

0800311c <CA_WHILE>:
 800311c:	200019e0 	andcs	r1, r0, r0, ror #19

08003120 <LF_ABRTQ>:
 8003120:	08003114 	stmdaeq	r0, {r2, r4, r8, ip, sp}

08003124 <_ABRTQ>:
 8003124:	4f424186 	svcmi	0x00424186
 8003128:	00225452 	eoreq	r5, r2, r2, asr r4

0800312c <CA_ABRTQ>:
 800312c:	200019f0 	strdcs	r1, [r0], -r0

08003130 <LF_STRQ>:
 8003130:	08003124 	stmdaeq	r0, {r2, r5, r8, ip, sp}

08003134 <_STRQ>:
 8003134:	00222482 	eoreq	r2, r2, r2, lsl #9

08003138 <CA_STRQ>:
 8003138:	20001a04 	andcs	r1, r0, r4, lsl #20

0800313c <LF_DOTQ>:
 800313c:	08003134 	stmdaeq	r0, {r2, r4, r5, r8, ip, sp}

08003140 <_DOTQ>:
 8003140:	00222ec2 	eoreq	r2, r2, r2, asr #29

08003144 <CA_DOTQ>:
 8003144:	20001a18 	andcs	r1, r0, r8, lsl sl

08003148 <LF_UNIQU>:
 8003148:	08003140 	stmdaeq	r0, {r6, r8, ip, sp}

0800314c <_UNIQU>:
 800314c:	4e553f07 	cdpmi	15, 5, cr3, cr5, cr7, {0}
 8003150:	45555149 	ldrbmi	r5, [r5, #-329]	; 0xfffffeb7

08003154 <CA_UNIQU>:
 8003154:	20001a2c 	andcs	r1, r0, ip, lsr #20

08003158 <LF_SCOMP>:
 8003158:	0800314c 	stmdaeq	r0, {r2, r3, r6, r8, ip, sp}

0800315c <_SCOMP>:
 800315c:	4f432407 	svcmi	0x00432407
 8003160:	4c49504d 	mcrrmi	0, 4, r5, r9, cr13
 8003164:	00000045 	andeq	r0, r0, r5, asr #32

08003168 <CA_SCOMP>:
 8003168:	20001ab8 			; <UNDEFINED> instruction: 0x20001ab8

0800316c <LF_OVERT>:
 800316c:	0800315c 	stmdaeq	r0, {r2, r3, r4, r6, r8, ip, sp}

08003170 <_OVERT>:
 8003170:	45564f05 	ldrbmi	r4, [r6, #-3845]	; 0xfffff0fb
 8003174:	00005452 	andeq	r5, r0, r2, asr r4

08003178 <CA_OVERT>:
 8003178:	20001b3c 	andcs	r1, r0, ip, lsr fp

0800317c <LF_SEMIS>:
 800317c:	08003170 	stmdaeq	r0, {r4, r5, r6, r8, ip, sp}

08003180 <_SEMIS>:
 8003180:	00003bc1 	andeq	r3, r0, r1, asr #23

08003184 <CA_SEMIS>:
 8003184:	20001b54 	andcs	r1, r0, r4, asr fp

08003188 <LF_RBRAC>:
 8003188:	08003180 	stmdaeq	r0, {r7, r8, ip, sp}

0800318c <_RBRAC>:
 800318c:	00005d01 	andeq	r5, r0, r1, lsl #26

08003190 <CA_RBRAC>:
 8003190:	20001b70 	andcs	r1, r0, r0, ror fp

08003194 <LF_COLON>:
 8003194:	0800318c 	stmdaeq	r0, {r2, r3, r7, r8, ip, sp}

08003198 <_COLON>:
 8003198:	00003a01 	andeq	r3, r0, r1, lsl #20

0800319c <CA_COLON>:
 800319c:	20001bec 	andcs	r1, r0, ip, ror #23

080031a0 <LF_IMMED>:
 80031a0:	08003198 	stmdaeq	r0, {r3, r4, r7, r8, ip, sp}

080031a4 <_IMMED>:
 80031a4:	4d4d4909 	vstrmi.16	s9, [sp, #-18]	; 0xffffffee	; <UNPREDICTABLE>
 80031a8:	41494445 	cmpmi	r9, r5, asr #8
 80031ac:	00004554 	andeq	r4, r0, r4, asr r5

080031b0 <CA_IMMED>:
 80031b0:	20001bfc 	strdcs	r1, [r0], -ip

080031b4 <LF_ICOLON>:
 80031b4:	080031a4 	stmdaeq	r0, {r2, r5, r7, r8, ip, sp}

080031b8 <_ICOLON>:
 80031b8:	003a4902 	eorseq	r4, sl, r2, lsl #18

080031bc <CA_ICOLON>:
 80031bc:	20001c28 	andcs	r1, r0, r8, lsr #24

080031c0 <LF_ISEMIS>:
 80031c0:	080031b8 	stmdaeq	r0, {r3, r4, r5, r7, r8, ip, sp}

080031c4 <_ISEMIS>:
 80031c4:	003b49c2 	eorseq	r4, fp, r2, asr #19

080031c8 <CA_ISEMIS>:
 80031c8:	20001c44 	andcs	r1, r0, r4, asr #24

080031cc <LF_HEAD>:
 80031cc:	080031c4 	stmdaeq	r0, {r2, r6, r7, r8, ip, sp}

080031d0 <_HEAD>:
 80031d0:	41454806 	cmpmi	r5, r6, lsl #16
 80031d4:	00524544 	subseq	r4, r2, r4, asr #10

080031d8 <CA_HEAD>:
 80031d8:	20001c68 	andcs	r1, r0, r8, ror #24

080031dc <LF_CONST>:
 80031dc:	080031d0 	stmdaeq	r0, {r4, r6, r7, r8, ip, sp}

080031e0 <_CONST>:
 80031e0:	4e4f4308 	cdpmi	3, 4, cr4, cr15, cr8, {0}
 80031e4:	4e415453 	mcrmi	4, 2, r5, cr1, cr3, {2}
 80031e8:	00000054 	andeq	r0, r0, r4, asr r0

080031ec <CA_CONST>:
 80031ec:	20001c90 	mulcs	r0, r0, ip

080031f0 <LF_DOES>:
 80031f0:	080031e0 	stmdaeq	r0, {r5, r6, r7, r8, ip, sp}

080031f4 <_DOES>:
 80031f4:	454f44c5 	strbmi	r4, [pc, #-1221]	; 8002d37 <_DIGTQ+0x7>
 80031f8:	00003e53 	andeq	r3, r0, r3, asr lr

080031fc <CA_DOES>:
 80031fc:	20001d0c 	andcs	r1, r0, ip, lsl #26

08003200 <LF_CREAT>:
 8003200:	080031f4 	stmdaeq	r0, {r2, r4, r5, r6, r7, r8, ip, sp}

08003204 <_CREAT>:
 8003204:	45524306 	ldrbmi	r4, [r2, #-774]	; 0xfffffcfa
 8003208:	00455441 	subeq	r5, r5, r1, asr #8

0800320c <CA_CREAT>:
 800320c:	20001d38 	andcs	r1, r0, r8, lsr sp

08003210 <LF_VARIA>:
 8003210:	08003204 	stmdaeq	r0, {r2, r9, ip, sp}

08003214 <_VARIA>:
 8003214:	52415608 	subpl	r5, r1, #8, 12	; 0x800000
 8003218:	4c424149 	stfmie	f4, [r2], {73}	; 0x49
 800321c:	00000045 	andeq	r0, r0, r5, asr #32

08003220 <CA_VARIA>:
 8003220:	20001d50 	andcs	r1, r0, r0, asr sp

08003224 <LF_FCALL>:
 8003224:	08003214 	stmdaeq	r0, {r2, r4, r9, ip, sp}

08003228 <_FCALL>:
 8003228:	41434605 	cmpmi	r3, r5, lsl #12
 800322c:	00004c4c 	andeq	r4, r0, ip, asr #24

08003230 <CA_FCALL>:
 8003230:	20001d6c 	andcs	r1, r0, ip, ror #26

08003234 <LF_DEFER>:
 8003234:	08003228 	stmdaeq	r0, {r3, r5, r9, ip, sp}

08003238 <_DEFER>:
 8003238:	46454405 	strbmi	r4, [r5], -r5, lsl #8
 800323c:	00005245 	andeq	r5, r0, r5, asr #4

08003240 <CA_DEFER>:
 8003240:	20001d80 	andcs	r1, r0, r0, lsl #27

08003244 <LF_DEFERSTO>:
 8003244:	08003238 	stmdaeq	r0, {r3, r4, r5, r9, ip, sp}

08003248 <_DEFERSTO>:
 8003248:	46454406 	strbmi	r4, [r5], -r6, lsl #8
 800324c:	00215245 	eoreq	r5, r1, r5, asr #4

08003250 <CA_DEFERSTO>:
 8003250:	20001da8 	andcs	r1, r0, r8, lsr #27

08003254 <LF_DEFERAT>:
 8003254:	08003248 	stmdaeq	r0, {r3, r6, r9, ip, sp}

08003258 <_DEFERAT>:
 8003258:	46454406 	strbmi	r4, [r5], -r6, lsl #8
 800325c:	00405245 	subeq	r5, r0, r5, asr #4

08003260 <CA_DEFERAT>:
 8003260:	20001dd8 	ldrdcs	r1, [r0], -r8

08003264 <LF_DUMP>:
 8003264:	08003258 	stmdaeq	r0, {r3, r4, r6, r9, ip, sp}

08003268 <_DUMP>:
 8003268:	4d554404 	cfldrdmi	mvd4, [r5, #-16]
 800326c:	00000050 	andeq	r0, r0, r0, asr r0

08003270 <CA_DUMP>:
 8003270:	20001e14 	andcs	r1, r0, r4, lsl lr

08003274 <LF_DOTS>:
 8003274:	08003268 	stmdaeq	r0, {r3, r5, r6, r9, ip, sp}

08003278 <_DOTS>:
 8003278:	00532e02 	subseq	r2, r3, r2, lsl #28

0800327c <CA_DOTS>:
 800327c:	20001e28 	andcs	r1, r0, r8, lsr #28

08003280 <LF_TNAME>:
 8003280:	08003278 	stmdaeq	r0, {r3, r4, r5, r6, r9, ip, sp}

08003284 <_TNAME>:
 8003284:	414e3e05 	cmpmi	lr, r5, lsl #28
 8003288:	0000454d 	andeq	r4, r0, sp, asr #10

0800328c <CA_TNAME>:
 800328c:	20001e3c 	andcs	r1, r0, ip, lsr lr

08003290 <LF_DOTID>:
 8003290:	08003284 	stmdaeq	r0, {r2, r7, r9, ip, sp}

08003294 <_DOTID>:
 8003294:	44492e03 	strbmi	r2, [r9], #-3587	; 0xfffff1fd

08003298 <CA_DOTID>:
 8003298:	20001e50 	andcs	r1, r0, r0, asr lr

0800329c <LF_SEE>:
 800329c:	08003294 	stmdaeq	r0, {r2, r4, r7, r9, ip, sp}

080032a0 <_SEE>:
 80032a0:	45455303 	strbmi	r5, [r5, #-771]	; 0xfffffcfd

080032a4 <CA_SEE>:
 80032a4:	20001e64 	andcs	r1, r0, r4, ror #28

080032a8 <LF_SCOL>:
 80032a8:	080032a0 	stmdaeq	r0, {r5, r7, r9, ip, sp}

080032ac <_SCOL>:
 80032ac:	45455308 	strbmi	r5, [r5, #-776]	; 0xfffffcf8
 80032b0:	4f4c4f43 	svcmi	0x004c4f43
 80032b4:	0000004e 	andeq	r0, r0, lr, asr #32

080032b8 <CA_SCOL>:
 80032b8:	20001e78 	andcs	r1, r0, r8, ror lr

080032bc <LF_DECOMP>:
 80032bc:	080032ac 	stmdaeq	r0, {r2, r3, r5, r7, r9, ip, sp}

080032c0 <_DECOMP>:
 80032c0:	43454409 	movtmi	r4, #21513	; 0x5409
 80032c4:	49504d4f 	ldmdbmi	r0, {r0, r1, r2, r3, r6, r8, sl, fp, lr}^
 80032c8:	0000454c 	andeq	r4, r0, ip, asr #10

080032cc <CA_DECOMP>:
 80032cc:	20001e8c 	andcs	r1, r0, ip, lsl #29

080032d0 <LF_WORDS>:
 80032d0:	080032c0 	stmdaeq	r0, {r6, r7, r9, ip, sp}

080032d4 <_WORDS>:
 80032d4:	524f5705 	subpl	r5, pc, #1310720	; 0x140000
 80032d8:	00005344 	andeq	r5, r0, r4, asr #6

080032dc <CA_WORDS>:
 80032dc:	20001ea0 	andcs	r1, r0, r0, lsr #29

080032e0 <LF_HI>:
 80032e0:	080032d4 	stmdaeq	r0, {r2, r4, r6, r7, r9, ip, sp}

080032e4 <_HI>:
 80032e4:	00494802 	subeq	r4, r9, r2, lsl #16

080032e8 <CA_HI>:
 80032e8:	20001ec4 	andcs	r1, r0, r4, asr #29

080032ec <LF_LASTN>:
 80032ec:	080032e4 	stmdaeq	r0, {r2, r5, r6, r7, r9, ip, sp}

080032f0 <_LASTN>:
 80032f0:	4c4f4304 	mcrrmi	3, 0, r4, pc, cr4
 80032f4:	00000044 	andeq	r0, r0, r4, asr #32

080032f8 <CA_LASTN>:
 80032f8:	20001f20 	andcs	r1, r0, r0, lsr #30

Disassembly of section .rodata:

080032fc <__data_start>:
 80032fc:	756c6217 	strbvc	r6, [ip, #-535]!	; 0xfffffde9
 8003300:	69702065 	ldmdbvs	r0!, {r0, r2, r5, r6, sp}^
 8003304:	73206c6c 			; <UNDEFINED> instruction: 0x73206c6c
 8003308:	32336d74 	eorscc	r6, r3, #116, 26	; 0x1d00
 800330c:	726f4665 	rsbvc	r4, pc, #105906176	; 0x6500000
 8003310:	76206874 			; <UNDEFINED> instruction: 0x76206874

08003314 <NONAME_SUB>:
 8003314:	080003dc 	stmdaeq	r0, {r2, r3, r4, r6, r7, r8, r9}
 8003318:	080003c4 	stmdaeq	r0, {r2, r6, r7, r8, r9}
 800331c:	0800038a 	stmdaeq	r0, {r1, r3, r7, r8, r9}
 8003320:	080003a6 	stmdaeq	r0, {r1, r2, r5, r7, r8, r9}
 8003324:	08001cb0 	stmdaeq	r0, {r4, r5, r7, sl, fp, ip}
 8003328:	08000654 	stmdaeq	r0, {r2, r4, r6, r9, sl}
 800332c:	08000660 	stmdaeq	r0, {r5, r6, r9, sl}
 8003330:	08002519 	stmdaeq	r0, {r0, r3, r4, r8, sl, sp}
 8003334:	08000dac 	stmdaeq	r0, {r2, r3, r5, r7, r8, sl, fp}
 8003338:	080025dd 	stmdaeq	r0, {r0, r2, r3, r4, r6, r7, r8, sl, sp}
 800333c:	080023b1 	stmdaeq	r0, {r0, r4, r5, r7, r8, r9, sp}
 8003340:	08002451 	stmdaeq	r0, {r0, r4, r6, sl, sp}
 8003344:	080018ac 	stmdaeq	r0, {r2, r3, r5, r7, fp, ip}
 8003348:	08001eb2 	stmdaeq	r0, {r1, r4, r5, r7, r9, sl, fp, ip}
 800334c:	00000000 	andeq	r0, r0, r0

08003350 <ANONYMOUS>:
 8003350:	08003388 	stmdaeq	r0, {r3, r7, r8, r9, ip, sp}
 8003354:	08003394 	stmdaeq	r0, {r2, r4, r7, r8, r9, ip, sp}
 8003358:	080033a0 	stmdaeq	r0, {r5, r7, r8, r9, ip, sp}
 800335c:	080033ac 	stmdaeq	r0, {r2, r3, r5, r7, r8, r9, ip, sp}
 8003360:	080033b8 	stmdaeq	r0, {r3, r4, r5, r7, r8, r9, ip, sp}
 8003364:	080033c4 	stmdaeq	r0, {r2, r6, r7, r8, r9, ip, sp}
 8003368:	080033d0 	stmdaeq	r0, {r4, r6, r7, r8, r9, ip, sp}
 800336c:	080033dc 	stmdaeq	r0, {r2, r3, r4, r6, r7, r8, r9, ip, sp}
 8003370:	080033e8 	stmdaeq	r0, {r3, r5, r6, r7, r8, r9, ip, sp}
 8003374:	080033ec 	stmdaeq	r0, {r2, r3, r5, r6, r7, r8, r9, ip, sp}
 8003378:	080033f8 	stmdaeq	r0, {r3, r4, r5, r6, r7, r8, r9, ip, sp}
 800337c:	08003404 	stmdaeq	r0, {r2, sl, ip, sp}
 8003380:	08003410 	stmdaeq	r0, {r4, sl, ip, sp}
 8003384:	08003418 	stmdaeq	r0, {r3, r4, sl, ip, sp}

08003388 <BRAN_LBL>:
 8003388:	627b2009 	rsbsvs	r2, fp, #9
 800338c:	636e6172 	cmnvs	lr, #-2147483620	; 0x8000001c
 8003390:	00007d68 	andeq	r7, r0, r8, ror #26

08003394 <QBRAN_LBL>:
 8003394:	3f7b200a 	svccc	0x007b200a
 8003398:	6e617262 	cdpvs	2, 6, cr7, cr1, cr2, {3}
 800339c:	007d6863 	rsbseq	r6, sp, r3, ror #16

080033a0 <DOLIT_LBL>:
 80033a0:	647b2008 	ldrbtvs	r2, [fp], #-8
 80033a4:	74694c6f 	strbtvc	r4, [r9], #-3183	; 0xfffff391
 80033a8:	0000007d 	andeq	r0, r0, sp, ror r0

080033ac <DONEXT_LBL>:
 80033ac:	647b2009 	ldrbtvs	r2, [fp], #-9
 80033b0:	78654e6f 	stmdavc	r5!, {r0, r1, r2, r3, r5, r6, r9, sl, fp, lr}^
 80033b4:	00007d74 	andeq	r7, r0, r4, ror sp

080033b8 <DODOES_LBL>:
 80033b8:	647b2009 	ldrbtvs	r2, [fp], #-9
 80033bc:	656f446f 	strbvs	r4, [pc, #-1135]!	; 8002f55 <_IMG_SIZE+0x5>
 80033c0:	00007d73 	andeq	r7, r0, r3, ror sp

080033c4 <DOVAR_LBL>:
 80033c4:	647b2008 	ldrbtvs	r2, [fp], #-8
 80033c8:	7261566f 	rsbvc	r5, r1, #116391936	; 0x6f00000
 80033cc:	0000007d 	andeq	r0, r0, sp, ror r0

080033d0 <DOCON_LBL>:
 80033d0:	647b200a 	ldrbtvs	r2, [fp], #-10
 80033d4:	6e6f436f 	cdpvs	3, 6, cr4, cr15, cr15, {3}
 80033d8:	007d7473 	rsbseq	r7, sp, r3, ror r4

080033dc <IS_BLW_LBL>:
 80033dc:	427b200b 	rsbsmi	r2, fp, #11
 80033e0:	6f63204c 	svcvs	0x0063204c
 80033e4:	7d3f6564 	cfldr32vc	mvfx6, [pc, #-400]!	; 800325c <_DEFERAT+0x4>

080033e8 <DOTQP_LBL>:
 80033e8:	222e2003 	eorcs	r2, lr, #3

080033ec <BLADR_LBL>:
 80033ec:	427b2009 	rsbsmi	r2, fp, #9
 80033f0:	44413e4c 	strbmi	r3, [r1], #-3660	; 0xfffff1b4
 80033f4:	00007d52 	andeq	r7, r0, r2, asr sp

080033f8 <DOTCA_LBL>:
 80033f8:	647b2008 	ldrbtvs	r2, [fp], #-8
 80033fc:	6163746f 	cmnvs	r3, pc, ror #8
 8003400:	0000007d 	andeq	r0, r0, sp, ror r0

08003404 <NONAMEQ_LBL>:
 8003404:	6e7b200a 	cdpvs	0, 7, cr2, cr11, cr10, {0}
 8003408:	6d616e6f 	stclvs	14, cr6, [r1, #-444]!	; 0xfffffe44
 800340c:	007d3f65 	rsbseq	r3, sp, r5, ror #30

08003410 <STRCQ_LBL>:
 8003410:	247b2006 	ldrbtcs	r2, [fp], #-6
 8003414:	007d222c 	rsbseq	r2, sp, ip, lsr #4

08003418 <VERSN_LBL>:
 8003418:	767b200a 	ldrbtvc	r2, [fp], -sl
 800341c:	69737265 	ldmdbvs	r3!, {r0, r2, r5, r6, r9, ip, sp, lr}^
 8003420:	007d6e6f 	rsbseq	r6, sp, pc, ror #28

Disassembly of section .user:

08003800 <USER_SPACE>:
 8003800:	ffffffff 			; <UNDEFINED> instruction: 0xffffffff

Disassembly of section .ARM.attributes:

00000000 <.ARM.attributes>:
   0:	00002041 	andeq	r2, r0, r1, asr #32
   4:	61656100 	cmnvs	r5, r0, lsl #2
   8:	01006962 	tsteq	r0, r2, ror #18
   c:	00000016 	andeq	r0, r0, r6, lsl r0
  10:	726f4305 	rsbvc	r4, pc, #335544320	; 0x14000000
  14:	2d786574 	cfldr64cs	mvdx6, [r8, #-464]!	; 0xfffffe30
  18:	0600334d 	streq	r3, [r0], -sp, asr #6
  1c:	094d070a 	stmdbeq	sp, {r1, r3, r8, r9, sl}^
  20:	Address 0x0000000000000020 is out of bounds.


Disassembly of section .debug_line:

00000000 <.debug_line>:
   0:	00000921 	andeq	r0, r0, r1, lsr #18
   4:	00240003 	eoreq	r0, r4, r3
   8:	01020000 	mrseq	r0, (UNDEF: 2)
   c:	000d0efb 	strdeq	r0, [sp], -fp
  10:	01010101 	tsteq	r1, r1, lsl #2
  14:	01000000 	mrseq	r0, (UNDEF: 0)
  18:	00010000 	andeq	r0, r1, r0
  1c:	336d7473 	cmncc	sp, #1929379840	; 0x73000000
  20:	6f666532 	svcvs	0x00666532
  24:	2e687472 	mcrcs	4, 3, r7, cr8, cr2, {3}
  28:	00000073 	andeq	r0, r0, r3, ror r0
  2c:	05000000 	streq	r0, [r0, #-0]
  30:	001f8002 	andseq	r8, pc, r2
  34:	02d20308 	sbcseq	r0, r2, #8, 6	; 0x20000000
  38:	032f2101 			; <UNDEFINED> instruction: 0x032f2101
  3c:	214bc80f 	cmpcs	fp, pc, lsl #16
  40:	2121212f 			; <UNDEFINED> instruction: 0x2121212f
  44:	0a03222f 	beq	c8908 <FLASH_SIZE+0x48908>
  48:	214b2f20 	cmpcs	fp, r0, lsr #30
  4c:	2f212f2f 	svccs	0x00212f2f
  50:	21212f21 			; <UNDEFINED> instruction: 0x21212f21
  54:	222f2f2f 	eorcs	r2, pc, #47, 30	; 0xbc
  58:	3021232f 	eorcc	r2, r1, pc, lsr #6
  5c:	2f2f2121 	svccs	0x002f2121
  60:	c80e0321 	stmdagt	lr, {r0, r5, r8, r9}
  64:	21212f4b 			; <UNDEFINED> instruction: 0x21212f4b
  68:	2f212f21 	svccs	0x00212f21
  6c:	21212121 			; <UNDEFINED> instruction: 0x21212121
  70:	0a03212f 	beq	c8534 <FLASH_SIZE+0x48534>
  74:	2f214b20 	svccs	0x00214b20
  78:	212f2f2f 			; <UNDEFINED> instruction: 0x212f2f2f
  7c:	4b4b522f 	blmi	12d4940 <FLASH_SIZE+0x1254940>
  80:	2f262f4b 	svccs	0x00262f4b
  84:	2f4b242f 	svccs	0x004b242f
  88:	59212f21 	stmdbpl	r1!, {r0, r5, r8, r9, sl, fp, sp}
  8c:	212f212f 			; <UNDEFINED> instruction: 0x212f212f
  90:	21212459 			; <UNDEFINED> instruction: 0x21212459
  94:	2e090321 	cdpcs	3, 0, cr0, cr9, cr1, {1}
  98:	4b232f4b 	blmi	8cbdcc <FLASH_SIZE+0x84bdcc>
  9c:	21232f21 			; <UNDEFINED> instruction: 0x21232f21
  a0:	200a032f 	andcs	r0, sl, pc, lsr #6
  a4:	21224b4b 			; <UNDEFINED> instruction: 0x21224b4b
  a8:	2f21232f 	svccs	0x0021232f
  ac:	21224b22 			; <UNDEFINED> instruction: 0x21224b22
  b0:	2f21232f 	svccs	0x0021232f
  b4:	2f212f24 	svccs	0x00212f24
  b8:	2f214b22 	svccs	0x00214b22
  bc:	21212f2f 			; <UNDEFINED> instruction: 0x21212f2f
  c0:	4b4b232f 	blmi	12c8d84 <FLASH_SIZE+0x1248d84>
  c4:	28212f21 	stmdacs	r1!, {r0, r5, r8, r9, sl, fp, sp}
  c8:	2f2f214b 	svccs	0x002f214b
  cc:	2f222f2f 	svccs	0x00222f2f
  d0:	212f4c22 			; <UNDEFINED> instruction: 0x212f4c22
  d4:	2f4b222f 	svccs	0x004b222f
  d8:	4b272f2f 	blmi	9cbd9c <FLASH_SIZE+0x94bd9c>
  dc:	2f2f2f2f 	svccs	0x002f2f2f
  e0:	4b4b2221 	blmi	12c896c <FLASH_SIZE+0x124896c>
  e4:	2f212122 	svccs	0x00212122
  e8:	2f2f2f2f 	svccs	0x002f2f2f
  ec:	2f4b2221 	svccs	0x004b2221
  f0:	0321212f 			; <UNDEFINED> instruction: 0x0321212f
  f4:	2f5818a8 	svccs	0x005818a8
  f8:	2f2f4b2f 	svccs	0x002f4b2f
  fc:	2f2f302f 	svccs	0x002f302f
 100:	4c302f4b 	ldcmi	15, cr2, [r0], #-300	; 0xfffffed4
 104:	2f2f2f34 	svccs	0x002f2f34
 108:	2f4b2f2f 	svccs	0x004b2f2f
 10c:	4b2f302f 	blmi	bcc1d0 <FLASH_SIZE+0xb4c1d0>
 110:	2f2f2f2f 	svccs	0x002f2f2f
 114:	4d302f2f 	ldcmi	15, cr2, [r0, #-188]!	; 0xffffff44
 118:	2f2f2f2f 	svccs	0x002f2f2f
 11c:	2f2f2f33 	svccs	0x002f2f33
 120:	2f2f302f 	svccs	0x002f302f
 124:	332f4c30 			; <UNDEFINED> instruction: 0x332f4c30
 128:	302f2f2f 	eorcc	r2, pc, pc, lsr #30
 12c:	2f2f4c2f 	svccs	0x002f4c2f
 130:	2f4b2f2f 	svccs	0x004b2f2f
 134:	302f2f4c 	eorcc	r2, pc, ip, asr #30
 138:	2f332f2f 	svccs	0x00332f2f
 13c:	4b2f4c2f 	blmi	bd3200 <FLASH_SIZE+0xb53200>
 140:	86302f2f 	ldrthi	r2, [r0], -pc, lsr #30
 144:	2f2e0b03 	svccs	0x002e0b03
 148:	2f4b2f2f 	svccs	0x004b2f2f
 14c:	2f2f2f34 	svccs	0x002f2f34
 150:	2f2f2f2f 	svccs	0x002f2f2f
 154:	6a872f4c 	bvs	fe1cbe8c <MASKK+0xfe1cbf6d>
 158:	2f2f352f 	svccs	0x002f352f
 15c:	2f2f2f2f 	svccs	0x002f2f2f
 160:	2f6a4c2f 	svccs	0x006a4c2f
 164:	2f4b2f34 	svccs	0x004b2f34
 168:	2f2f2f4b 	svccs	0x002f2f4b
 16c:	2f4c2f2f 	svccs	0x004c2f2f
 170:	2f4c2f4b 	svccs	0x004c2f4b
 174:	2f4c2f2f 	svccs	0x004c2f2f
 178:	2f4b2f4b 	svccs	0x004b2f4b
 17c:	2f2f2f2f 	svccs	0x002f2f2f
 180:	2f2f2f2f 	svccs	0x002f2f2f
 184:	09032f2f 	stmdbeq	r3, {r0, r1, r2, r3, r5, r8, r9, sl, fp, sp}
 188:	4b2f2f2e 	blmi	bcbe48 <FLASH_SIZE+0xb4be48>
 18c:	342f2f2f 	strtcc	r2, [pc], #-3887	; 194 <NVIC_ICER5>
 190:	2f2f4b2f 	svccs	0x002f4b2f
 194:	332f2f2f 			; <UNDEFINED> instruction: 0x332f2f2f
 198:	2f2f2f2f 	svccs	0x002f2f2f
 19c:	2f2f2f2f 	svccs	0x002f2f2f
 1a0:	2f2f2f2f 	svccs	0x002f2f2f
 1a4:	304b2f34 	subcc	r2, fp, r4, lsr pc
 1a8:	4c2f2f2f 	stcmi	15, cr2, [pc], #-188	; f4 <RDPRT_KEY+0x4f>
 1ac:	2f2f2f2f 	svccs	0x002f2f2f
 1b0:	2f2f4c2f 	svccs	0x002f4c2f
 1b4:	2f2f2f4c 	svccs	0x002f2f4c
 1b8:	2f362f4c 	svccs	0x00362f4c
 1bc:	2f2f2f2f 	svccs	0x002f2f2f
 1c0:	2f2f2f2f 	svccs	0x002f2f2f
 1c4:	2f2f2f2f 	svccs	0x002f2f2f
 1c8:	342f2f2f 	strtcc	r2, [pc], #-3887	; 1d0 <NVIC_ICER7+0x34>
 1cc:	2f2f2f2f 	svccs	0x002f2f2f
 1d0:	2f4e4d2f 	svccs	0x004e4d2f
 1d4:	2f2f2f2f 	svccs	0x002f2f2f
 1d8:	304d4c2f 	subcc	r4, sp, pc, lsr #24
 1dc:	2f2f302f 	svccs	0x002f302f
 1e0:	2f2f4b2f 	svccs	0x002f4b2f
 1e4:	342f2f30 	strtcc	r2, [pc], #-3888	; 1ec <NVIC_ICER7+0x50>
 1e8:	302f2f2f 	eorcc	r2, pc, pc, lsr #30
 1ec:	2f2f4c2f 	svccs	0x002f4c2f
 1f0:	302f2f2f 	eorcc	r2, pc, pc, lsr #30
 1f4:	01000202 	tsteq	r0, r2, lsl #4
 1f8:	02050001 	andeq	r0, r5, #1
 1fc:	08000270 	stmdaeq	r0, {r4, r5, r6, r9}
 200:	0105ce03 	tsteq	r5, r3, lsl #28
 204:	2f2f4b2f 	svccs	0x002f4b2f
 208:	332f2f4b 			; <UNDEFINED> instruction: 0x332f2f4b
 20c:	2f2f2f2f 	svccs	0x002f2f2f
 210:	2f2f4b2f 	svccs	0x002f4b2f
 214:	2f2f2f36 	svccs	0x002f2f36
 218:	2f2f2f2f 	svccs	0x002f2f2f
 21c:	2f2f2f2f 	svccs	0x002f2f2f
 220:	2f2f2f2f 	svccs	0x002f2f2f
 224:	302f2f33 	eorcc	r2, pc, r3, lsr pc	; <UNPREDICTABLE>
 228:	4d4c2f2f 	stclmi	15, cr2, [ip, #-188]	; 0xffffff44
 22c:	214b2f33 	cmpcs	fp, r3, lsr pc
 230:	2130212f 	teqcs	r0, pc, lsr #2
 234:	21212f26 			; <UNDEFINED> instruction: 0x21212f26
 238:	212f212f 			; <UNDEFINED> instruction: 0x212f212f
 23c:	212f2f21 			; <UNDEFINED> instruction: 0x212f2f21
 240:	4b352f2f 	blmi	d4bf04 <FLASH_SIZE+0xccbf04>
 244:	21212f21 			; <UNDEFINED> instruction: 0x21212f21
 248:	0b03282f 	bleq	ca30c <FLASH_SIZE+0x4a30c>
 24c:	2f2f2f20 	svccs	0x002f2f20
 250:	2f2f252f 	svccs	0x002f252f
 254:	21200c03 			; <UNDEFINED> instruction: 0x21200c03
 258:	232f2f22 			; <UNDEFINED> instruction: 0x232f2f22
 25c:	2f2f212f 	svccs	0x002f212f
 260:	21200a03 			; <UNDEFINED> instruction: 0x21200a03
 264:	2f2f212f 	svccs	0x002f212f
 268:	0a032f22 	beq	cbef8 <FLASH_SIZE+0x4bef8>
 26c:	332f2f20 			; <UNDEFINED> instruction: 0x332f2f20
 270:	2f212f33 	svccs	0x00212f33
 274:	2f252125 	svccs	0x00252125
 278:	21252f21 			; <UNDEFINED> instruction: 0x21252f21
 27c:	332f2f25 			; <UNDEFINED> instruction: 0x332f2f25
 280:	2f25212f 	svccs	0x0025212f
 284:	212f332f 			; <UNDEFINED> instruction: 0x212f332f
 288:	2f332f25 	svccs	0x00332f25
 28c:	21212133 			; <UNDEFINED> instruction: 0x21212133
 290:	25212f25 	strcs	r2, [r1, #-3877]!	; 0xfffff0db
 294:	2f332f2f 	svccs	0x00332f2f
 298:	2f2f332f 	svccs	0x002f332f
 29c:	332f2f33 			; <UNDEFINED> instruction: 0x332f2f33
 2a0:	2f2f2121 	svccs	0x002f2121
 2a4:	2f2f2521 	svccs	0x002f2521
 2a8:	332f2f33 			; <UNDEFINED> instruction: 0x332f2f33
 2ac:	2f25212f 	svccs	0x0025212f
 2b0:	2f2f332f 	svccs	0x002f332f
 2b4:	212f2133 			; <UNDEFINED> instruction: 0x212f2133
 2b8:	2f212521 	svccs	0x00212521
 2bc:	2f252121 	svccs	0x00252121
 2c0:	2f332f33 	svccs	0x00332f33
 2c4:	2f332f33 	svccs	0x00332f33
 2c8:	2f332f33 	svccs	0x00332f33
 2cc:	332f332f 			; <UNDEFINED> instruction: 0x332f332f
 2d0:	332f332f 			; <UNDEFINED> instruction: 0x332f332f
 2d4:	2121332f 			; <UNDEFINED> instruction: 0x2121332f
 2d8:	2121332f 			; <UNDEFINED> instruction: 0x2121332f
 2dc:	2f332121 	svccs	0x00332121
 2e0:	2f21332f 	svccs	0x0021332f
 2e4:	2f2f252f 	svccs	0x002f252f
 2e8:	2f212121 	svccs	0x00212121
 2ec:	2f332f25 	svccs	0x00332f25
 2f0:	21212f33 			; <UNDEFINED> instruction: 0x21212f33
 2f4:	212f2133 			; <UNDEFINED> instruction: 0x212f2133
 2f8:	212f332f 			; <UNDEFINED> instruction: 0x212f332f
 2fc:	25212f21 	strcs	r2, [r1, #-3873]!	; 0xfffff0df
 300:	2f21212f 	svccs	0x0021212f
 304:	212f2521 			; <UNDEFINED> instruction: 0x212f2521
 308:	25212f21 	strcs	r2, [r1, #-3873]!	; 0xfffff0df
 30c:	2f21212f 	svccs	0x0021212f
 310:	212f2521 			; <UNDEFINED> instruction: 0x212f2521
 314:	2f252121 	svccs	0x00252121
 318:	25212121 	strcs	r2, [r1, #-289]!	; 0xfffffedf
 31c:	2121212f 			; <UNDEFINED> instruction: 0x2121212f
 320:	2f2f252f 	svccs	0x002f252f
 324:	252f212f 	strcs	r2, [pc, #-303]!	; 1fd <NVIC_ICER7+0x61>
 328:	33212f21 			; <UNDEFINED> instruction: 0x33212f21
 32c:	25212f2f 	strcs	r2, [r1, #-3887]!	; 0xfffff0d1
 330:	2f212f21 	svccs	0x00212f21
 334:	200d0321 	andcs	r0, sp, r1, lsr #6
 338:	0a032f2f 	beq	cbffc <FLASH_SIZE+0x4bffc>
 33c:	032f2f2e 			; <UNDEFINED> instruction: 0x032f2f2e
 340:	2f2f2e09 	svccs	0x002f2e09
 344:	332f2f33 			; <UNDEFINED> instruction: 0x332f2f33
 348:	2f332f2f 	svccs	0x00332f2f
 34c:	2f2f332f 	svccs	0x002f332f
 350:	2f200a03 	svccs	0x00200a03
 354:	2f2f252f 	svccs	0x002f252f
 358:	332f2f33 			; <UNDEFINED> instruction: 0x332f2f33
 35c:	2f332f2f 	svccs	0x00332f2f
 360:	2f2f332f 	svccs	0x002f332f
 364:	332f2f34 			; <UNDEFINED> instruction: 0x332f2f34
 368:	2f332f2f 	svccs	0x00332f2f
 36c:	2f2f332f 	svccs	0x002f332f
 370:	2f2e0903 	svccs	0x002e0903
 374:	4b2f4321 	blmi	bd1000 <FLASH_SIZE+0xb51000>
 378:	43212f33 			; <UNDEFINED> instruction: 0x43212f33
 37c:	09032f2f 	stmdbeq	r3, {r0, r1, r2, r3, r5, r8, r9, sl, fp, sp}
 380:	2f2f2f2e 	svccs	0x002f2f2e
 384:	2f2f2f2f 	svccs	0x002f2f2f
 388:	222f2f35 	eorcs	r2, pc, #53, 30	; 0xd4
 38c:	2f212121 	svccs	0x00212121
 390:	2121222f 			; <UNDEFINED> instruction: 0x2121222f
 394:	21222121 			; <UNDEFINED> instruction: 0x21222121
 398:	33212121 			; <UNDEFINED> instruction: 0x33212121
 39c:	2f2f2f2f 	svccs	0x002f2f2f
 3a0:	2f2f4c2f 	svccs	0x002f4c2f
 3a4:	2f2f302f 	svccs	0x002f302f
 3a8:	302f4c2f 	eorcc	r4, pc, pc, lsr #24
 3ac:	4c2f2f2f 	stcmi	15, cr2, [pc], #-188	; 2f8 <NVIC_ICPR7+0x5c>
 3b0:	33302f2f 	teqcc	r0, #47, 30	; 0xbc
 3b4:	2f2f2f2f 	svccs	0x002f2f2f
 3b8:	2f2f332f 	svccs	0x002f332f
 3bc:	2f2f332f 	svccs	0x002f332f
 3c0:	2f332f2f 	svccs	0x00332f2f
 3c4:	2f2f2f2f 	svccs	0x002f2f2f
 3c8:	2f2f2f33 	svccs	0x002f2f33
 3cc:	2f2f362f 	svccs	0x002f362f
 3d0:	4b2f332f 	blmi	bcd094 <FLASH_SIZE+0xb4d094>
 3d4:	4b2f2f2f 	blmi	bcc098 <FLASH_SIZE+0xb4c098>
 3d8:	2f4c2f2f 	svccs	0x004c2f2f
 3dc:	2f4b334c 	svccs	0x004b334c
 3e0:	2f332f2f 	svccs	0x00332f2f
 3e4:	2f2f2f2f 	svccs	0x002f2f2f
 3e8:	2f2f362f 	svccs	0x002f362f
 3ec:	2f2f332f 	svccs	0x002f332f
 3f0:	212f332f 			; <UNDEFINED> instruction: 0x212f332f
 3f4:	212f2125 			; <UNDEFINED> instruction: 0x212f2125
 3f8:	3321212f 			; <UNDEFINED> instruction: 0x3321212f
 3fc:	2f222f2f 	svccs	0x00222f2f
 400:	2f212130 	svccs	0x00212130
 404:	2f332f22 	svccs	0x00332f22
 408:	2f222f2f 	svccs	0x00222f2f
 40c:	2f212130 	svccs	0x00212130
 410:	2f332f22 	svccs	0x00332f22
 414:	2f222130 	svccs	0x00222130
 418:	222f2121 	eorcs	r2, pc, #1073741832	; 0x40000008
 41c:	2f2f252f 	svccs	0x002f252f
 420:	2f2f2f2f 	svccs	0x002f2f2f
 424:	4b2f4b2f 	blmi	bd30e8 <FLASH_SIZE+0xb530e8>
 428:	2f2f2f2f 	svccs	0x002f2f2f
 42c:	2f2f2f2f 	svccs	0x002f2f2f
 430:	4b2f362f 	blmi	bcdcf4 <FLASH_SIZE+0xb4dcf4>
 434:	2f2f2f2f 	svccs	0x002f2f2f
 438:	4b2f332f 	blmi	bcd0fc <FLASH_SIZE+0xb4d0fc>
 43c:	2f2f2f2f 	svccs	0x002f2f2f
 440:	2f2f2f33 	svccs	0x002f2f33
 444:	2f2f332f 	svccs	0x002f332f
 448:	2f2f2f2f 	svccs	0x002f2f2f
 44c:	2f332f2f 	svccs	0x00332f2f
 450:	2f2f2f2f 	svccs	0x002f2f2f
 454:	2f2f3033 	svccs	0x002f3033
 458:	2f41224c 	svccs	0x0041224c
 45c:	304b4c2f 	subcc	r4, fp, pc, lsr #24
 460:	2f2f2f33 	svccs	0x002f2f33
 464:	2f2f2f2f 	svccs	0x002f2f2f
 468:	2f2e0a03 	svccs	0x002e0a03
 46c:	2f2f2f2f 	svccs	0x002f2f2f
 470:	2f2f2f2f 	svccs	0x002f2f2f
 474:	2f4b2f33 	svccs	0x004b2f33
 478:	4b2f332f 	blmi	bcd13c <FLASH_SIZE+0xb4d13c>
 47c:	2f362f2f 	svccs	0x00362f2f
 480:	4b2f4b2f 	blmi	bd3144 <FLASH_SIZE+0xb53144>
 484:	4b4c2f2f 	blmi	130c148 <FLASH_SIZE+0x128c148>
 488:	2f4b2f2f 	svccs	0x004b2f2f
 48c:	2f2f2f30 	svccs	0x002f2f30
 490:	2f2f2f33 	svccs	0x002f2f33
 494:	2f2f4b2f 	svccs	0x002f4b2f
 498:	2f4b2f2f 	svccs	0x004b2f2f
 49c:	2f2f2f4c 	svccs	0x002f2f4c
 4a0:	2f2f302f 	svccs	0x002f302f
 4a4:	2f2f2f4b 	svccs	0x002f2f4b
 4a8:	2f2f2f2f 	svccs	0x002f2f2f
 4ac:	2f4c2f2f 	svccs	0x004c2f2f
 4b0:	2f2f2f30 	svccs	0x002f2f30
 4b4:	4c2f2f2f 	stcmi	15, cr2, [pc], #-188	; 400 <NVIC_IPR_BASE>
 4b8:	2f2f2f2f 	svccs	0x002f2f2f
 4bc:	4c2f2f2f 	stcmi	15, cr2, [pc], #-188	; 408 <NVIC_IPR_BASE+0x8>
 4c0:	4c2f2f2f 	stcmi	15, cr2, [pc], #-188	; 40c <NVIC_IPR_BASE+0xc>
 4c4:	2f302f30 	svccs	0x00302f30
 4c8:	4c2f2f2f 	stcmi	15, cr2, [pc], #-188	; 414 <NVIC_IPR_BASE+0x14>
 4cc:	2f2f2f30 	svccs	0x002f2f30
 4d0:	30362f2f 	eorscc	r2, r6, pc, lsr #30
 4d4:	2f334c2f 	svccs	0x00334c2f
 4d8:	2f332f2f 	svccs	0x00332f2f
 4dc:	302f2f4b 	eorcc	r2, pc, fp, asr #30
 4e0:	2f334c30 	svccs	0x00334c30
 4e4:	2f2f302f 	svccs	0x002f302f
 4e8:	332f4c30 			; <UNDEFINED> instruction: 0x332f4c30
 4ec:	4b2f4b2f 	blmi	bd31b0 <FLASH_SIZE+0xb531b0>
 4f0:	2e0b032f 	cdpcs	3, 0, cr0, cr11, cr15, {1}
 4f4:	2f2f2f30 	svccs	0x002f2f30
 4f8:	2f2f2f2f 	svccs	0x002f2f2f
 4fc:	2f2f2f2f 	svccs	0x002f2f2f
 500:	2f2e0a03 	svccs	0x002e0a03
 504:	2e0a032f 	cdpcs	3, 0, cr0, cr10, cr15, {1}
 508:	032f2f2f 			; <UNDEFINED> instruction: 0x032f2f2f
 50c:	2f2f2e0a 	svccs	0x002f2e0a
 510:	2f2f332f 	svccs	0x002f332f
 514:	2f2f2f2f 	svccs	0x002f2f2f
 518:	2f332f2f 	svccs	0x00332f2f
 51c:	2f2f2f2f 	svccs	0x002f2f2f
 520:	2f2f2f2f 	svccs	0x002f2f2f
 524:	2f2f332f 	svccs	0x002f332f
 528:	2f2f2f2f 	svccs	0x002f2f2f
 52c:	2f2f2f33 	svccs	0x002f2f33
 530:	2f2f2f2f 	svccs	0x002f2f2f
 534:	2f342f2f 	svccs	0x00342f2f
 538:	2f4b2f2f 	svccs	0x004b2f2f
 53c:	2f302f4c 	svccs	0x00302f4c
 540:	2f332f2f 	svccs	0x00332f2f
 544:	0d032f2f 	stceq	15, cr2, [r3, #-188]	; 0xffffff44
 548:	2f2f2f2e 	svccs	0x002f2f2e
 54c:	4c2f2f2f 	stcmi	15, cr2, [pc], #-188	; 498 <NVIC_IPR_BASE+0x98>
 550:	2f2f2f2f 	svccs	0x002f2f2f
 554:	2f304c2f 	svccs	0x00304c2f
 558:	2f2f2f2f 	svccs	0x002f2f2f
 55c:	4c2f4c2f 	stcmi	12, cr4, [pc], #-188	; 4a8 <NVIC_IPR_BASE+0xa8>
 560:	2f4b2f2f 	svccs	0x004b2f2f
 564:	2f2f3030 	svccs	0x002f3030
 568:	2f2f2f30 	svccs	0x002f2f30
 56c:	2f2f2f2f 	svccs	0x002f2f2f
 570:	304c2f2f 	subcc	r2, ip, pc, lsr #30
 574:	2f4c2f4c 	svccs	0x004c2f4c
 578:	2f2f222f 	svccs	0x002f222f
 57c:	2f302f2f 	svccs	0x00302f2f
 580:	2f2f2f2f 	svccs	0x002f2f2f
 584:	2f2f2f30 	svccs	0x002f2f30
 588:	2f2f2f41 	svccs	0x002f2f41
 58c:	2f2f2f2f 	svccs	0x002f2f2f
 590:	2f2f2f2f 	svccs	0x002f2f2f
 594:	2f2f2f2f 	svccs	0x002f2f2f
 598:	2f4b2f33 	svccs	0x004b2f33
 59c:	4b2f332f 	blmi	bcd260 <FLASH_SIZE+0xb4d260>
 5a0:	2f332f2f 	svccs	0x00332f2f
 5a4:	2f2f2f2f 	svccs	0x002f2f2f
 5a8:	2f2f2f33 	svccs	0x002f2f33
 5ac:	2f332f2f 	svccs	0x00332f2f
 5b0:	2f2f2f2f 	svccs	0x002f2f2f
 5b4:	2f2f2f33 	svccs	0x002f2f33
 5b8:	4b2f2f36 	blmi	bcc298 <FLASH_SIZE+0xb4c298>
 5bc:	332f2f2f 			; <UNDEFINED> instruction: 0x332f2f2f
 5c0:	032f2f2f 			; <UNDEFINED> instruction: 0x032f2f2f
 5c4:	2f2f2e0b 	svccs	0x002f2e0b
 5c8:	2f2f2f30 	svccs	0x002f2f30
 5cc:	2f2f2f2f 	svccs	0x002f2f2f
 5d0:	4c2f2f2f 	stcmi	15, cr2, [pc], #-188	; 51c <NVIC_IPR_BASE+0x11c>
 5d4:	4c302f2f 	ldcmi	15, cr2, [r0], #-188	; 0xffffff44
 5d8:	2e0d034b 	cdpcs	3, 0, cr0, cr13, cr11, {2}
 5dc:	2f2f2f2f 	svccs	0x002f2f2f
 5e0:	302f2f2f 	eorcc	r2, pc, pc, lsr #30
 5e4:	2f2f4c2f 	svccs	0x002f4c2f
 5e8:	2f2f2f4b 	svccs	0x002f2f4b
 5ec:	302f2f4c 	eorcc	r2, pc, ip, asr #30
 5f0:	302f2f2f 	eorcc	r2, pc, pc, lsr #30
 5f4:	2f2f2f30 	svccs	0x002f2f30
 5f8:	4c302f2f 	ldcmi	15, cr2, [r0], #-188	; 0xffffff44
 5fc:	302f2f2f 	eorcc	r2, pc, pc, lsr #30
 600:	2f2f2f2f 	svccs	0x002f2f2f
 604:	2f2f2f2f 	svccs	0x002f2f2f
 608:	2f2f2f33 	svccs	0x002f2f33
 60c:	2e0d032f 	cdpcs	3, 0, cr0, cr13, cr15, {1}
 610:	2f2f2f2f 	svccs	0x002f2f2f
 614:	4c2f2f2f 	stcmi	15, cr2, [pc], #-188	; 560 <NVIC_IPR_BASE+0x160>
 618:	2f2f304b 	svccs	0x002f304b
 61c:	03314b30 	teqeq	r1, #48, 22	; 0xc000
 620:	2f2f2e0a 	svccs	0x002f2e0a
 624:	2f2f2f30 	svccs	0x002f2f30
 628:	2f2e0b03 	svccs	0x002e0b03
 62c:	4c2f4b2f 			; <UNDEFINED> instruction: 0x4c2f4b2f
 630:	2f4c2f4b 	svccs	0x004c2f4b
 634:	302f4d2f 	eorcc	r4, pc, pc, lsr #26
 638:	2f2f2f2f 	svccs	0x002f2f2f
 63c:	2f2f2f33 	svccs	0x002f2f33
 640:	4c2f2f30 	stcmi	15, cr2, [pc], #-192	; 588 <NVIC_IPR_BASE+0x188>
 644:	4b2f2f2f 	blmi	bcc308 <FLASH_SIZE+0xb4c308>
 648:	222f4c2f 	eorcs	r4, pc, #12032	; 0x2f00
 64c:	2f2f2231 	svccs	0x002f2231
 650:	2f2f332f 	svccs	0x002f332f
 654:	2f2f2f4b 	svccs	0x002f2f4b
 658:	2f2f4b2f 	svccs	0x002f4b2f
 65c:	2f302f36 	svccs	0x00302f36
 660:	2f2f4b2f 	svccs	0x002f4b2f
 664:	2e0a032f 	cdpcs	3, 0, cr0, cr10, cr15, {1}
 668:	4c2f2f2f 	stcmi	15, cr2, [pc], #-188	; 5b4 <NVIC_IPR_BASE+0x1b4>
 66c:	2f442f22 	svccs	0x00442f22
 670:	2f4c2f2f 	svccs	0x004c2f2f
 674:	2fa22f4b 	svccs	0x00a22f4b
 678:	304c2f30 	subcc	r2, ip, r0, lsr pc
 67c:	2f4b2f33 	svccs	0x004b2f33
 680:	4b2f332f 	blmi	bcd344 <FLASH_SIZE+0xb4d344>
 684:	4c2f2f2f 	stcmi	15, cr2, [pc], #-188	; 5d0 <NVIC_IPR_BASE+0x1d0>
 688:	2f332f4e 	svccs	0x00332f4e
 68c:	33862f2f 	orrcc	r2, r6, #47, 30	; 0xbc
 690:	2f2f2f30 	svccs	0x002f2f30
 694:	2f2f2f4c 	svccs	0x002f2f4c
 698:	332f2f30 			; <UNDEFINED> instruction: 0x332f2f30
 69c:	332f4b2f 			; <UNDEFINED> instruction: 0x332f4b2f
 6a0:	2f304c2f 	svccs	0x00304c2f
 6a4:	4a09032f 	bmi	241368 <FLASH_SIZE+0x1c1368>
 6a8:	2f214c2f 	svccs	0x00214c2f
 6ac:	212f2121 			; <UNDEFINED> instruction: 0x212f2121
 6b0:	03212121 			; <UNDEFINED> instruction: 0x03212121
 6b4:	22312009 	eorscs	r2, r1, #9
 6b8:	2231212f 	eorscs	r2, r1, #-1073741813	; 0xc000000b
 6bc:	27212f21 	strcs	r2, [r1, -r1, lsr #30]!
 6c0:	2f4b2f2f 	svccs	0x004b2f2f
 6c4:	21222f21 			; <UNDEFINED> instruction: 0x21222f21
 6c8:	4b2f212f 	blmi	bc8b8c <FLASH_SIZE+0xb48b8c>
 6cc:	942f212f 	strtls	r2, [pc], #-303	; 6d4 <SCB_VECTKEY+0xda>
 6d0:	2f222f33 	svccs	0x00222f33
 6d4:	212f2121 			; <UNDEFINED> instruction: 0x212f2121
 6d8:	4c2f212f 	stfmis	f2, [pc], #-188	; 624 <SCB_VECTKEY+0x2a>
 6dc:	2f2f3595 	svccs	0x002f3595
 6e0:	2f2f2f4b 	svccs	0x002f2f4b
 6e4:	2f2f2f2f 	svccs	0x002f2f2f
 6e8:	4b2f2f2f 	blmi	bcc3ac <FLASH_SIZE+0xb4c3ac>
 6ec:	4b2f342f 	blmi	bcd7b0 <FLASH_SIZE+0xb4d7b0>
 6f0:	2f2f2f2f 	svccs	0x002f2f2f
 6f4:	4c2f2f4b 	stcmi	15, cr2, [pc], #-300	; 5d0 <NVIC_IPR_BASE+0x1d0>
 6f8:	2f2f3330 	svccs	0x002f3330
 6fc:	2f2f2f2f 	svccs	0x002f2f2f
 700:	2f2f332f 	svccs	0x002f332f
 704:	2f2f2f4d 	svccs	0x002f2f4d
 708:	2f2f2f2f 	svccs	0x002f2f2f
 70c:	2f2f302f 	svccs	0x002f302f
 710:	2f2f2f2f 	svccs	0x002f2f2f
 714:	2f352f2f 	svccs	0x00352f2f
 718:	2f4d2f2f 	svccs	0x004d2f2f
 71c:	302f2f2f 	eorcc	r2, pc, pc, lsr #30
 720:	2f332f4c 	svccs	0x00332f4c
 724:	2f2f4d2f 	svccs	0x002f4d2f
 728:	2f2f2f2f 	svccs	0x002f2f2f
 72c:	2f4c2f2f 	svccs	0x004c2f2f
 730:	2f332f2f 	svccs	0x00332f2f
 734:	2f2f332f 	svccs	0x002f332f
 738:	2f2f2f33 	svccs	0x002f2f33
 73c:	2f2f4c2f 	svccs	0x002f4c2f
 740:	332f4c2f 			; <UNDEFINED> instruction: 0x332f4c2f
 744:	2f2f2f2f 	svccs	0x002f2f2f
 748:	4d2f2f4c 	stcmi	15, cr2, [pc, #-304]!	; 620 <SCB_VECTKEY+0x26>
 74c:	2f2f2f31 	svccs	0x002f2f31
 750:	2f302f2f 	svccs	0x00302f2f
 754:	2f2f2f2f 	svccs	0x002f2f2f
 758:	2f342f2f 	svccs	0x00342f2f
 75c:	2f2f2f2f 	svccs	0x002f2f2f
 760:	2f2f2f33 	svccs	0x002f2f33
 764:	2f2f4b2f 	svccs	0x002f4b2f
 768:	2f2f2f4c 	svccs	0x002f2f4c
 76c:	2f2f2f2f 	svccs	0x002f2f2f
 770:	0d032f2f 	stceq	15, cr2, [r3, #-188]	; 0xffffff44
 774:	2f2f2f82 	svccs	0x002f2f82
 778:	2f332f4c 	svccs	0x00332f4c
 77c:	2f332f2f 	svccs	0x00332f2f
 780:	2f2f2f2f 	svccs	0x002f2f2f
 784:	2f332f2f 	svccs	0x00332f2f
 788:	2f332f2f 	svccs	0x00332f2f
 78c:	2f2f2f2f 	svccs	0x002f2f2f
 790:	2f2f2f2f 	svccs	0x002f2f2f
 794:	2f4c2f50 	svccs	0x004c2f50
 798:	2f2e0a03 	svccs	0x002e0a03
 79c:	4b2f2f4b 	blmi	bcc4d0 <FLASH_SIZE+0xb4c4d0>
 7a0:	2f2f2f2f 	svccs	0x002f2f2f
 7a4:	2f362f2f 	svccs	0x00362f2f
 7a8:	2f332f4c 	svccs	0x00332f4c
 7ac:	4c2f332f 	stcmi	3, cr3, [pc], #-188	; 6f8 <SCB_VECTKEY+0xfe>
 7b0:	4c2f332f 	stcmi	3, cr3, [pc], #-188	; 6fc <SCB_VECTKEY+0x102>
 7b4:	4c2f332f 	stcmi	3, cr3, [pc], #-188	; 700 <SCB_VECTKEY+0x106>
 7b8:	4c2f332f 	stcmi	3, cr3, [pc], #-188	; 704 <SCB_VECTKEY+0x10a>
 7bc:	2f2f4b2f 	svccs	0x002f4b2f
 7c0:	2f4c2f33 	svccs	0x004c2f33
 7c4:	332f2f4b 			; <UNDEFINED> instruction: 0x332f2f4b
 7c8:	2f2f2f2f 	svccs	0x002f2f2f
 7cc:	2f2f332f 	svccs	0x002f332f
 7d0:	2f332f2f 	svccs	0x00332f2f
 7d4:	2f2f2f2f 	svccs	0x002f2f2f
 7d8:	2f2f2f33 	svccs	0x002f2f33
 7dc:	2f2f332f 	svccs	0x002f332f
 7e0:	4c2f332f 	stcmi	3, cr3, [pc], #-188	; 72c <SCB_VECTKEY+0x132>
 7e4:	4c2f332f 	stcmi	3, cr3, [pc], #-188	; 730 <SCB_VECTKEY+0x136>
 7e8:	4c2f332f 	stcmi	3, cr3, [pc], #-188	; 734 <SCB_VECTKEY+0x13a>
 7ec:	2e09032f 	cdpcs	3, 0, cr0, cr9, cr15, {1}
 7f0:	4c2f2f2f 	stcmi	15, cr2, [pc], #-188	; 73c <SCB_VECTKEY+0x142>
 7f4:	302f2f6a 	eorcc	r2, pc, sl, ror #30
 7f8:	2e0a032f 	cdpcs	3, 0, cr0, cr10, cr15, {1}
 7fc:	4c2f2f2f 	stcmi	15, cr2, [pc], #-188	; 748 <SCB_VECTKEY+0x14e>
 800:	2f2f2f2f 	svccs	0x002f2f2f
 804:	2f2f2f2f 	svccs	0x002f2f2f
 808:	2f2f2f2f 	svccs	0x002f2f2f
 80c:	2f336930 	svccs	0x00336930
 810:	2f4c2f2f 	svccs	0x004c2f2f
 814:	2f4c2f4b 	svccs	0x004c2f4b
 818:	2f302f30 	svccs	0x00302f30
 81c:	2f302f4c 	svccs	0x00302f4c
 820:	2f2f2f34 	svccs	0x002f2f34
 824:	2f2f2f2f 	svccs	0x002f2f2f
 828:	332f2f2f 			; <UNDEFINED> instruction: 0x332f2f2f
 82c:	2f2f2f2f 	svccs	0x002f2f2f
 830:	2f2f332f 	svccs	0x002f332f
 834:	2f2f2f2f 	svccs	0x002f2f2f
 838:	2f4b2f33 	svccs	0x004b2f33
 83c:	4b2f352f 	blmi	bcdd00 <FLASH_SIZE+0xb4dd00>
 840:	2f2f2f2f 	svccs	0x002f2f2f
 844:	2f2f2f2f 	svccs	0x002f2f2f
 848:	21212f2f 			; <UNDEFINED> instruction: 0x21212f2f
 84c:	2f272f2f 	svccs	0x00272f2f
 850:	2f2f2f2f 	svccs	0x002f2f2f
 854:	2f422f2f 	svccs	0x00422f2f
 858:	2f332f2f 	svccs	0x00332f2f
 85c:	2f2f2f4b 	svccs	0x002f2f4b
 860:	2f2f2f2f 	svccs	0x002f2f2f
 864:	2f2f2f35 	svccs	0x002f2f35
 868:	342f2f2f 	strtcc	r2, [pc], #-3887	; 870 <SCB_VECTKEY+0x276>
 86c:	2f2f2f2f 	svccs	0x002f2f2f
 870:	2f21212f 	svccs	0x0021212f
 874:	2e0a032f 	cdpcs	3, 0, cr0, cr10, cr15, {1}
 878:	2f2f2f2f 	svccs	0x002f2f2f
 87c:	2f2f2f2f 	svccs	0x002f2f2f
 880:	2f2f332f 	svccs	0x002f332f
 884:	2f2f2f4b 	svccs	0x002f2f4b
 888:	2f2f2f34 	svccs	0x002f2f34
 88c:	2f2f2f2f 	svccs	0x002f2f2f
 890:	4b2f2f2f 	blmi	bcc554 <FLASH_SIZE+0xb4c554>
 894:	2f2f2f2f 	svccs	0x002f2f2f
 898:	2f2f2f2f 	svccs	0x002f2f2f
 89c:	2f362f2f 	svccs	0x00362f2f
 8a0:	2f2f2f4b 	svccs	0x002f2f4b
 8a4:	2f2f2f2f 	svccs	0x002f2f2f
 8a8:	4b2f2f34 	blmi	bcc580 <FLASH_SIZE+0xb4c580>
 8ac:	2f2f332f 	svccs	0x002f332f
 8b0:	342f2f4b 	strtcc	r2, [pc], #-3915	; 8b8 <SCB_VECTKEY+0x2be>
 8b4:	2f2f212f 	svccs	0x002f212f
 8b8:	2f2f3421 	svccs	0x002f3421
 8bc:	2f2f2f4b 	svccs	0x002f2f4b
 8c0:	2f332f2f 	svccs	0x00332f2f
 8c4:	2f2f2f2f 	svccs	0x002f2f2f
 8c8:	2f2f2f2f 	svccs	0x002f2f2f
 8cc:	2f332f2f 	svccs	0x00332f2f
 8d0:	2f2f2f2f 	svccs	0x002f2f2f
 8d4:	4b2f4b2f 	blmi	bd3598 <FLASH_SIZE+0xb53598>
 8d8:	032f2f2f 			; <UNDEFINED> instruction: 0x032f2f2f
 8dc:	20032e25 	andcs	r2, r3, r5, lsr #28
 8e0:	9e12039e 	mrcls	3, 0, r0, cr2, cr14, {4}
 8e4:	039e1b03 	orrseq	r1, lr, #3072	; 0xc00
 8e8:	039e0198 	orrseq	r0, lr, #152, 2	; 0x26
 8ec:	38039e12 	stmdacc	r3, {r1, r4, r9, sl, fp, ip, pc}
 8f0:	9e2c039e 	mcrls	3, 1, r0, cr12, cr14, {4}
 8f4:	2f901f03 	svccs	0x00901f03
 8f8:	2f2f414b 	svccs	0x002f414b
 8fc:	2f2f2f4b 	svccs	0x002f2f4b
 900:	2f2f2f2f 	svccs	0x002f2f2f
 904:	2f4b2f2f 	svccs	0x004b2f2f
 908:	2f2f2f2f 	svccs	0x002f2f2f
 90c:	10032f2f 	andne	r2, r3, pc, lsr #30
 910:	4b4b4b2e 	blmi	12d35d0 <FLASH_SIZE+0x12535d0>
 914:	2f4b302f 	svccs	0x004b302f
 918:	2f4b4b4b 	svccs	0x004b4b4b
 91c:	2f2f2f36 	svccs	0x002f2f36
 920:	01000402 	tsteq	r0, r2, lsl #8
 924:	Address 0x0000000000000924 is out of bounds.


Disassembly of section .debug_info:

00000000 <.debug_info>:
   0:	0000001e 	andeq	r0, r0, lr, lsl r0
   4:	00000002 	andeq	r0, r0, r2
   8:	01040000 	mrseq	r0, (UNDEF: 4)
	...
  18:	0000000e 	andeq	r0, r0, lr
  1c:	00000041 	andeq	r0, r0, r1, asr #32
  20:	Address 0x0000000000000020 is out of bounds.


Disassembly of section .debug_abbrev:

00000000 <.debug_abbrev>:
   0:	10001101 	andne	r1, r0, r1, lsl #2
   4:	03065506 	movweq	r5, #25862	; 0x6506
   8:	250e1b0e 	strcs	r1, [lr, #-2830]	; 0xfffff4f2
   c:	0005130e 	andeq	r1, r5, lr, lsl #6
	...

Disassembly of section .debug_aranges:

00000000 <.debug_aranges>:
   0:	00000024 	andeq	r0, r0, r4, lsr #32
   4:	00000002 	andeq	r0, r0, r2
   8:	00040000 	andeq	r0, r4, r0
   c:	00000000 	andeq	r0, r0, r0
  10:	08001f80 	stmdaeq	r0, {r7, r8, r9, sl, fp, ip}
  14:	0000075c 	andeq	r0, r0, ip, asr r7
  18:	08000200 	stmdaeq	r0, {r9}
  1c:	00001d80 	andeq	r1, r0, r0, lsl #27
	...

Disassembly of section .debug_str:

00000000 <.debug_str>:
   0:	336d7473 	cmncc	sp, #1929379840	; 0x73000000
   4:	6f666532 	svcvs	0x00666532
   8:	2e687472 	mcrcs	4, 3, r7, cr8, cr2, {3}
   c:	682f0073 	stmdavs	pc!, {r0, r1, r4, r5, r6}	; <UNPREDICTABLE>
  10:	2f656d6f 	svccs	0x00656d6f
  14:	7163616a 	cmnvc	r3, sl, ror #2
  18:	2f736575 	svccs	0x00736575
  1c:	68746967 	ldmdavs	r4!, {r0, r1, r2, r5, r6, r8, fp, sp, lr}^
  20:	732f6275 			; <UNDEFINED> instruction: 0x732f6275
  24:	32336d74 	eorscc	r6, r3, #116, 26	; 0x1d00
  28:	6f66652d 	svcvs	0x0066652d
  2c:	2f687472 	svccs	0x00687472
  30:	72616f62 	rsbvc	r6, r1, #392	; 0x188
  34:	6c622f64 	stclvs	15, cr2, [r2], #-400	; 0xfffffe70
  38:	2d6b6361 	stclcs	3, cr6, [fp, #-388]!	; 0xfffffe7c
  3c:	6c6c6970 			; <UNDEFINED> instruction: 0x6c6c6970
  40:	554e4700 	strbpl	r4, [lr, #-1792]	; 0xfffff900
  44:	20534120 	subscs	r4, r3, r0, lsr #2
  48:	34332e32 	ldrtcc	r2, [r3], #-3634	; 0xfffff1ce
	...

Disassembly of section .debug_ranges:

00000000 <.debug_ranges>:
   0:	ffffffff 			; <UNDEFINED> instruction: 0xffffffff
   4:	00000000 	andeq	r0, r0, r0
   8:	08001f80 	stmdaeq	r0, {r7, r8, r9, sl, fp, ip}
   c:	080026dc 	stmdaeq	r0, {r2, r3, r4, r6, r7, r9, sl, sp}
  10:	08000200 	stmdaeq	r0, {r9}
  14:	08001f80 	stmdaeq	r0, {r7, r8, r9, sl, fp, ip}
	...
