
build/stm32eforth.elf:     file format elf32-littlearm


Disassembly of section .isr_vector:

08000000 <isr_vectors>:
 8000000:	20020000 	andcs	r0, r2, r0
 8000004:	08002061 	stmdaeq	r0, {r0, r5, r6, sp}
 8000008:	08001f91 	stmdaeq	r0, {r0, r4, r7, r8, r9, sl, fp, ip}
 800000c:	08001f91 	stmdaeq	r0, {r0, r4, r7, r8, r9, sl, fp, ip}
 8000010:	08001f91 	stmdaeq	r0, {r0, r4, r7, r8, r9, sl, fp, ip}
 8000014:	08001f91 	stmdaeq	r0, {r0, r4, r7, r8, r9, sl, fp, ip}
 8000018:	08001f91 	stmdaeq	r0, {r0, r4, r7, r8, r9, sl, fp, ip}
	...
 800002c:	08001f91 	stmdaeq	r0, {r0, r4, r7, r8, r9, sl, fp, ip}
 8000030:	08001f91 	stmdaeq	r0, {r0, r4, r7, r8, r9, sl, fp, ip}
 8000034:	00000000 	andeq	r0, r0, r0
 8000038:	08001f91 	stmdaeq	r0, {r0, r4, r7, r8, r9, sl, fp, ip}
 800003c:	08001fb1 	stmdaeq	r0, {r0, r4, r5, r7, r8, r9, sl, fp, ip}

08000040 <irq0>:
 8000040:	08001f91 	stmdaeq	r0, {r0, r4, r7, r8, r9, sl, fp, ip}
 8000044:	08001f91 	stmdaeq	r0, {r0, r4, r7, r8, r9, sl, fp, ip}
 8000048:	08001f91 	stmdaeq	r0, {r0, r4, r7, r8, r9, sl, fp, ip}
 800004c:	08001f91 	stmdaeq	r0, {r0, r4, r7, r8, r9, sl, fp, ip}
 8000050:	08001f91 	stmdaeq	r0, {r0, r4, r7, r8, r9, sl, fp, ip}
 8000054:	08001f91 	stmdaeq	r0, {r0, r4, r7, r8, r9, sl, fp, ip}
 8000058:	08001f91 	stmdaeq	r0, {r0, r4, r7, r8, r9, sl, fp, ip}
 800005c:	08001f91 	stmdaeq	r0, {r0, r4, r7, r8, r9, sl, fp, ip}
 8000060:	08001f91 	stmdaeq	r0, {r0, r4, r7, r8, r9, sl, fp, ip}
 8000064:	08001f91 	stmdaeq	r0, {r0, r4, r7, r8, r9, sl, fp, ip}
 8000068:	08001f91 	stmdaeq	r0, {r0, r4, r7, r8, r9, sl, fp, ip}
 800006c:	08001f91 	stmdaeq	r0, {r0, r4, r7, r8, r9, sl, fp, ip}
 8000070:	08001f91 	stmdaeq	r0, {r0, r4, r7, r8, r9, sl, fp, ip}
 8000074:	08001f91 	stmdaeq	r0, {r0, r4, r7, r8, r9, sl, fp, ip}
 8000078:	08001f91 	stmdaeq	r0, {r0, r4, r7, r8, r9, sl, fp, ip}
 800007c:	08001f91 	stmdaeq	r0, {r0, r4, r7, r8, r9, sl, fp, ip}
 8000080:	08001f91 	stmdaeq	r0, {r0, r4, r7, r8, r9, sl, fp, ip}
 8000084:	08001f91 	stmdaeq	r0, {r0, r4, r7, r8, r9, sl, fp, ip}
 8000088:	08001f91 	stmdaeq	r0, {r0, r4, r7, r8, r9, sl, fp, ip}
	...
 800009c:	08001f91 	stmdaeq	r0, {r0, r4, r7, r8, r9, sl, fp, ip}
 80000a0:	08001f91 	stmdaeq	r0, {r0, r4, r7, r8, r9, sl, fp, ip}
 80000a4:	08001f91 	stmdaeq	r0, {r0, r4, r7, r8, r9, sl, fp, ip}
 80000a8:	08001f91 	stmdaeq	r0, {r0, r4, r7, r8, r9, sl, fp, ip}
 80000ac:	08001f91 	stmdaeq	r0, {r0, r4, r7, r8, r9, sl, fp, ip}
 80000b0:	08001f91 	stmdaeq	r0, {r0, r4, r7, r8, r9, sl, fp, ip}
 80000b4:	08001f91 	stmdaeq	r0, {r0, r4, r7, r8, r9, sl, fp, ip}
 80000b8:	08001f91 	stmdaeq	r0, {r0, r4, r7, r8, r9, sl, fp, ip}
 80000bc:	08001f91 	stmdaeq	r0, {r0, r4, r7, r8, r9, sl, fp, ip}
 80000c0:	08001f91 	stmdaeq	r0, {r0, r4, r7, r8, r9, sl, fp, ip}
 80000c4:	08001f91 	stmdaeq	r0, {r0, r4, r7, r8, r9, sl, fp, ip}
 80000c8:	08001f91 	stmdaeq	r0, {r0, r4, r7, r8, r9, sl, fp, ip}
 80000cc:	08001f91 	stmdaeq	r0, {r0, r4, r7, r8, r9, sl, fp, ip}
 80000d0:	08001f91 	stmdaeq	r0, {r0, r4, r7, r8, r9, sl, fp, ip}
 80000d4:	08001fcd 	stmdaeq	r0, {r0, r2, r3, r6, r7, r8, r9, sl, fp, ip}
 80000d8:	08001f91 	stmdaeq	r0, {r0, r4, r7, r8, r9, sl, fp, ip}
 80000dc:	00000000 	andeq	r0, r0, r0
 80000e0:	08001f91 	stmdaeq	r0, {r0, r4, r7, r8, r9, sl, fp, ip}
 80000e4:	08001f91 	stmdaeq	r0, {r0, r4, r7, r8, r9, sl, fp, ip}
 80000e8:	08001f91 	stmdaeq	r0, {r0, r4, r7, r8, r9, sl, fp, ip}
	...
 80000fc:	08001f91 	stmdaeq	r0, {r0, r4, r7, r8, r9, sl, fp, ip}
 8000100:	00000000 	andeq	r0, r0, r0
 8000104:	08001f91 	stmdaeq	r0, {r0, r4, r7, r8, r9, sl, fp, ip}
 8000108:	08001f91 	stmdaeq	r0, {r0, r4, r7, r8, r9, sl, fp, ip}
 800010c:	08001f91 	stmdaeq	r0, {r0, r4, r7, r8, r9, sl, fp, ip}
	...
 8000120:	08001f91 	stmdaeq	r0, {r0, r4, r7, r8, r9, sl, fp, ip}
 8000124:	08001f91 	stmdaeq	r0, {r0, r4, r7, r8, r9, sl, fp, ip}
 8000128:	08001f91 	stmdaeq	r0, {r0, r4, r7, r8, r9, sl, fp, ip}
 800012c:	08001f91 	stmdaeq	r0, {r0, r4, r7, r8, r9, sl, fp, ip}
 8000130:	08001f91 	stmdaeq	r0, {r0, r4, r7, r8, r9, sl, fp, ip}
	...
 800014c:	08001f91 	stmdaeq	r0, {r0, r4, r7, r8, r9, sl, fp, ip}
 8000150:	08001f91 	stmdaeq	r0, {r0, r4, r7, r8, r9, sl, fp, ip}
 8000154:	08001f91 	stmdaeq	r0, {r0, r4, r7, r8, r9, sl, fp, ip}
 8000158:	08001f91 	stmdaeq	r0, {r0, r4, r7, r8, r9, sl, fp, ip}
 800015c:	08001f91 	stmdaeq	r0, {r0, r4, r7, r8, r9, sl, fp, ip}
 8000160:	08001f91 	stmdaeq	r0, {r0, r4, r7, r8, r9, sl, fp, ip}
 8000164:	08001f91 	stmdaeq	r0, {r0, r4, r7, r8, r9, sl, fp, ip}
	...
 8000184:	08001f91 	stmdaeq	r0, {r0, r4, r7, r8, r9, sl, fp, ip}
	...
 8000190:	08001f91 	stmdaeq	r0, {r0, r4, r7, r8, r9, sl, fp, ip}
 8000194:	08001f91 	stmdaeq	r0, {r0, r4, r7, r8, r9, sl, fp, ip}

08000198 <isr_end>:
	...

Disassembly of section .text:

08000200 <UZERO>:
 8000200:	00000000 	andeq	r0, r0, r0
 8000204:	0000aa55 	andeq	sl, r0, r5, asr sl
	...
 8000210:	ffffffff 			; <UNDEFINED> instruction: 0xffffffff
 8000214:	47414d49 	strbmi	r4, [r1, -r9, asr #26]
 8000218:	20001ec4 	andcs	r1, r0, r4, asr #29
 800021c:	0000000a 	andeq	r0, r0, sl
	...
 8000230:	2001ff00 	andcs	pc, r1, r0, lsl #30
 8000234:	20001380 	andcs	r1, r0, r0, lsl #7
 8000238:	00000000 	andeq	r0, r0, r0
 800023c:	080032f8 	stmdaeq	r0, {r3, r4, r5, r6, r7, r9, ip, sp}
 8000240:	08001f8c 	stmdaeq	r0, {r2, r3, r7, r8, r9, sl, fp, ip}
 8000244:	20001f8c 	andcs	r1, r0, ip, lsl #31
 8000248:	080032f8 	stmdaeq	r0, {r3, r4, r5, r6, r7, r9, ip, sp}
	...

08000254 <ULAST>:
	...
 800026c:	f3af 8000 	nop.w

08000270 <RSTIVEC>:
 8000270:	f842 ed04 	str.w	lr, [r2, #-4]!
 8000274:	f000 f889 	bl	800038a <DOLIT>
 8000278:	08001f91 	stmdaeq	r0, {r0, r4, r7, r8, r9, sl, fp, ip}
 800027c:	f000 f8e2 	bl	8000444 <SWAP>
 8000280:	f000 f94e 	bl	8000520 <CELLS>
 8000284:	f000 f881 	bl	800038a <DOLIT>
 8000288:	20000040 	andcs	r0, r0, r0, asr #32
 800028c:	f000 f90e 	bl	80004ac <PLUS>
 8000290:	f000 f8ac 	bl	80003ec <STORE>
 8000294:	f852 fb04 	ldr.w	pc, [r2], #4

08000298 <SETIVEC>:
 8000298:	f842 ed04 	str.w	lr, [r2, #-4]!
 800029c:	f000 f8d2 	bl	8000444 <SWAP>
 80002a0:	f000 f920 	bl	80004e4 <ONEP>
 80002a4:	f000 f8ce 	bl	8000444 <SWAP>
 80002a8:	f000 f93a 	bl	8000520 <CELLS>
 80002ac:	f000 f86d 	bl	800038a <DOLIT>
 80002b0:	20000040 	andcs	r0, r0, r0, asr #32
 80002b4:	f000 f8fa 	bl	80004ac <PLUS>
 80002b8:	f000 f898 	bl	80003ec <STORE>
 80002bc:	f852 fb04 	ldr.w	pc, [r2], #4

080002c0 <RAND>:
 80002c0:	f842 ed04 	str.w	lr, [r2, #-4]!
 80002c4:	f000 f9d2 	bl	800066c <SEED>
 80002c8:	f000 f896 	bl	80003f8 <AT>
 80002cc:	ea4f 3445 	mov.w	r4, r5, lsl #13
 80002d0:	ea85 0504 	eor.w	r5, r5, r4
 80002d4:	ea4f 4455 	mov.w	r4, r5, lsr #17
 80002d8:	ea85 0504 	eor.w	r5, r5, r4
 80002dc:	ea4f 1445 	mov.w	r4, r5, lsl #5
 80002e0:	ea85 0504 	eor.w	r5, r5, r4
 80002e4:	f000 f8aa 	bl	800043c <DUPP>
 80002e8:	f000 f9c0 	bl	800066c <SEED>
 80002ec:	f000 f87e 	bl	80003ec <STORE>
 80002f0:	f000 f950 	bl	8000594 <ABSS>
 80002f4:	f000 f8a6 	bl	8000444 <SWAP>
 80002f8:	f000 fa94 	bl	8000824 <MODD>
 80002fc:	f852 fb04 	ldr.w	pc, [r2], #4

08000300 <PAUSE>:
 8000300:	f842 ed04 	str.w	lr, [r2, #-4]!
 8000304:	f000 f9be 	bl	8000684 <TIMER>
 8000308:	f000 f870 	bl	80003ec <STORE>

0800030c <PAUSE_LOOP>:
 800030c:	f000 f9ba 	bl	8000684 <TIMER>
 8000310:	f000 f872 	bl	80003f8 <AT>
 8000314:	f000 f856 	bl	80003c4 <QBRAN>
 8000318:	08000324 	stmdaeq	r0, {r2, r5, r8, r9}
 800031c:	f000 f85e 	bl	80003dc <BRAN>
 8000320:	0800030c 	stmdaeq	r0, {r2, r3, r8, r9}

08000324 <PAUSE_EXIT>:
 8000324:	f852 fb04 	ldr.w	pc, [r2], #4

08000328 <ULED>:
 8000328:	f44f 5600 	mov.w	r6, #8192	; 0x2000
 800032c:	f44f 6400 	mov.w	r4, #2048	; 0x800
 8000330:	f2c4 0402 	movt	r4, #16386	; 0x4002
 8000334:	0028      	movs	r0, r5
 8000336:	f851 5b04 	ldr.w	r5, [r1], #4
 800033a:	d001      	beq.n	8000340 <ULED_OFF>
 800033c:	ea4f 4606 	mov.w	r6, r6, lsl #16

08000340 <ULED_OFF>:
 8000340:	61a6      	str	r6, [r4, #24]
 8000342:	4770      	bx	lr

08000344 <QKEY>:
 8000344:	f841 5d04 	str.w	r5, [r1, #-4]!
 8000348:	6e5f      	ldr	r7, [r3, #100]	; 0x64
 800034a:	6e1e      	ldr	r6, [r3, #96]	; 0x60
 800034c:	ea96 0507 	eors.w	r5, r6, r7
 8000350:	d00c      	beq.n	800036c <QKEY+0x28>
 8000352:	f103 0750 	add.w	r7, r3, #80	; 0x50
 8000356:	4437      	add	r7, r6
 8000358:	783d      	ldrb	r5, [r7, #0]
 800035a:	f106 0601 	add.w	r6, r6, #1
 800035e:	f006 060f 	and.w	r6, r6, #15
 8000362:	661e      	str	r6, [r3, #96]	; 0x60
 8000364:	f841 5d04 	str.w	r5, [r1, #-4]!
 8000368:	f04f 35ff 	mov.w	r5, #4294967295	; 0xffffffff
 800036c:	4770      	bx	lr
 800036e:	bf00      	nop

08000370 <EMIT>:
 8000370:	f44f 5480 	mov.w	r4, #4096	; 0x1000
 8000374:	f2c4 0401 	movt	r4, #16385	; 0x4001
 8000378:	6826      	ldr	r6, [r4, #0]
 800037a:	f016 0680 	ands.w	r6, r6, #128	; 0x80
 800037e:	d0fb      	beq.n	8000378 <EMIT+0x8>
 8000380:	7125      	strb	r5, [r4, #4]
 8000382:	f851 5b04 	ldr.w	r5, [r1], #4
 8000386:	4770      	bx	lr

08000388 <NOP>:
 8000388:	4770      	bx	lr

0800038a <DOLIT>:
 800038a:	f841 5d04 	str.w	r5, [r1, #-4]!
 800038e:	f02e 0e01 	bic.w	lr, lr, #1
 8000392:	f85e 5b04 	ldr.w	r5, [lr], #4
 8000396:	f04e 0e01 	orr.w	lr, lr, #1
 800039a:	4770      	bx	lr

0800039c <EXECU>:
 800039c:	f045 0401 	orr.w	r4, r5, #1
 80003a0:	f851 5b04 	ldr.w	r5, [r1], #4
 80003a4:	4720      	bx	r4

080003a6 <DONXT>:
 80003a6:	6814      	ldr	r4, [r2, #0]
 80003a8:	b924      	cbnz	r4, 80003b4 <NEXT1>
 80003aa:	f102 0204 	add.w	r2, r2, #4
 80003ae:	f10e 0e04 	add.w	lr, lr, #4
 80003b2:	4770      	bx	lr

080003b4 <NEXT1>:
 80003b4:	f1a4 0401 	sub.w	r4, r4, #1
 80003b8:	6014      	str	r4, [r2, #0]
 80003ba:	f85e ec01 	ldr.w	lr, [lr, #-1]
 80003be:	f04e 0e01 	orr.w	lr, lr, #1
 80003c2:	4770      	bx	lr

080003c4 <QBRAN>:
 80003c4:	002c      	movs	r4, r5
 80003c6:	f851 5b04 	ldr.w	r5, [r1], #4
 80003ca:	d104      	bne.n	80003d6 <QBRAN1>
 80003cc:	f85e ec01 	ldr.w	lr, [lr, #-1]
 80003d0:	f04e 0e01 	orr.w	lr, lr, #1
 80003d4:	4770      	bx	lr

080003d6 <QBRAN1>:
 80003d6:	f10e 0e04 	add.w	lr, lr, #4
 80003da:	4770      	bx	lr

080003dc <BRAN>:
 80003dc:	f85e ec01 	ldr.w	lr, [lr, #-1]
 80003e0:	f04e 0e01 	orr.w	lr, lr, #1
 80003e4:	4770      	bx	lr
 80003e6:	bf00      	nop

080003e8 <EXIT>:
 80003e8:	f852 fb04 	ldr.w	pc, [r2], #4

080003ec <STORE>:
 80003ec:	f851 4b04 	ldr.w	r4, [r1], #4
 80003f0:	602c      	str	r4, [r5, #0]
 80003f2:	f851 5b04 	ldr.w	r5, [r1], #4
 80003f6:	4770      	bx	lr

080003f8 <AT>:
 80003f8:	682d      	ldr	r5, [r5, #0]
 80003fa:	4770      	bx	lr

080003fc <CSTOR>:
 80003fc:	f851 4b04 	ldr.w	r4, [r1], #4
 8000400:	702c      	strb	r4, [r5, #0]
 8000402:	f851 5b04 	ldr.w	r5, [r1], #4
 8000406:	4770      	bx	lr

08000408 <CAT>:
 8000408:	782d      	ldrb	r5, [r5, #0]
 800040a:	4770      	bx	lr

0800040c <RFROM>:
 800040c:	f841 5d04 	str.w	r5, [r1, #-4]!
 8000410:	f852 5b04 	ldr.w	r5, [r2], #4
 8000414:	4770      	bx	lr
 8000416:	bf00      	nop

08000418 <RAT>:
 8000418:	f841 5d04 	str.w	r5, [r1, #-4]!
 800041c:	6815      	ldr	r5, [r2, #0]
 800041e:	4770      	bx	lr

08000420 <TOR>:
 8000420:	f842 5d04 	str.w	r5, [r2, #-4]!
 8000424:	f851 5b04 	ldr.w	r5, [r1], #4
 8000428:	4770      	bx	lr
 800042a:	bf00      	nop

0800042c <SPAT>:
 800042c:	f841 5d04 	str.w	r5, [r1, #-4]!
 8000430:	460d      	mov	r5, r1
 8000432:	4770      	bx	lr

08000434 <DROP>:
 8000434:	f851 5b04 	ldr.w	r5, [r1], #4
 8000438:	4770      	bx	lr
 800043a:	bf00      	nop

0800043c <DUPP>:
 800043c:	f841 5d04 	str.w	r5, [r1, #-4]!
 8000440:	4770      	bx	lr
 8000442:	bf00      	nop

08000444 <SWAP>:
 8000444:	680c      	ldr	r4, [r1, #0]
 8000446:	600d      	str	r5, [r1, #0]
 8000448:	4625      	mov	r5, r4
 800044a:	4770      	bx	lr

0800044c <OVER>:
 800044c:	f841 5d04 	str.w	r5, [r1, #-4]!
 8000450:	684d      	ldr	r5, [r1, #4]
 8000452:	4770      	bx	lr

08000454 <ZLESS>:
 8000454:	f04f 0400 	mov.w	r4, #0
 8000458:	eb04 0525 	add.w	r5, r4, r5, asr #32
 800045c:	4770      	bx	lr
 800045e:	bf00      	nop

08000460 <ANDD>:
 8000460:	f851 4b04 	ldr.w	r4, [r1], #4
 8000464:	ea05 0504 	and.w	r5, r5, r4
 8000468:	4770      	bx	lr
 800046a:	bf00      	nop

0800046c <ORR>:
 800046c:	f851 4b04 	ldr.w	r4, [r1], #4
 8000470:	ea45 0504 	orr.w	r5, r5, r4
 8000474:	4770      	bx	lr
 8000476:	bf00      	nop

08000478 <XORR>:
 8000478:	f851 4b04 	ldr.w	r4, [r1], #4
 800047c:	ea85 0504 	eor.w	r5, r5, r4
 8000480:	4770      	bx	lr
 8000482:	bf00      	nop

08000484 <UPLUS>:
 8000484:	680c      	ldr	r4, [r1, #0]
 8000486:	1964      	adds	r4, r4, r5
 8000488:	f04f 0500 	mov.w	r5, #0
 800048c:	f145 0500 	adc.w	r5, r5, #0
 8000490:	600c      	str	r4, [r1, #0]
 8000492:	4770      	bx	lr

08000494 <RSHIFT>:
 8000494:	f851 4b04 	ldr.w	r4, [r1], #4
 8000498:	fa44 f505 	asr.w	r5, r4, r5
 800049c:	4770      	bx	lr
 800049e:	bf00      	nop

080004a0 <LSHIFT>:
 80004a0:	f851 4b04 	ldr.w	r4, [r1], #4
 80004a4:	fa04 f505 	lsl.w	r5, r4, r5
 80004a8:	4770      	bx	lr
 80004aa:	bf00      	nop

080004ac <PLUS>:
 80004ac:	f851 4b04 	ldr.w	r4, [r1], #4
 80004b0:	4425      	add	r5, r4
 80004b2:	4770      	bx	lr

080004b4 <SUBB>:
 80004b4:	f851 4b04 	ldr.w	r4, [r1], #4
 80004b8:	ebc5 0504 	rsb	r5, r5, r4
 80004bc:	4770      	bx	lr
 80004be:	bf00      	nop

080004c0 <STAR>:
 80004c0:	f851 4b04 	ldr.w	r4, [r1], #4
 80004c4:	fb04 f505 	mul.w	r5, r4, r5
 80004c8:	4770      	bx	lr
 80004ca:	bf00      	nop

080004cc <UMSTA>:
 80004cc:	680c      	ldr	r4, [r1, #0]
 80004ce:	fba5 6704 	umull	r6, r7, r5, r4
 80004d2:	600e      	str	r6, [r1, #0]
 80004d4:	463d      	mov	r5, r7
 80004d6:	4770      	bx	lr

080004d8 <MSTAR>:
 80004d8:	680c      	ldr	r4, [r1, #0]
 80004da:	fb85 6704 	smull	r6, r7, r5, r4
 80004de:	600e      	str	r6, [r1, #0]
 80004e0:	463d      	mov	r5, r7
 80004e2:	4770      	bx	lr

080004e4 <ONEP>:
 80004e4:	f105 0501 	add.w	r5, r5, #1
 80004e8:	4770      	bx	lr
 80004ea:	bf00      	nop

080004ec <ONEM>:
 80004ec:	f1a5 0501 	sub.w	r5, r5, #1
 80004f0:	4770      	bx	lr
 80004f2:	bf00      	nop

080004f4 <TWOP>:
 80004f4:	f105 0502 	add.w	r5, r5, #2
 80004f8:	4770      	bx	lr
 80004fa:	bf00      	nop

080004fc <TWOM>:
 80004fc:	f1a5 0502 	sub.w	r5, r5, #2
 8000500:	4770      	bx	lr
 8000502:	bf00      	nop

08000504 <CELLP>:
 8000504:	f105 0504 	add.w	r5, r5, #4
 8000508:	4770      	bx	lr
 800050a:	bf00      	nop

0800050c <CELLM>:
 800050c:	f1a5 0504 	sub.w	r5, r5, #4
 8000510:	4770      	bx	lr
 8000512:	bf00      	nop

08000514 <BLANK>:
 8000514:	f841 5d04 	str.w	r5, [r1, #-4]!
 8000518:	f04f 0520 	mov.w	r5, #32
 800051c:	4770      	bx	lr
 800051e:	bf00      	nop

08000520 <CELLS>:
 8000520:	ea4f 0585 	mov.w	r5, r5, lsl #2
 8000524:	4770      	bx	lr
 8000526:	bf00      	nop

08000528 <CELLSL>:
 8000528:	ea4f 05a5 	mov.w	r5, r5, asr #2
 800052c:	4770      	bx	lr
 800052e:	bf00      	nop

08000530 <TWOST>:
 8000530:	ea4f 0545 	mov.w	r5, r5, lsl #1
 8000534:	4770      	bx	lr
 8000536:	bf00      	nop

08000538 <TWOSL>:
 8000538:	ea4f 0565 	mov.w	r5, r5, asr #1
 800053c:	4770      	bx	lr
 800053e:	bf00      	nop

08000540 <QDUP>:
 8000540:	002c      	movs	r4, r5
 8000542:	bf18      	it	ne
 8000544:	f841 5d04 	strne.w	r5, [r1, #-4]!
 8000548:	4770      	bx	lr
 800054a:	bf00      	nop

0800054c <ROT>:
 800054c:	680c      	ldr	r4, [r1, #0]
 800054e:	600d      	str	r5, [r1, #0]
 8000550:	684d      	ldr	r5, [r1, #4]
 8000552:	604c      	str	r4, [r1, #4]
 8000554:	4770      	bx	lr
 8000556:	bf00      	nop

08000558 <DDROP>:
 8000558:	f851 5b04 	ldr.w	r5, [r1], #4
 800055c:	f851 5b04 	ldr.w	r5, [r1], #4
 8000560:	4770      	bx	lr
 8000562:	bf00      	nop

08000564 <DDUP>:
 8000564:	680c      	ldr	r4, [r1, #0]
 8000566:	f841 5d04 	str.w	r5, [r1, #-4]!
 800056a:	f841 4d04 	str.w	r4, [r1, #-4]!
 800056e:	4770      	bx	lr

08000570 <DPLUS>:
 8000570:	f851 4b04 	ldr.w	r4, [r1], #4
 8000574:	f851 6b04 	ldr.w	r6, [r1], #4
 8000578:	680f      	ldr	r7, [r1, #0]
 800057a:	19e4      	adds	r4, r4, r7
 800057c:	600c      	str	r4, [r1, #0]
 800057e:	eb45 0506 	adc.w	r5, r5, r6
 8000582:	4770      	bx	lr

08000584 <INVER>:
 8000584:	ea6f 0505 	mvn.w	r5, r5
 8000588:	4770      	bx	lr
 800058a:	bf00      	nop

0800058c <NEGAT>:
 800058c:	f1c5 0500 	rsb	r5, r5, #0
 8000590:	4770      	bx	lr
 8000592:	bf00      	nop

08000594 <ABSS>:
 8000594:	f015 4f00 	tst.w	r5, #2147483648	; 0x80000000
 8000598:	bf18      	it	ne
 800059a:	426d      	negne	r5, r5
 800059c:	4770      	bx	lr
 800059e:	bf00      	nop

080005a0 <ZEQUAL>:
 80005a0:	b915      	cbnz	r5, 80005a8 <ZEQUAL+0x8>
 80005a2:	f04f 35ff 	mov.w	r5, #4294967295	; 0xffffffff
 80005a6:	4770      	bx	lr
 80005a8:	ea85 0505 	eor.w	r5, r5, r5
 80005ac:	4770      	bx	lr
 80005ae:	bf00      	nop

080005b0 <EQUAL>:
 80005b0:	f851 4b04 	ldr.w	r4, [r1], #4
 80005b4:	42a5      	cmp	r5, r4
 80005b6:	bf0c      	ite	eq
 80005b8:	f06f 0500 	mvneq.w	r5, #0
 80005bc:	2500      	movne	r5, #0
 80005be:	4770      	bx	lr

080005c0 <ULESS>:
 80005c0:	f851 4b04 	ldr.w	r4, [r1], #4
 80005c4:	42ac      	cmp	r4, r5
 80005c6:	bf34      	ite	cc
 80005c8:	f06f 0500 	mvncc.w	r5, #0
 80005cc:	2500      	movcs	r5, #0
 80005ce:	4770      	bx	lr

080005d0 <LESS>:
 80005d0:	f851 4b04 	ldr.w	r4, [r1], #4
 80005d4:	42ac      	cmp	r4, r5
 80005d6:	bfb4      	ite	lt
 80005d8:	f06f 0500 	mvnlt.w	r5, #0
 80005dc:	2500      	movge	r5, #0
 80005de:	4770      	bx	lr

080005e0 <GREAT>:
 80005e0:	f851 4b04 	ldr.w	r4, [r1], #4
 80005e4:	42ac      	cmp	r4, r5
 80005e6:	bfcc      	ite	gt
 80005e8:	f06f 0500 	mvngt.w	r5, #0
 80005ec:	2500      	movle	r5, #0
 80005ee:	4770      	bx	lr

080005f0 <MAX>:
 80005f0:	f851 4b04 	ldr.w	r4, [r1], #4
 80005f4:	42ac      	cmp	r4, r5
 80005f6:	bfc8      	it	gt
 80005f8:	4625      	movgt	r5, r4
 80005fa:	4770      	bx	lr

080005fc <MIN>:
 80005fc:	f851 4b04 	ldr.w	r4, [r1], #4
 8000600:	42ac      	cmp	r4, r5
 8000602:	bfb8      	it	lt
 8000604:	4625      	movlt	r5, r4
 8000606:	4770      	bx	lr

08000608 <PSTOR>:
 8000608:	f851 4b04 	ldr.w	r4, [r1], #4
 800060c:	682e      	ldr	r6, [r5, #0]
 800060e:	4426      	add	r6, r4
 8000610:	602e      	str	r6, [r5, #0]
 8000612:	f851 5b04 	ldr.w	r5, [r1], #4
 8000616:	4770      	bx	lr

08000618 <DSTOR>:
 8000618:	f851 4b04 	ldr.w	r4, [r1], #4
 800061c:	f851 6b04 	ldr.w	r6, [r1], #4
 8000620:	f845 4b04 	str.w	r4, [r5], #4
 8000624:	602e      	str	r6, [r5, #0]
 8000626:	f851 5b04 	ldr.w	r5, [r1], #4
 800062a:	4770      	bx	lr

0800062c <DAT>:
 800062c:	686c      	ldr	r4, [r5, #4]
 800062e:	f841 4d04 	str.w	r4, [r1, #-4]!
 8000632:	682d      	ldr	r5, [r5, #0]
 8000634:	4770      	bx	lr
 8000636:	bf00      	nop

08000638 <COUNT>:
 8000638:	f815 4b01 	ldrb.w	r4, [r5], #1
 800063c:	f841 5d04 	str.w	r5, [r1, #-4]!
 8000640:	4625      	mov	r5, r4
 8000642:	4770      	bx	lr

08000644 <DNEGA>:
 8000644:	680c      	ldr	r4, [r1, #0]
 8000646:	eba6 0606 	sub.w	r6, r6, r6
 800064a:	1b34      	subs	r4, r6, r4
 800064c:	eb66 0505 	sbc.w	r5, r6, r5
 8000650:	600c      	str	r4, [r1, #0]
 8000652:	4770      	bx	lr

08000654 <DOVAR>:
 8000654:	f841 5d04 	str.w	r5, [r1, #-4]!
 8000658:	f1ae 0501 	sub.w	r5, lr, #1
 800065c:	f852 fb04 	ldr.w	pc, [r2], #4

08000660 <DOCON>:
 8000660:	f841 5d04 	str.w	r5, [r1, #-4]!
 8000664:	f85e 5c01 	ldr.w	r5, [lr, #-1]
 8000668:	f852 fb04 	ldr.w	pc, [r2], #4

0800066c <SEED>:
 800066c:	f841 5d04 	str.w	r5, [r1, #-4]!
 8000670:	f103 0504 	add.w	r5, r3, #4
 8000674:	4770      	bx	lr
 8000676:	bf00      	nop

08000678 <MSEC>:
 8000678:	f841 5d04 	str.w	r5, [r1, #-4]!
 800067c:	f103 0508 	add.w	r5, r3, #8
 8000680:	4770      	bx	lr
 8000682:	bf00      	nop

08000684 <TIMER>:
 8000684:	f841 5d04 	str.w	r5, [r1, #-4]!
 8000688:	f103 050c 	add.w	r5, r3, #12
 800068c:	4770      	bx	lr
 800068e:	bf00      	nop

08000690 <TBOOT>:
 8000690:	f841 5d04 	str.w	r5, [r1, #-4]!
 8000694:	f103 0518 	add.w	r5, r3, #24
 8000698:	4770      	bx	lr
 800069a:	bf00      	nop

0800069c <BASE>:
 800069c:	f841 5d04 	str.w	r5, [r1, #-4]!
 80006a0:	f103 051c 	add.w	r5, r3, #28
 80006a4:	4770      	bx	lr

080006a6 <TEMP>:
 80006a6:	f841 5d04 	str.w	r5, [r1, #-4]!
 80006aa:	f103 0520 	add.w	r5, r3, #32
 80006ae:	4770      	bx	lr

080006b0 <SPAN>:
 80006b0:	f841 5d04 	str.w	r5, [r1, #-4]!
 80006b4:	f103 0524 	add.w	r5, r3, #36	; 0x24
 80006b8:	4770      	bx	lr
 80006ba:	bf00      	nop

080006bc <INN>:
 80006bc:	f841 5d04 	str.w	r5, [r1, #-4]!
 80006c0:	f103 0528 	add.w	r5, r3, #40	; 0x28
 80006c4:	4770      	bx	lr
 80006c6:	bf00      	nop

080006c8 <NTIB>:
 80006c8:	f841 5d04 	str.w	r5, [r1, #-4]!
 80006cc:	f103 052c 	add.w	r5, r3, #44	; 0x2c
 80006d0:	4770      	bx	lr
 80006d2:	bf00      	nop

080006d4 <TEVAL>:
 80006d4:	f841 5d04 	str.w	r5, [r1, #-4]!
 80006d8:	f103 0534 	add.w	r5, r3, #52	; 0x34
 80006dc:	4770      	bx	lr
 80006de:	bf00      	nop

080006e0 <HLD>:
 80006e0:	f841 5d04 	str.w	r5, [r1, #-4]!
 80006e4:	f103 0538 	add.w	r5, r3, #56	; 0x38
 80006e8:	4770      	bx	lr
 80006ea:	bf00      	nop

080006ec <CNTXT>:
 80006ec:	f841 5d04 	str.w	r5, [r1, #-4]!
 80006f0:	f103 053c 	add.w	r5, r3, #60	; 0x3c
 80006f4:	4770      	bx	lr
 80006f6:	bf00      	nop

080006f8 <CPP>:
 80006f8:	f841 5d04 	str.w	r5, [r1, #-4]!
 80006fc:	f103 0544 	add.w	r5, r3, #68	; 0x44
 8000700:	4770      	bx	lr
 8000702:	bf00      	nop

08000704 <FCP>:
 8000704:	f841 5d04 	str.w	r5, [r1, #-4]!
 8000708:	f103 0540 	add.w	r5, r3, #64	; 0x40
 800070c:	4770      	bx	lr
 800070e:	bf00      	nop

08000710 <LAST>:
 8000710:	f841 5d04 	str.w	r5, [r1, #-4]!
 8000714:	f103 0548 	add.w	r5, r3, #72	; 0x48
 8000718:	4770      	bx	lr
 800071a:	bf00      	nop

0800071c <USER_BEGIN>:
 800071c:	f841 5d04 	str.w	r5, [r1, #-4]!
 8000720:	4d00      	ldr	r5, [pc, #0]	; (8000724 <USR_BGN_ADR>)
 8000722:	4770      	bx	lr

08000724 <USR_BGN_ADR>:
 8000724:	20001f8c 	andcs	r1, r0, ip, lsl #31

08000728 <USER_END>:
 8000728:	f841 5d04 	str.w	r5, [r1, #-4]!
 800072c:	f64f 6580 	movw	r5, #65152	; 0xfe80
 8000730:	f2c2 0501 	movt	r5, #8193	; 0x2001
 8000734:	4770      	bx	lr
 8000736:	bf00      	nop

08000738 <IMG_ADR>:
 8000738:	f841 5d04 	str.w	r5, [r1, #-4]!
 800073c:	4d00      	ldr	r5, [pc, #0]	; (8000740 <USR_IMG_ADR>)
 800073e:	4770      	bx	lr

08000740 <USR_IMG_ADR>:
 8000740:	08003800 	stmdaeq	r0, {fp, ip, sp}

08000744 <IMG_SIGN>:
 8000744:	f841 5d04 	str.w	r5, [r1, #-4]!
 8000748:	f103 0514 	add.w	r5, r3, #20
 800074c:	4770      	bx	lr
 800074e:	bf00      	nop

08000750 <WITHI>:
 8000750:	f842 ed04 	str.w	lr, [r2, #-4]!
 8000754:	f7ff fe7a 	bl	800044c <OVER>
 8000758:	f7ff feac 	bl	80004b4 <SUBB>
 800075c:	f7ff fe60 	bl	8000420 <TOR>
 8000760:	f7ff fea8 	bl	80004b4 <SUBB>
 8000764:	f7ff fe52 	bl	800040c <RFROM>
 8000768:	f7ff ff2a 	bl	80005c0 <ULESS>
 800076c:	f852 fb04 	ldr.w	pc, [r2], #4

08000770 <UMMOD>:
 8000770:	f04f 0701 	mov.w	r7, #1
 8000774:	f851 4b04 	ldr.w	r4, [r1], #4
 8000778:	680e      	ldr	r6, [r1, #0]

0800077a <UMMOD0>:
 800077a:	19b6      	adds	r6, r6, r6
 800077c:	4164      	adcs	r4, r4
 800077e:	d304      	bcc.n	800078a <UMMOD1>
 8000780:	eba4 0405 	sub.w	r4, r4, r5
 8000784:	f106 0601 	add.w	r6, r6, #1
 8000788:	e004      	b.n	8000794 <UMMOD2>

0800078a <UMMOD1>:
 800078a:	1b64      	subs	r4, r4, r5
 800078c:	bf28      	it	cs
 800078e:	3601      	addcs	r6, #1
 8000790:	d200      	bcs.n	8000794 <UMMOD2>
 8000792:	442c      	add	r4, r5

08000794 <UMMOD2>:
 8000794:	19ff      	adds	r7, r7, r7
 8000796:	d3f0      	bcc.n	800077a <UMMOD0>
 8000798:	4635      	mov	r5, r6
 800079a:	600c      	str	r4, [r1, #0]
 800079c:	4770      	bx	lr
 800079e:	bf00      	nop

080007a0 <MSMOD>:
 80007a0:	f842 ed04 	str.w	lr, [r2, #-4]!
 80007a4:	f7ff fe4a 	bl	800043c <DUPP>
 80007a8:	f7ff fe54 	bl	8000454 <ZLESS>
 80007ac:	f7ff fe46 	bl	800043c <DUPP>
 80007b0:	f7ff fe36 	bl	8000420 <TOR>
 80007b4:	f7ff fe06 	bl	80003c4 <QBRAN>
 80007b8:	200007cc 	andcs	r0, r0, ip, asr #15
 80007bc:	f7ff fee6 	bl	800058c <NEGAT>
 80007c0:	f7ff fe2e 	bl	8000420 <TOR>
 80007c4:	f7ff ff3e 	bl	8000644 <DNEGA>
 80007c8:	f7ff fe20 	bl	800040c <RFROM>

080007cc <MMOD1>:
 80007cc:	f7ff fe28 	bl	8000420 <TOR>
 80007d0:	f7ff fe34 	bl	800043c <DUPP>
 80007d4:	f7ff fe3e 	bl	8000454 <ZLESS>
 80007d8:	f7ff fdf4 	bl	80003c4 <QBRAN>
 80007dc:	200007e8 	andcs	r0, r0, r8, ror #15
 80007e0:	f7ff fe1a 	bl	8000418 <RAT>
 80007e4:	f7ff fe62 	bl	80004ac <PLUS>

080007e8 <MMOD2>:
 80007e8:	f7ff fe10 	bl	800040c <RFROM>
 80007ec:	f7ff ffc0 	bl	8000770 <UMMOD>
 80007f0:	f7ff fe0c 	bl	800040c <RFROM>
 80007f4:	f7ff fde6 	bl	80003c4 <QBRAN>
 80007f8:	20000808 	andcs	r0, r0, r8, lsl #16
 80007fc:	f7ff fe22 	bl	8000444 <SWAP>
 8000800:	f7ff fec4 	bl	800058c <NEGAT>
 8000804:	f7ff fe1e 	bl	8000444 <SWAP>

08000808 <MMOD3>:
 8000808:	f852 fb04 	ldr.w	pc, [r2], #4

0800080c <SLMOD>:
 800080c:	f842 ed04 	str.w	lr, [r2, #-4]!
 8000810:	f7ff fe1c 	bl	800044c <OVER>
 8000814:	f7ff fe1e 	bl	8000454 <ZLESS>
 8000818:	f7ff fe14 	bl	8000444 <SWAP>
 800081c:	f7ff ffc0 	bl	80007a0 <MSMOD>
 8000820:	f852 fb04 	ldr.w	pc, [r2], #4

08000824 <MODD>:
 8000824:	f842 ed04 	str.w	lr, [r2, #-4]!
 8000828:	f7ff fff0 	bl	800080c <SLMOD>
 800082c:	f7ff fe02 	bl	8000434 <DROP>
 8000830:	f852 fb04 	ldr.w	pc, [r2], #4

08000834 <SLASH>:
 8000834:	f842 ed04 	str.w	lr, [r2, #-4]!
 8000838:	f7ff ffe8 	bl	800080c <SLMOD>
 800083c:	f7ff fe02 	bl	8000444 <SWAP>
 8000840:	f7ff fdf8 	bl	8000434 <DROP>
 8000844:	f852 fb04 	ldr.w	pc, [r2], #4

08000848 <SSMOD>:
 8000848:	f842 ed04 	str.w	lr, [r2, #-4]!
 800084c:	f7ff fde8 	bl	8000420 <TOR>
 8000850:	f7ff fe42 	bl	80004d8 <MSTAR>
 8000854:	f7ff fdda 	bl	800040c <RFROM>
 8000858:	f7ff ffa2 	bl	80007a0 <MSMOD>
 800085c:	f852 fb04 	ldr.w	pc, [r2], #4

08000860 <STASL>:
 8000860:	f842 ed04 	str.w	lr, [r2, #-4]!
 8000864:	f7ff fff0 	bl	8000848 <SSMOD>
 8000868:	f7ff fdec 	bl	8000444 <SWAP>
 800086c:	f7ff fde2 	bl	8000434 <DROP>
 8000870:	f852 fb04 	ldr.w	pc, [r2], #4

08000874 <ALGND>:
 8000874:	f105 0503 	add.w	r5, r5, #3
 8000878:	f06f 0403 	mvn.w	r4, #3
 800087c:	ea05 0504 	and.w	r5, r5, r4
 8000880:	4770      	bx	lr
 8000882:	bf00      	nop

08000884 <TCHAR>:
 8000884:	f842 ed04 	str.w	lr, [r2, #-4]!
 8000888:	f7ff fd7f 	bl	800038a <DOLIT>
 800088c:	0000007f 	andeq	r0, r0, pc, ror r0
 8000890:	f7ff fde6 	bl	8000460 <ANDD>
 8000894:	f7ff fdd2 	bl	800043c <DUPP>
 8000898:	f7ff fe3c 	bl	8000514 <BLANK>
 800089c:	f7ff fd75 	bl	800038a <DOLIT>
 80008a0:	0000007f 	andeq	r0, r0, pc, ror r0
 80008a4:	f7ff ff54 	bl	8000750 <WITHI>
 80008a8:	f7ff fe6c 	bl	8000584 <INVER>
 80008ac:	f7ff fd8a 	bl	80003c4 <QBRAN>
 80008b0:	200008c0 	andcs	r0, r0, r0, asr #17
 80008b4:	f7ff fdbe 	bl	8000434 <DROP>
 80008b8:	f7ff fd67 	bl	800038a <DOLIT>
 80008bc:	0000005f 	andeq	r0, r0, pc, asr r0

080008c0 <TCHA1>:
 80008c0:	f852 fb04 	ldr.w	pc, [r2], #4

080008c4 <DEPTH>:
 80008c4:	f44f 467f 	mov.w	r6, #65280	; 0xff00
 80008c8:	f2c2 0601 	movt	r6, #8193	; 0x2001
 80008cc:	eba6 0601 	sub.w	r6, r6, r1
 80008d0:	f841 5d04 	str.w	r5, [r1, #-4]!
 80008d4:	ea4f 05a6 	mov.w	r5, r6, asr #2
 80008d8:	4770      	bx	lr
 80008da:	bf00      	nop

080008dc <PICK>:
 80008dc:	f842 ed04 	str.w	lr, [r2, #-4]!
 80008e0:	f7ff fe00 	bl	80004e4 <ONEP>
 80008e4:	f7ff fe1c 	bl	8000520 <CELLS>
 80008e8:	f7ff fda0 	bl	800042c <SPAT>
 80008ec:	f7ff fdde 	bl	80004ac <PLUS>
 80008f0:	f7ff fd82 	bl	80003f8 <AT>
 80008f4:	f852 fb04 	ldr.w	pc, [r2], #4

080008f8 <HERE>:
 80008f8:	f842 ed04 	str.w	lr, [r2, #-4]!
 80008fc:	f7ff fefc 	bl	80006f8 <CPP>
 8000900:	f7ff fd7a 	bl	80003f8 <AT>
 8000904:	f852 fb04 	ldr.w	pc, [r2], #4

08000908 <PAD>:
 8000908:	f842 ed04 	str.w	lr, [r2, #-4]!
 800090c:	f7ff fff4 	bl	80008f8 <HERE>
 8000910:	f105 0550 	add.w	r5, r5, #80	; 0x50
 8000914:	f852 fb04 	ldr.w	pc, [r2], #4

08000918 <TIB>:
 8000918:	f841 5d04 	str.w	r5, [r1, #-4]!
 800091c:	6b1d      	ldr	r5, [r3, #48]	; 0x30
 800091e:	4770      	bx	lr

08000920 <ATEXE>:
 8000920:	002c      	movs	r4, r5
 8000922:	f851 5b04 	ldr.w	r5, [r1], #4
 8000926:	6824      	ldr	r4, [r4, #0]
 8000928:	f044 0401 	orr.w	r4, r4, #1
 800092c:	bf18      	it	ne
 800092e:	4720      	bxne	r4
 8000930:	4770      	bx	lr
 8000932:	bf00      	nop

08000934 <CMOVE>:
 8000934:	f851 6b04 	ldr.w	r6, [r1], #4
 8000938:	f851 7b04 	ldr.w	r7, [r1], #4
 800093c:	e003      	b.n	8000946 <CMOV1>

0800093e <CMOV0>:
 800093e:	f817 4b01 	ldrb.w	r4, [r7], #1
 8000942:	f806 4b01 	strb.w	r4, [r6], #1

08000946 <CMOV1>:
 8000946:	002d      	movs	r5, r5
 8000948:	d002      	beq.n	8000950 <CMOV2>
 800094a:	f1a5 0501 	sub.w	r5, r5, #1
 800094e:	e7f6      	b.n	800093e <CMOV0>

08000950 <CMOV2>:
 8000950:	f851 5b04 	ldr.w	r5, [r1], #4
 8000954:	4770      	bx	lr
 8000956:	bf00      	nop

08000958 <MOVE>:
 8000958:	f025 0503 	bic.w	r5, r5, #3
 800095c:	f851 6b04 	ldr.w	r6, [r1], #4
 8000960:	f851 7b04 	ldr.w	r7, [r1], #4
 8000964:	e003      	b.n	800096e <MOVE1>

08000966 <MOVE0>:
 8000966:	f857 4b04 	ldr.w	r4, [r7], #4
 800096a:	f846 4b04 	str.w	r4, [r6], #4

0800096e <MOVE1>:
 800096e:	002d      	movs	r5, r5
 8000970:	d002      	beq.n	8000978 <MOVE2>
 8000972:	f1a5 0504 	sub.w	r5, r5, #4
 8000976:	e7f6      	b.n	8000966 <MOVE0>

08000978 <MOVE2>:
 8000978:	f851 5b04 	ldr.w	r5, [r1], #4
 800097c:	4770      	bx	lr
 800097e:	bf00      	nop

08000980 <FILL>:
 8000980:	f851 6b04 	ldr.w	r6, [r1], #4
 8000984:	f851 7b04 	ldr.w	r7, [r1], #4

08000988 <FILL0>:
 8000988:	e000      	b.n	800098c <FILL1>
 800098a:	462d      	mov	r5, r5

0800098c <FILL1>:
 800098c:	f807 5b01 	strb.w	r5, [r7], #1
 8000990:	0036      	movs	r6, r6
 8000992:	d002      	beq.n	800099a <FILL2>
 8000994:	f1a6 0601 	sub.w	r6, r6, #1
 8000998:	e7f6      	b.n	8000988 <FILL0>

0800099a <FILL2>:
 800099a:	f851 5b04 	ldr.w	r5, [r1], #4
 800099e:	4770      	bx	lr

080009a0 <PACKS>:
 80009a0:	f842 ed04 	str.w	lr, [r2, #-4]!
 80009a4:	f7ff ff66 	bl	8000874 <ALGND>
 80009a8:	f7ff fd48 	bl	800043c <DUPP>
 80009ac:	f7ff fd38 	bl	8000420 <TOR>
 80009b0:	f7ff fd4c 	bl	800044c <OVER>
 80009b4:	f7ff fd7a 	bl	80004ac <PLUS>
 80009b8:	f7ff fd94 	bl	80004e4 <ONEP>
 80009bc:	f7ff fce5 	bl	800038a <DOLIT>
 80009c0:	fffffffc 			; <UNDEFINED> instruction: 0xfffffffc
 80009c4:	f7ff fd4c 	bl	8000460 <ANDD>
 80009c8:	f7ff fcdf 	bl	800038a <DOLIT>
 80009cc:	00000000 	andeq	r0, r0, r0
 80009d0:	f7ff fd38 	bl	8000444 <SWAP>
 80009d4:	f7ff fd0a 	bl	80003ec <STORE>
 80009d8:	f7ff fd1e 	bl	8000418 <RAT>
 80009dc:	f7ff fdc2 	bl	8000564 <DDUP>
 80009e0:	f7ff fd0c 	bl	80003fc <CSTOR>
 80009e4:	f7ff fd7e 	bl	80004e4 <ONEP>
 80009e8:	f7ff fd2c 	bl	8000444 <SWAP>
 80009ec:	f7ff ffa2 	bl	8000934 <CMOVE>
 80009f0:	f7ff fd0c 	bl	800040c <RFROM>
 80009f4:	f852 fb04 	ldr.w	pc, [r2], #4

080009f8 <DIGIT>:
 80009f8:	f842 ed04 	str.w	lr, [r2, #-4]!
 80009fc:	f7ff fcc5 	bl	800038a <DOLIT>
 8000a00:	00000009 	andeq	r0, r0, r9
 8000a04:	f7ff fd22 	bl	800044c <OVER>
 8000a08:	f7ff fde2 	bl	80005d0 <LESS>
 8000a0c:	f005 0507 	and.w	r5, r5, #7
 8000a10:	f7ff fd4c 	bl	80004ac <PLUS>
 8000a14:	f105 0530 	add.w	r5, r5, #48	; 0x30
 8000a18:	f852 fb04 	ldr.w	pc, [r2], #4

08000a1c <EXTRC>:
 8000a1c:	f842 ed04 	str.w	lr, [r2, #-4]!
 8000a20:	f7ff fcb3 	bl	800038a <DOLIT>
 8000a24:	00000000 	andeq	r0, r0, r0
 8000a28:	f7ff fd0c 	bl	8000444 <SWAP>
 8000a2c:	f7ff fea0 	bl	8000770 <UMMOD>
 8000a30:	f7ff fd08 	bl	8000444 <SWAP>
 8000a34:	f7ff ffe0 	bl	80009f8 <DIGIT>
 8000a38:	f852 fb04 	ldr.w	pc, [r2], #4

08000a3c <BDIGS>:
 8000a3c:	f842 ed04 	str.w	lr, [r2, #-4]!
 8000a40:	f7ff ff62 	bl	8000908 <PAD>
 8000a44:	f7ff fe4c 	bl	80006e0 <HLD>
 8000a48:	f7ff fcd0 	bl	80003ec <STORE>
 8000a4c:	f852 fb04 	ldr.w	pc, [r2], #4

08000a50 <HOLD>:
 8000a50:	f842 ed04 	str.w	lr, [r2, #-4]!
 8000a54:	f7ff fe44 	bl	80006e0 <HLD>
 8000a58:	f7ff fcce 	bl	80003f8 <AT>
 8000a5c:	f7ff fd46 	bl	80004ec <ONEM>
 8000a60:	f7ff fcec 	bl	800043c <DUPP>
 8000a64:	f7ff fe3c 	bl	80006e0 <HLD>
 8000a68:	f7ff fcc0 	bl	80003ec <STORE>
 8000a6c:	f7ff fcc6 	bl	80003fc <CSTOR>
 8000a70:	f852 fb04 	ldr.w	pc, [r2], #4

08000a74 <DIG>:
 8000a74:	f842 ed04 	str.w	lr, [r2, #-4]!
 8000a78:	f7ff fe10 	bl	800069c <BASE>
 8000a7c:	f7ff fcbc 	bl	80003f8 <AT>
 8000a80:	f7ff ffcc 	bl	8000a1c <EXTRC>
 8000a84:	f7ff ffe4 	bl	8000a50 <HOLD>
 8000a88:	f852 fb04 	ldr.w	pc, [r2], #4

08000a8c <DIGS>:
 8000a8c:	f842 ed04 	str.w	lr, [r2, #-4]!

08000a90 <DIGS1>:
 8000a90:	f7ff fff0 	bl	8000a74 <DIG>
 8000a94:	f7ff fcd2 	bl	800043c <DUPP>
 8000a98:	f7ff fc94 	bl	80003c4 <QBRAN>
 8000a9c:	20000aa2 	andcs	r0, r0, r2, lsr #21
 8000aa0:	e7f6      	b.n	8000a90 <DIGS1>

08000aa2 <DIGS2>:
 8000aa2:	f852 fb04 	ldr.w	pc, [r2], #4
 8000aa6:	bf00      	nop

08000aa8 <SIGN>:
 8000aa8:	f842 ed04 	str.w	lr, [r2, #-4]!
 8000aac:	f7ff fcd2 	bl	8000454 <ZLESS>
 8000ab0:	f7ff fc88 	bl	80003c4 <QBRAN>
 8000ab4:	20000ac4 	andcs	r0, r0, r4, asr #21
 8000ab8:	f7ff fc67 	bl	800038a <DOLIT>
 8000abc:	0000002d 	andeq	r0, r0, sp, lsr #32
 8000ac0:	f7ff ffc6 	bl	8000a50 <HOLD>

08000ac4 <SIGN1>:
 8000ac4:	f852 fb04 	ldr.w	pc, [r2], #4

08000ac8 <EDIGS>:
 8000ac8:	f842 ed04 	str.w	lr, [r2, #-4]!
 8000acc:	f7ff fcb2 	bl	8000434 <DROP>
 8000ad0:	f7ff fe06 	bl	80006e0 <HLD>
 8000ad4:	f7ff fc90 	bl	80003f8 <AT>
 8000ad8:	f7ff ff16 	bl	8000908 <PAD>
 8000adc:	f7ff fcb6 	bl	800044c <OVER>
 8000ae0:	f7ff fce8 	bl	80004b4 <SUBB>
 8000ae4:	f852 fb04 	ldr.w	pc, [r2], #4

08000ae8 <STRR>:
 8000ae8:	f842 ed04 	str.w	lr, [r2, #-4]!
 8000aec:	f7ff fca6 	bl	800043c <DUPP>
 8000af0:	f7ff fc96 	bl	8000420 <TOR>
 8000af4:	f7ff fd4e 	bl	8000594 <ABSS>
 8000af8:	f7ff ffa0 	bl	8000a3c <BDIGS>
 8000afc:	f7ff ffc6 	bl	8000a8c <DIGS>
 8000b00:	f7ff fc84 	bl	800040c <RFROM>
 8000b04:	f7ff ffd0 	bl	8000aa8 <SIGN>
 8000b08:	f7ff ffde 	bl	8000ac8 <EDIGS>
 8000b0c:	f852 fb04 	ldr.w	pc, [r2], #4

08000b10 <HEX>:
 8000b10:	f842 ed04 	str.w	lr, [r2, #-4]!
 8000b14:	f7ff fc39 	bl	800038a <DOLIT>
 8000b18:	00000010 	andeq	r0, r0, r0, lsl r0
 8000b1c:	f7ff fdbe 	bl	800069c <BASE>
 8000b20:	f7ff fc64 	bl	80003ec <STORE>
 8000b24:	f852 fb04 	ldr.w	pc, [r2], #4

08000b28 <DECIM>:
 8000b28:	f842 ed04 	str.w	lr, [r2, #-4]!
 8000b2c:	f7ff fc2d 	bl	800038a <DOLIT>
 8000b30:	0000000a 	andeq	r0, r0, sl
 8000b34:	f7ff fdb2 	bl	800069c <BASE>
 8000b38:	f7ff fc58 	bl	80003ec <STORE>
 8000b3c:	f852 fb04 	ldr.w	pc, [r2], #4

08000b40 <DIGTQ>:
 8000b40:	f842 ed04 	str.w	lr, [r2, #-4]!
 8000b44:	f7ff fc6c 	bl	8000420 <TOR>
 8000b48:	f7ff fc1f 	bl	800038a <DOLIT>
 8000b4c:	00000030 	andeq	r0, r0, r0, lsr r0
 8000b50:	f7ff fcb0 	bl	80004b4 <SUBB>
 8000b54:	f7ff fc19 	bl	800038a <DOLIT>
 8000b58:	00000009 	andeq	r0, r0, r9
 8000b5c:	f7ff fc76 	bl	800044c <OVER>
 8000b60:	f7ff fd36 	bl	80005d0 <LESS>
 8000b64:	f7ff fc2e 	bl	80003c4 <QBRAN>
 8000b68:	20000b8c 	andcs	r0, r0, ip, lsl #23
 8000b6c:	f7ff fc0d 	bl	800038a <DOLIT>
 8000b70:	00000007 	andeq	r0, r0, r7
 8000b74:	f7ff fc9e 	bl	80004b4 <SUBB>
 8000b78:	f7ff fc60 	bl	800043c <DUPP>
 8000b7c:	f7ff fc05 	bl	800038a <DOLIT>
 8000b80:	0000000a 	andeq	r0, r0, sl
 8000b84:	f7ff fd24 	bl	80005d0 <LESS>
 8000b88:	f7ff fc70 	bl	800046c <ORR>

08000b8c <DGTQ1>:
 8000b8c:	f7ff fc56 	bl	800043c <DUPP>
 8000b90:	f7ff fc3c 	bl	800040c <RFROM>
 8000b94:	f7ff fd14 	bl	80005c0 <ULESS>
 8000b98:	f852 fb04 	ldr.w	pc, [r2], #4

08000b9c <NUMBQ>:
 8000b9c:	f842 ed04 	str.w	lr, [r2, #-4]!
 8000ba0:	f7ff fd7c 	bl	800069c <BASE>
 8000ba4:	f7ff fc28 	bl	80003f8 <AT>
 8000ba8:	f7ff fc3a 	bl	8000420 <TOR>
 8000bac:	f7ff fbed 	bl	800038a <DOLIT>
 8000bb0:	00000000 	andeq	r0, r0, r0
 8000bb4:	f7ff fc4a 	bl	800044c <OVER>
 8000bb8:	f7ff fd3e 	bl	8000638 <COUNT>
 8000bbc:	f7ff fc46 	bl	800044c <OVER>
 8000bc0:	f7ff fc22 	bl	8000408 <CAT>
 8000bc4:	f7ff fbe1 	bl	800038a <DOLIT>
 8000bc8:	00000024 	andeq	r0, r0, r4, lsr #32
 8000bcc:	f7ff fcf0 	bl	80005b0 <EQUAL>
 8000bd0:	f7ff fbf8 	bl	80003c4 <QBRAN>
 8000bd4:	20000bec 	andcs	r0, r0, ip, ror #23
 8000bd8:	f7ff ff9a 	bl	8000b10 <HEX>
 8000bdc:	f7ff fc32 	bl	8000444 <SWAP>
 8000be0:	f7ff fc80 	bl	80004e4 <ONEP>
 8000be4:	f7ff fc2e 	bl	8000444 <SWAP>
 8000be8:	f7ff fc80 	bl	80004ec <ONEM>

08000bec <NUMQ1>:
 8000bec:	f7ff fc2e 	bl	800044c <OVER>
 8000bf0:	f7ff fc0a 	bl	8000408 <CAT>
 8000bf4:	f7ff fbc9 	bl	800038a <DOLIT>
 8000bf8:	0000002d 	andeq	r0, r0, sp, lsr #32
 8000bfc:	f7ff fcd8 	bl	80005b0 <EQUAL>
 8000c00:	f7ff fc0e 	bl	8000420 <TOR>
 8000c04:	f7ff fc1e 	bl	8000444 <SWAP>
 8000c08:	f7ff fc06 	bl	8000418 <RAT>
 8000c0c:	f7ff fc52 	bl	80004b4 <SUBB>
 8000c10:	f7ff fc18 	bl	8000444 <SWAP>
 8000c14:	f7ff fc00 	bl	8000418 <RAT>
 8000c18:	f7ff fc48 	bl	80004ac <PLUS>
 8000c1c:	f7ff fc90 	bl	8000540 <QDUP>
 8000c20:	f7ff fbd0 	bl	80003c4 <QBRAN>
 8000c24:	20000cb0 			; <UNDEFINED> instruction: 0x20000cb0
 8000c28:	f7ff fc60 	bl	80004ec <ONEM>
 8000c2c:	f7ff fbf8 	bl	8000420 <TOR>

08000c30 <NUMQ2>:
 8000c30:	f7ff fc04 	bl	800043c <DUPP>
 8000c34:	f7ff fbf4 	bl	8000420 <TOR>
 8000c38:	f7ff fbe6 	bl	8000408 <CAT>
 8000c3c:	f7ff fd2e 	bl	800069c <BASE>
 8000c40:	f7ff fbda 	bl	80003f8 <AT>
 8000c44:	f7ff ff7c 	bl	8000b40 <DIGTQ>
 8000c48:	f7ff fbbc 	bl	80003c4 <QBRAN>
 8000c4c:	20000c94 	mulcs	r0, r4, ip
 8000c50:	f7ff fbf8 	bl	8000444 <SWAP>
 8000c54:	f7ff fd22 	bl	800069c <BASE>
 8000c58:	f7ff fbce 	bl	80003f8 <AT>
 8000c5c:	f7ff fc30 	bl	80004c0 <STAR>
 8000c60:	f7ff fc24 	bl	80004ac <PLUS>
 8000c64:	f7ff fbd2 	bl	800040c <RFROM>
 8000c68:	f7ff fc3c 	bl	80004e4 <ONEP>
 8000c6c:	f7ff fb9b 	bl	80003a6 <DONXT>
 8000c70:	20000c30 	andcs	r0, r0, r0, lsr ip
 8000c74:	f7ff fbd0 	bl	8000418 <RAT>
 8000c78:	f7ff fbe4 	bl	8000444 <SWAP>
 8000c7c:	f7ff fbda 	bl	8000434 <DROP>
 8000c80:	f7ff fba0 	bl	80003c4 <QBRAN>
 8000c84:	20000c8c 	andcs	r0, r0, ip, lsl #25
 8000c88:	f7ff fc80 	bl	800058c <NEGAT>

08000c8c <NUMQ3>:
 8000c8c:	f7ff fbda 	bl	8000444 <SWAP>
 8000c90:	f000 b80c 	b.w	8000cac <NUMQ5>

08000c94 <NUMQ4>:
 8000c94:	f7ff fbba 	bl	800040c <RFROM>
 8000c98:	f7ff fbb8 	bl	800040c <RFROM>
 8000c9c:	f7ff fc5c 	bl	8000558 <DDROP>
 8000ca0:	f7ff fc5a 	bl	8000558 <DDROP>
 8000ca4:	f7ff fb71 	bl	800038a <DOLIT>
 8000ca8:	00000000 	andeq	r0, r0, r0

08000cac <NUMQ5>:
 8000cac:	f7ff fbc6 	bl	800043c <DUPP>

08000cb0 <NUMQ6>:
 8000cb0:	f7ff fbac 	bl	800040c <RFROM>
 8000cb4:	f7ff fc50 	bl	8000558 <DDROP>
 8000cb8:	f7ff fba8 	bl	800040c <RFROM>
 8000cbc:	f7ff fcee 	bl	800069c <BASE>
 8000cc0:	f7ff fb94 	bl	80003ec <STORE>
 8000cc4:	f852 fb04 	ldr.w	pc, [r2], #4

08000cc8 <KEY>:
 8000cc8:	f842 ed04 	str.w	lr, [r2, #-4]!

08000ccc <KEY1>:
 8000ccc:	f7ff fb3a 	bl	8000344 <QKEY>
 8000cd0:	f7ff fb78 	bl	80003c4 <QBRAN>
 8000cd4:	20000ccc 	andcs	r0, r0, ip, asr #25
 8000cd8:	f852 fb04 	ldr.w	pc, [r2], #4

08000cdc <SPACE>:
 8000cdc:	f842 ed04 	str.w	lr, [r2, #-4]!
 8000ce0:	f7ff fc18 	bl	8000514 <BLANK>
 8000ce4:	f7ff fb44 	bl	8000370 <EMIT>
 8000ce8:	f852 fb04 	ldr.w	pc, [r2], #4

08000cec <SPACS>:
 8000cec:	f842 ed04 	str.w	lr, [r2, #-4]!
 8000cf0:	f7ff fb4b 	bl	800038a <DOLIT>
 8000cf4:	00000000 	andeq	r0, r0, r0
 8000cf8:	f7ff fc7a 	bl	80005f0 <MAX>
 8000cfc:	f7ff fb90 	bl	8000420 <TOR>
 8000d00:	f000 b802 	b.w	8000d08 <CHAR2>

08000d04 <CHAR1>:
 8000d04:	f7ff ffea 	bl	8000cdc <SPACE>

08000d08 <CHAR2>:
 8000d08:	f7ff fb4d 	bl	80003a6 <DONXT>
 8000d0c:	20000d04 	andcs	r0, r0, r4, lsl #26
 8000d10:	f852 fb04 	ldr.w	pc, [r2], #4

08000d14 <TYPEE>:
 8000d14:	f842 ed04 	str.w	lr, [r2, #-4]!
 8000d18:	f7ff fb82 	bl	8000420 <TOR>
 8000d1c:	f000 b806 	b.w	8000d2c <TYPE2>

08000d20 <TYPE1>:
 8000d20:	f7ff fc8a 	bl	8000638 <COUNT>
 8000d24:	f7ff fdae 	bl	8000884 <TCHAR>
 8000d28:	f7ff fb22 	bl	8000370 <EMIT>

08000d2c <TYPE2>:
 8000d2c:	f7ff fb3b 	bl	80003a6 <DONXT>
 8000d30:	20000d20 	andcs	r0, r0, r0, lsr #26
 8000d34:	f7ff fb7e 	bl	8000434 <DROP>
 8000d38:	f852 fb04 	ldr.w	pc, [r2], #4

08000d3c <CR>:
 8000d3c:	f842 ed04 	str.w	lr, [r2, #-4]!
 8000d40:	f7ff fb23 	bl	800038a <DOLIT>
 8000d44:	0000000d 	andeq	r0, r0, sp
 8000d48:	f7ff fb12 	bl	8000370 <EMIT>
 8000d4c:	f7ff fb1d 	bl	800038a <DOLIT>
 8000d50:	0000000a 	andeq	r0, r0, sl
 8000d54:	f7ff fb0c 	bl	8000370 <EMIT>
 8000d58:	f852 fb04 	ldr.w	pc, [r2], #4

08000d5c <DOSTR>:
 8000d5c:	f842 ed04 	str.w	lr, [r2, #-4]!
 8000d60:	f7ff fb54 	bl	800040c <RFROM>
 8000d64:	f7ff fb52 	bl	800040c <RFROM>
 8000d68:	f7ff fbc0 	bl	80004ec <ONEM>
 8000d6c:	f7ff fb66 	bl	800043c <DUPP>
 8000d70:	f7ff fc62 	bl	8000638 <COUNT>
 8000d74:	f7ff fb9a 	bl	80004ac <PLUS>
 8000d78:	f7ff fd7c 	bl	8000874 <ALGND>
 8000d7c:	f7ff fbb2 	bl	80004e4 <ONEP>
 8000d80:	f7ff fb4e 	bl	8000420 <TOR>
 8000d84:	f7ff fb5e 	bl	8000444 <SWAP>
 8000d88:	f7ff fb4a 	bl	8000420 <TOR>
 8000d8c:	f852 fb04 	ldr.w	pc, [r2], #4

08000d90 <STRQP>:
 8000d90:	f842 ed04 	str.w	lr, [r2, #-4]!
 8000d94:	f7ff ffe2 	bl	8000d5c <DOSTR>
 8000d98:	f852 fb04 	ldr.w	pc, [r2], #4

08000d9c <DOTST>:
 8000d9c:	f842 ed04 	str.w	lr, [r2, #-4]!
 8000da0:	f7ff fc4a 	bl	8000638 <COUNT>
 8000da4:	f7ff ffb6 	bl	8000d14 <TYPEE>
 8000da8:	f852 fb04 	ldr.w	pc, [r2], #4

08000dac <DOTQP>:
 8000dac:	f842 ed04 	str.w	lr, [r2, #-4]!
 8000db0:	f7ff ffd4 	bl	8000d5c <DOSTR>
 8000db4:	f7ff fff2 	bl	8000d9c <DOTST>
 8000db8:	f852 fb04 	ldr.w	pc, [r2], #4

08000dbc <DOTR>:
 8000dbc:	f842 ed04 	str.w	lr, [r2, #-4]!
 8000dc0:	f7ff fb2e 	bl	8000420 <TOR>
 8000dc4:	f7ff fe90 	bl	8000ae8 <STRR>
 8000dc8:	f7ff fb20 	bl	800040c <RFROM>
 8000dcc:	f7ff fb3e 	bl	800044c <OVER>
 8000dd0:	f7ff fb70 	bl	80004b4 <SUBB>
 8000dd4:	f7ff ff8a 	bl	8000cec <SPACS>
 8000dd8:	f7ff ff9c 	bl	8000d14 <TYPEE>
 8000ddc:	f852 fb04 	ldr.w	pc, [r2], #4

08000de0 <UDOTR>:
 8000de0:	f842 ed04 	str.w	lr, [r2, #-4]!
 8000de4:	f7ff fb1c 	bl	8000420 <TOR>
 8000de8:	f7ff fe28 	bl	8000a3c <BDIGS>
 8000dec:	f7ff fe4e 	bl	8000a8c <DIGS>
 8000df0:	f7ff fe6a 	bl	8000ac8 <EDIGS>
 8000df4:	f7ff fb0a 	bl	800040c <RFROM>
 8000df8:	f7ff fb28 	bl	800044c <OVER>
 8000dfc:	f7ff fb5a 	bl	80004b4 <SUBB>
 8000e00:	f7ff ff74 	bl	8000cec <SPACS>
 8000e04:	f7ff ff86 	bl	8000d14 <TYPEE>
 8000e08:	f852 fb04 	ldr.w	pc, [r2], #4

08000e0c <UDOT>:
 8000e0c:	f842 ed04 	str.w	lr, [r2, #-4]!
 8000e10:	f7ff fe14 	bl	8000a3c <BDIGS>
 8000e14:	f7ff fe3a 	bl	8000a8c <DIGS>
 8000e18:	f7ff fe56 	bl	8000ac8 <EDIGS>
 8000e1c:	f7ff ff5e 	bl	8000cdc <SPACE>
 8000e20:	f7ff ff78 	bl	8000d14 <TYPEE>
 8000e24:	f852 fb04 	ldr.w	pc, [r2], #4

08000e28 <HDOT>:
 8000e28:	f842 ed04 	str.w	lr, [r2, #-4]!
 8000e2c:	f7ff fc36 	bl	800069c <BASE>
 8000e30:	f7ff fae2 	bl	80003f8 <AT>
 8000e34:	f7ff faf4 	bl	8000420 <TOR>
 8000e38:	f7ff fe6a 	bl	8000b10 <HEX>
 8000e3c:	f7ff ffe6 	bl	8000e0c <UDOT>
 8000e40:	f7ff fae4 	bl	800040c <RFROM>
 8000e44:	f7ff fc2a 	bl	800069c <BASE>
 8000e48:	f7ff fad0 	bl	80003ec <STORE>
 8000e4c:	f852 fb04 	ldr.w	pc, [r2], #4

08000e50 <DOT>:
 8000e50:	f842 ed04 	str.w	lr, [r2, #-4]!
 8000e54:	f7ff fc22 	bl	800069c <BASE>
 8000e58:	f7ff face 	bl	80003f8 <AT>
 8000e5c:	f7ff fa95 	bl	800038a <DOLIT>
 8000e60:	0000000a 	andeq	r0, r0, sl
 8000e64:	f7ff fb08 	bl	8000478 <XORR>
 8000e68:	f7ff faac 	bl	80003c4 <QBRAN>
 8000e6c:	20000e78 	andcs	r0, r0, r8, ror lr
 8000e70:	f7ff ffcc 	bl	8000e0c <UDOT>
 8000e74:	f852 fb04 	ldr.w	pc, [r2], #4

08000e78 <DOT1>:
 8000e78:	f7ff fe36 	bl	8000ae8 <STRR>
 8000e7c:	f7ff ff2e 	bl	8000cdc <SPACE>
 8000e80:	f7ff ff48 	bl	8000d14 <TYPEE>
 8000e84:	f852 fb04 	ldr.w	pc, [r2], #4

08000e88 <QUEST>:
 8000e88:	f842 ed04 	str.w	lr, [r2, #-4]!
 8000e8c:	f7ff fab4 	bl	80003f8 <AT>
 8000e90:	f7ff ffde 	bl	8000e50 <DOT>
 8000e94:	f852 fb04 	ldr.w	pc, [r2], #4

08000e98 <PARS>:
 8000e98:	f842 ed04 	str.w	lr, [r2, #-4]!
 8000e9c:	f7ff fc03 	bl	80006a6 <TEMP>
 8000ea0:	f7ff faa4 	bl	80003ec <STORE>
 8000ea4:	f7ff fad2 	bl	800044c <OVER>
 8000ea8:	f7ff faba 	bl	8000420 <TOR>
 8000eac:	f7ff fac6 	bl	800043c <DUPP>
 8000eb0:	f7ff fa88 	bl	80003c4 <QBRAN>
 8000eb4:	20000fa6 	andcs	r0, r0, r6, lsr #31
 8000eb8:	f7ff fb18 	bl	80004ec <ONEM>
 8000ebc:	f7ff fbf3 	bl	80006a6 <TEMP>
 8000ec0:	f7ff fa9a 	bl	80003f8 <AT>
 8000ec4:	f7ff fb26 	bl	8000514 <BLANK>
 8000ec8:	f7ff fb72 	bl	80005b0 <EQUAL>
 8000ecc:	f7ff fa7a 	bl	80003c4 <QBRAN>
 8000ed0:	20000f20 	andcs	r0, r0, r0, lsr #30
 8000ed4:	f7ff faa4 	bl	8000420 <TOR>

08000ed8 <PARS1>:
 8000ed8:	f7ff fb1c 	bl	8000514 <BLANK>
 8000edc:	f7ff fab6 	bl	800044c <OVER>
 8000ee0:	f7ff fa92 	bl	8000408 <CAT>
 8000ee4:	f7ff fae6 	bl	80004b4 <SUBB>
 8000ee8:	f7ff fab4 	bl	8000454 <ZLESS>
 8000eec:	f7ff fb4a 	bl	8000584 <INVER>
 8000ef0:	f7ff fa68 	bl	80003c4 <QBRAN>
 8000ef4:	20000f1c 	andcs	r0, r0, ip, lsl pc
 8000ef8:	f7ff faf4 	bl	80004e4 <ONEP>
 8000efc:	f7ff fa53 	bl	80003a6 <DONXT>
 8000f00:	20000ed8 	ldrdcs	r0, [r0], -r8
 8000f04:	f7ff fa82 	bl	800040c <RFROM>
 8000f08:	f7ff fa94 	bl	8000434 <DROP>
 8000f0c:	f7ff fa3d 	bl	800038a <DOLIT>
 8000f10:	00000000 	andeq	r0, r0, r0
 8000f14:	f7ff fa92 	bl	800043c <DUPP>
 8000f18:	f852 fb04 	ldr.w	pc, [r2], #4

08000f1c <PARS2>:
 8000f1c:	f7ff fa76 	bl	800040c <RFROM>

08000f20 <PARS3>:
 8000f20:	f7ff fa94 	bl	800044c <OVER>
 8000f24:	f7ff fa8e 	bl	8000444 <SWAP>
 8000f28:	f7ff fa7a 	bl	8000420 <TOR>

08000f2c <PARS4>:
 8000f2c:	f7ff fbbb 	bl	80006a6 <TEMP>
 8000f30:	f7ff fa62 	bl	80003f8 <AT>
 8000f34:	f7ff fa8a 	bl	800044c <OVER>
 8000f38:	f7ff fa66 	bl	8000408 <CAT>
 8000f3c:	f7ff faba 	bl	80004b4 <SUBB>
 8000f40:	f7ff fbb1 	bl	80006a6 <TEMP>
 8000f44:	f7ff fa58 	bl	80003f8 <AT>
 8000f48:	f7ff fae4 	bl	8000514 <BLANK>
 8000f4c:	f7ff fb30 	bl	80005b0 <EQUAL>
 8000f50:	f7ff fa38 	bl	80003c4 <QBRAN>
 8000f54:	20000f5c 	andcs	r0, r0, ip, asr pc
 8000f58:	f7ff fa7c 	bl	8000454 <ZLESS>

08000f5c <PARS5>:
 8000f5c:	f7ff fa32 	bl	80003c4 <QBRAN>
 8000f60:	20000f7a 	andcs	r0, r0, sl, ror pc
 8000f64:	f7ff fabe 	bl	80004e4 <ONEP>
 8000f68:	f7ff fa1d 	bl	80003a6 <DONXT>
 8000f6c:	20000f2c 	andcs	r0, r0, ip, lsr #30
 8000f70:	f7ff fa64 	bl	800043c <DUPP>
 8000f74:	f7ff fa54 	bl	8000420 <TOR>
 8000f78:	e009      	b.n	8000f8e <PARS7>

08000f7a <PARS6>:
 8000f7a:	f7ff fa47 	bl	800040c <RFROM>
 8000f7e:	f7ff fa59 	bl	8000434 <DROP>
 8000f82:	f7ff fa5b 	bl	800043c <DUPP>
 8000f86:	f7ff faad 	bl	80004e4 <ONEP>
 8000f8a:	f7ff fa49 	bl	8000420 <TOR>

08000f8e <PARS7>:
 8000f8e:	f7ff fa5d 	bl	800044c <OVER>
 8000f92:	f7ff fa8f 	bl	80004b4 <SUBB>
 8000f96:	f7ff fa39 	bl	800040c <RFROM>
 8000f9a:	f7ff fa37 	bl	800040c <RFROM>
 8000f9e:	f7ff fa89 	bl	80004b4 <SUBB>
 8000fa2:	f852 fb04 	ldr.w	pc, [r2], #4

08000fa6 <PARS8>:
 8000fa6:	f7ff fa51 	bl	800044c <OVER>
 8000faa:	f7ff fa2f 	bl	800040c <RFROM>
 8000fae:	f7ff fa81 	bl	80004b4 <SUBB>
 8000fb2:	f852 fb04 	ldr.w	pc, [r2], #4
 8000fb6:	bf00      	nop

08000fb8 <PARSE>:
 8000fb8:	f842 ed04 	str.w	lr, [r2, #-4]!
 8000fbc:	f7ff fa30 	bl	8000420 <TOR>
 8000fc0:	f7ff fcaa 	bl	8000918 <TIB>
 8000fc4:	f7ff fb7a 	bl	80006bc <INN>
 8000fc8:	f7ff fa16 	bl	80003f8 <AT>
 8000fcc:	f7ff fa6e 	bl	80004ac <PLUS>
 8000fd0:	f7ff fb7a 	bl	80006c8 <NTIB>
 8000fd4:	f7ff fa10 	bl	80003f8 <AT>
 8000fd8:	f7ff fb70 	bl	80006bc <INN>
 8000fdc:	f7ff fa0c 	bl	80003f8 <AT>
 8000fe0:	f7ff fa68 	bl	80004b4 <SUBB>
 8000fe4:	f7ff fa12 	bl	800040c <RFROM>
 8000fe8:	f7ff ff56 	bl	8000e98 <PARS>
 8000fec:	f7ff fb66 	bl	80006bc <INN>
 8000ff0:	f7ff fb0a 	bl	8000608 <PSTOR>
 8000ff4:	f852 fb04 	ldr.w	pc, [r2], #4

08000ff8 <DOTPR>:
 8000ff8:	f842 ed04 	str.w	lr, [r2, #-4]!
 8000ffc:	f7ff f9c5 	bl	800038a <DOLIT>
 8001000:	00000029 	andeq	r0, r0, r9, lsr #32
 8001004:	f7ff ffd8 	bl	8000fb8 <PARSE>
 8001008:	f7ff fe84 	bl	8000d14 <TYPEE>
 800100c:	f852 fb04 	ldr.w	pc, [r2], #4

08001010 <PAREN>:
 8001010:	f842 ed04 	str.w	lr, [r2, #-4]!
 8001014:	f7ff f9b9 	bl	800038a <DOLIT>
 8001018:	00000029 	andeq	r0, r0, r9, lsr #32
 800101c:	f7ff ffcc 	bl	8000fb8 <PARSE>
 8001020:	f7ff fa9a 	bl	8000558 <DDROP>
 8001024:	f852 fb04 	ldr.w	pc, [r2], #4

08001028 <BKSLA>:
 8001028:	f842 ed04 	str.w	lr, [r2, #-4]!
 800102c:	f7ff fb4c 	bl	80006c8 <NTIB>
 8001030:	f7ff f9e2 	bl	80003f8 <AT>
 8001034:	f7ff fb42 	bl	80006bc <INN>
 8001038:	f7ff f9d8 	bl	80003ec <STORE>
 800103c:	f852 fb04 	ldr.w	pc, [r2], #4

08001040 <CAHR>:
 8001040:	f842 ed04 	str.w	lr, [r2, #-4]!
 8001044:	f7ff fa66 	bl	8000514 <BLANK>
 8001048:	f7ff ffb6 	bl	8000fb8 <PARSE>
 800104c:	f7ff f9f2 	bl	8000434 <DROP>
 8001050:	f7ff f9da 	bl	8000408 <CAT>
 8001054:	f852 fb04 	ldr.w	pc, [r2], #4

08001058 <WORDD>:
 8001058:	f842 ed04 	str.w	lr, [r2, #-4]!
 800105c:	f7ff ffac 	bl	8000fb8 <PARSE>
 8001060:	f7ff fc4a 	bl	80008f8 <HERE>
 8001064:	f7ff fa4e 	bl	8000504 <CELLP>
 8001068:	f7ff fc9a 	bl	80009a0 <PACKS>
 800106c:	f852 fb04 	ldr.w	pc, [r2], #4

08001070 <TOKEN>:
 8001070:	f842 ed04 	str.w	lr, [r2, #-4]!
 8001074:	f7ff fa4e 	bl	8000514 <BLANK>
 8001078:	f7ff ffee 	bl	8001058 <WORDD>
 800107c:	f852 fb04 	ldr.w	pc, [r2], #4

08001080 <TOCFA>:
 8001080:	f842 ed04 	str.w	lr, [r2, #-4]!
 8001084:	f7ff fad8 	bl	8000638 <COUNT>
 8001088:	f7ff f97f 	bl	800038a <DOLIT>
 800108c:	0000001f 	andeq	r0, r0, pc, lsl r0
 8001090:	f7ff f9e6 	bl	8000460 <ANDD>
 8001094:	f7ff fa0a 	bl	80004ac <PLUS>
 8001098:	f7ff fbec 	bl	8000874 <ALGND>
 800109c:	f852 fb04 	ldr.w	pc, [r2], #4

080010a0 <NAMET>:
 80010a0:	f842 ed04 	str.w	lr, [r2, #-4]!
 80010a4:	f7ff ffec 	bl	8001080 <TOCFA>
 80010a8:	f7ff f9a6 	bl	80003f8 <AT>
 80010ac:	f852 fb04 	ldr.w	pc, [r2], #4

080010b0 <SAMEQ>:
 80010b0:	f842 ed04 	str.w	lr, [r2, #-4]!
 80010b4:	f7ff f9b4 	bl	8000420 <TOR>
 80010b8:	f000 b81e 	b.w	80010f8 <SAME2>

080010bc <SAME1>:
 80010bc:	f7ff f9c6 	bl	800044c <OVER>
 80010c0:	f7ff f9aa 	bl	8000418 <RAT>
 80010c4:	f7ff f9f2 	bl	80004ac <PLUS>
 80010c8:	f7ff f99e 	bl	8000408 <CAT>
 80010cc:	f7ff f9be 	bl	800044c <OVER>
 80010d0:	f7ff f9a2 	bl	8000418 <RAT>
 80010d4:	f7ff f9ea 	bl	80004ac <PLUS>
 80010d8:	f7ff f996 	bl	8000408 <CAT>
 80010dc:	f7ff f9ea 	bl	80004b4 <SUBB>
 80010e0:	f7ff fa2e 	bl	8000540 <QDUP>
 80010e4:	f7ff f96e 	bl	80003c4 <QBRAN>
 80010e8:	200010f8 	strdcs	r1, [r0], -r8
 80010ec:	f7ff f98e 	bl	800040c <RFROM>
 80010f0:	f7ff f9a0 	bl	8000434 <DROP>
 80010f4:	f852 fb04 	ldr.w	pc, [r2], #4

080010f8 <SAME2>:
 80010f8:	f7ff f955 	bl	80003a6 <DONXT>
 80010fc:	200010bc 	strhcs	r1, [r0], -ip
 8001100:	f7ff f943 	bl	800038a <DOLIT>
 8001104:	00000000 	andeq	r0, r0, r0
 8001108:	f852 fb04 	ldr.w	pc, [r2], #4

0800110c <FIND>:
 800110c:	f842 ed04 	str.w	lr, [r2, #-4]!
 8001110:	f7ff f998 	bl	8000444 <SWAP>
 8001114:	f7ff fa90 	bl	8000638 <COUNT>
 8001118:	f7ff f990 	bl	800043c <DUPP>
 800111c:	f7ff fac3 	bl	80006a6 <TEMP>
 8001120:	f7ff f964 	bl	80003ec <STORE>
 8001124:	f7ff f97c 	bl	8000420 <TOR>
 8001128:	f7ff f98c 	bl	8000444 <SWAP>

0800112c <FIND1>:
 800112c:	f7ff f986 	bl	800043c <DUPP>
 8001130:	f7ff f948 	bl	80003c4 <QBRAN>
 8001134:	2000117c 	andcs	r1, r0, ip, ror r1
 8001138:	f7ff f980 	bl	800043c <DUPP>
 800113c:	f7ff f964 	bl	8000408 <CAT>
 8001140:	f7ff f923 	bl	800038a <DOLIT>
 8001144:	ffffff1f 			; <UNDEFINED> instruction: 0xffffff1f
 8001148:	f7ff f98a 	bl	8000460 <ANDD>
 800114c:	f7ff f964 	bl	8000418 <RAT>
 8001150:	f7ff f992 	bl	8000478 <XORR>
 8001154:	f7ff f936 	bl	80003c4 <QBRAN>
 8001158:	20001168 	andcs	r1, r0, r8, ror #2
 800115c:	f7ff f9d6 	bl	800050c <CELLM>
 8001160:	f7ff f94a 	bl	80003f8 <AT>
 8001164:	f7ff bfe2 	b.w	800112c <FIND1>

08001168 <FIND2>:
 8001168:	f7ff f9bc 	bl	80004e4 <ONEP>
 800116c:	f7ff fa9b 	bl	80006a6 <TEMP>
 8001170:	f7ff f942 	bl	80003f8 <AT>
 8001174:	f7ff ff9c 	bl	80010b0 <SAMEQ>

08001178 <FIND3>:
 8001178:	f000 b80c 	b.w	8001194 <FIND4>

0800117c <FIND6>:
 800117c:	f7ff f946 	bl	800040c <RFROM>
 8001180:	f7ff f958 	bl	8000434 <DROP>
 8001184:	f7ff f95e 	bl	8000444 <SWAP>
 8001188:	f7ff f9b0 	bl	80004ec <ONEM>
 800118c:	f7ff f95a 	bl	8000444 <SWAP>
 8001190:	f852 fb04 	ldr.w	pc, [r2], #4

08001194 <FIND4>:
 8001194:	f7ff f916 	bl	80003c4 <QBRAN>
 8001198:	200011ac 	andcs	r1, r0, ip, lsr #3
 800119c:	f7ff f9a6 	bl	80004ec <ONEM>
 80011a0:	f7ff f9b4 	bl	800050c <CELLM>
 80011a4:	f7ff f928 	bl	80003f8 <AT>
 80011a8:	f7ff bfc0 	b.w	800112c <FIND1>

080011ac <FIND5>:
 80011ac:	f7ff f92e 	bl	800040c <RFROM>
 80011b0:	f7ff f940 	bl	8000434 <DROP>
 80011b4:	f7ff f946 	bl	8000444 <SWAP>
 80011b8:	f7ff f93c 	bl	8000434 <DROP>
 80011bc:	f7ff f996 	bl	80004ec <ONEM>
 80011c0:	f7ff f93c 	bl	800043c <DUPP>
 80011c4:	f7ff ff6c 	bl	80010a0 <NAMET>
 80011c8:	f7ff f93c 	bl	8000444 <SWAP>
 80011cc:	f852 fb04 	ldr.w	pc, [r2], #4

080011d0 <NAMEQ>:
 80011d0:	f842 ed04 	str.w	lr, [r2, #-4]!
 80011d4:	f7ff fa8a 	bl	80006ec <CNTXT>
 80011d8:	f7ff f90e 	bl	80003f8 <AT>
 80011dc:	f7ff ff96 	bl	800110c <FIND>
 80011e0:	f852 fb04 	ldr.w	pc, [r2], #4

080011e4 <BKSP>:
 80011e4:	f842 ed04 	str.w	lr, [r2, #-4]!
 80011e8:	f7ff f91a 	bl	8000420 <TOR>
 80011ec:	f7ff f92e 	bl	800044c <OVER>
 80011f0:	f7ff f90c 	bl	800040c <RFROM>
 80011f4:	f7ff f926 	bl	8000444 <SWAP>
 80011f8:	f7ff f928 	bl	800044c <OVER>
 80011fc:	f7ff f93c 	bl	8000478 <XORR>
 8001200:	f7ff f8e0 	bl	80003c4 <QBRAN>
 8001204:	2000122c 	andcs	r1, r0, ip, lsr #4
 8001208:	f7ff f8bf 	bl	800038a <DOLIT>
 800120c:	00000008 	andeq	r0, r0, r8
 8001210:	f7ff f8ae 	bl	8000370 <EMIT>
 8001214:	f7ff f96a 	bl	80004ec <ONEM>
 8001218:	f7ff f97c 	bl	8000514 <BLANK>
 800121c:	f7ff f8a8 	bl	8000370 <EMIT>
 8001220:	f7ff f8b3 	bl	800038a <DOLIT>
 8001224:	00000008 	andeq	r0, r0, r8
 8001228:	f7ff f8a2 	bl	8000370 <EMIT>

0800122c <BACK1>:
 800122c:	f852 fb04 	ldr.w	pc, [r2], #4

08001230 <TAP>:
 8001230:	f842 ed04 	str.w	lr, [r2, #-4]!
 8001234:	f7ff f902 	bl	800043c <DUPP>
 8001238:	f7ff f89a 	bl	8000370 <EMIT>
 800123c:	f7ff f906 	bl	800044c <OVER>
 8001240:	f7ff f8dc 	bl	80003fc <CSTOR>
 8001244:	f7ff f94e 	bl	80004e4 <ONEP>
 8001248:	f852 fb04 	ldr.w	pc, [r2], #4

0800124c <KTAP>:
 800124c:	f842 ed04 	str.w	lr, [r2, #-4]!
 8001250:	f7ff f8f4 	bl	800043c <DUPP>
 8001254:	f7ff f899 	bl	800038a <DOLIT>
 8001258:	0000000d 	andeq	r0, r0, sp
 800125c:	f7ff f90c 	bl	8000478 <XORR>
 8001260:	f7ff f8b0 	bl	80003c4 <QBRAN>
 8001264:	20001294 	mulcs	r0, r4, r2
 8001268:	f7ff f88f 	bl	800038a <DOLIT>
 800126c:	00000008 	andeq	r0, r0, r8
 8001270:	f7ff f902 	bl	8000478 <XORR>
 8001274:	f7ff f8a6 	bl	80003c4 <QBRAN>
 8001278:	2000128c 	andcs	r1, r0, ip, lsl #5
 800127c:	f7ff f94a 	bl	8000514 <BLANK>
 8001280:	f7ff ffd6 	bl	8001230 <TAP>
 8001284:	f852 fb04 	ldr.w	pc, [r2], #4
 8001288:	00000000 	andeq	r0, r0, r0

0800128c <KTAP1>:
 800128c:	f7ff ffaa 	bl	80011e4 <BKSP>
 8001290:	f852 fb04 	ldr.w	pc, [r2], #4

08001294 <KTAP2>:
 8001294:	f7ff f8ce 	bl	8000434 <DROP>
 8001298:	f7ff f8d4 	bl	8000444 <SWAP>
 800129c:	f7ff f8ca 	bl	8000434 <DROP>
 80012a0:	f7ff f8cc 	bl	800043c <DUPP>
 80012a4:	f852 fb04 	ldr.w	pc, [r2], #4

080012a8 <ACCEP>:
 80012a8:	f842 ed04 	str.w	lr, [r2, #-4]!
 80012ac:	f7ff f8ce 	bl	800044c <OVER>
 80012b0:	f7ff f8fc 	bl	80004ac <PLUS>
 80012b4:	f7ff f8ca 	bl	800044c <OVER>

080012b8 <ACCP1>:
 80012b8:	f7ff f954 	bl	8000564 <DDUP>
 80012bc:	f7ff f8dc 	bl	8000478 <XORR>
 80012c0:	f7ff f880 	bl	80003c4 <QBRAN>
 80012c4:	200012f4 	strdcs	r1, [r0], -r4
 80012c8:	f7ff fcfe 	bl	8000cc8 <KEY>
 80012cc:	f7ff f8b6 	bl	800043c <DUPP>
 80012d0:	f7ff f920 	bl	8000514 <BLANK>
 80012d4:	f7ff f859 	bl	800038a <DOLIT>
 80012d8:	0000007f 	andeq	r0, r0, pc, ror r0
 80012dc:	f7ff fa38 	bl	8000750 <WITHI>
 80012e0:	f7ff f870 	bl	80003c4 <QBRAN>
 80012e4:	200012ee 	andcs	r1, r0, lr, ror #5
 80012e8:	f7ff ffa2 	bl	8001230 <TAP>
 80012ec:	e001      	b.n	80012f2 <ACCP3>

080012ee <ACCP2>:
 80012ee:	f7ff ffad 	bl	800124c <KTAP>

080012f2 <ACCP3>:
 80012f2:	e7e1      	b.n	80012b8 <ACCP1>

080012f4 <ACCP4>:
 80012f4:	f7ff f89e 	bl	8000434 <DROP>
 80012f8:	f7ff f8a8 	bl	800044c <OVER>
 80012fc:	f7ff f8da 	bl	80004b4 <SUBB>
 8001300:	f852 fb04 	ldr.w	pc, [r2], #4

08001304 <QUERY>:
 8001304:	f842 ed04 	str.w	lr, [r2, #-4]!
 8001308:	f7ff fb06 	bl	8000918 <TIB>
 800130c:	f7ff f83d 	bl	800038a <DOLIT>
 8001310:	00000050 	andeq	r0, r0, r0, asr r0
 8001314:	f7ff ffc8 	bl	80012a8 <ACCEP>
 8001318:	f7ff f9d6 	bl	80006c8 <NTIB>
 800131c:	f7ff f866 	bl	80003ec <STORE>
 8001320:	f7ff f888 	bl	8000434 <DROP>
 8001324:	f7ff f831 	bl	800038a <DOLIT>
 8001328:	00000000 	andeq	r0, r0, r0
 800132c:	f7ff f9c6 	bl	80006bc <INN>
 8001330:	f7ff f85c 	bl	80003ec <STORE>
 8001334:	f852 fb04 	ldr.w	pc, [r2], #4

08001338 <ABORT>:
 8001338:	f842 ed04 	str.w	lr, [r2, #-4]!
 800133c:	f7ff fcce 	bl	8000cdc <SPACE>

08001340 <ABORT1>:
 8001340:	f7ff f97a 	bl	8000638 <COUNT>
 8001344:	f7ff fce6 	bl	8000d14 <TYPEE>
 8001348:	f7ff f81f 	bl	800038a <DOLIT>
 800134c:	0000003f 	andeq	r0, r0, pc, lsr r0
 8001350:	f7ff f80e 	bl	8000370 <EMIT>
 8001354:	f7ff fcf2 	bl	8000d3c <CR>
 8001358:	f000 f88a 	bl	8001470 <PRESE>
 800135c:	f000 b892 	b.w	8001484 <QUIT>

08001360 <ABORQ>:
 8001360:	f842 ed04 	str.w	lr, [r2, #-4]!
 8001364:	f7ff fcfa 	bl	8000d5c <DOSTR>
 8001368:	f7ff f86c 	bl	8000444 <SWAP>
 800136c:	f7ff f82a 	bl	80003c4 <QBRAN>
 8001370:	20001376 	andcs	r1, r0, r6, ror r3
 8001374:	e7e4      	b.n	8001340 <ABORT1>
 8001376:	f7ff f85d 	bl	8000434 <DROP>
 800137a:	f852 fb04 	ldr.w	pc, [r2], #4
 800137e:	bf00      	nop

08001380 <INTER>:
 8001380:	f842 ed04 	str.w	lr, [r2, #-4]!
 8001384:	f7ff ff24 	bl	80011d0 <NAMEQ>
 8001388:	f7ff f8da 	bl	8000540 <QDUP>
 800138c:	f7ff f81a 	bl	80003c4 <QBRAN>
 8001390:	200013c0 	andcs	r1, r0, r0, asr #7
 8001394:	f7ff f830 	bl	80003f8 <AT>
 8001398:	f7fe fff7 	bl	800038a <DOLIT>
 800139c:	00000040 	andeq	r0, r0, r0, asr #32
 80013a0:	f7ff f85e 	bl	8000460 <ANDD>
 80013a4:	f7ff ffdc 	bl	8001360 <ABORQ>
 80013a8:	6f63200d 	svcvs	0x0063200d
 80013ac:	6c69706d 	stclvs	0, cr7, [r9], #-436	; 0xfffffe4c
 80013b0:	6e6f2065 	cdpvs	0, 6, cr2, cr15, cr5, {3}
 80013b4:	bf00796c 	svclt	0x0000796c
 80013b8:	f7fe fff0 	bl	800039c <EXECU>
 80013bc:	f852 fb04 	ldr.w	pc, [r2], #4

080013c0 <INTE1>:
 80013c0:	f7ff fbec 	bl	8000b9c <NUMBQ>
 80013c4:	f7fe fffe 	bl	80003c4 <QBRAN>
 80013c8:	200013d0 	ldrdcs	r1, [r0], -r0
 80013cc:	f852 fb04 	ldr.w	pc, [r2], #4

080013d0 <INTE2>:
 80013d0:	f7ff bfb2 	b.w	8001338 <ABORT>

080013d4 <LBRAC>:
 80013d4:	f842 ed04 	str.w	lr, [r2, #-4]!
 80013d8:	f7fe ffd7 	bl	800038a <DOLIT>
 80013dc:	20001380 	andcs	r1, r0, r0, lsl #7
 80013e0:	f7ff f978 	bl	80006d4 <TEVAL>
 80013e4:	f7ff f802 	bl	80003ec <STORE>
 80013e8:	f852 fb04 	ldr.w	pc, [r2], #4

080013ec <DOTOK>:
 80013ec:	f842 ed04 	str.w	lr, [r2, #-4]!
 80013f0:	f7fe ffcb 	bl	800038a <DOLIT>
 80013f4:	20001380 	andcs	r1, r0, r0, lsl #7
 80013f8:	f7ff f96c 	bl	80006d4 <TEVAL>
 80013fc:	f7fe fffc 	bl	80003f8 <AT>
 8001400:	f7ff f8d6 	bl	80005b0 <EQUAL>
 8001404:	f7fe ffde 	bl	80003c4 <QBRAN>
 8001408:	20001414 	andcs	r1, r0, r4, lsl r4
 800140c:	f7ff fcce 	bl	8000dac <DOTQP>
 8001410:	6b6f2003 	blvs	9bc9424 <OPTKEY1+0x1a369e9>

08001414 <DOTO1>:
 8001414:	f7ff fc92 	bl	8000d3c <CR>
 8001418:	f852 fb04 	ldr.w	pc, [r2], #4

0800141c <QSTAC>:
 800141c:	f842 ed04 	str.w	lr, [r2, #-4]!
 8001420:	f7ff fa50 	bl	80008c4 <DEPTH>
 8001424:	f7ff f816 	bl	8000454 <ZLESS>
 8001428:	f7ff ff9a 	bl	8001360 <ABORQ>
 800142c:	6e75200a 	cdpvs	0, 7, cr2, cr5, cr10, {0}
 8001430:	66726564 	ldrbtvs	r6, [r2], -r4, ror #10
 8001434:	00776f6c 	rsbseq	r6, r7, ip, ror #30
 8001438:	f852 fb04 	ldr.w	pc, [r2], #4

0800143c <EVAL>:
 800143c:	f842 ed04 	str.w	lr, [r2, #-4]!

08001440 <EVAL1>:
 8001440:	f7ff fe16 	bl	8001070 <TOKEN>
 8001444:	f7fe fffa 	bl	800043c <DUPP>
 8001448:	f7fe ffde 	bl	8000408 <CAT>
 800144c:	f7fe ffba 	bl	80003c4 <QBRAN>
 8001450:	20001464 	andcs	r1, r0, r4, ror #8
 8001454:	f7ff f93e 	bl	80006d4 <TEVAL>
 8001458:	f7ff fa62 	bl	8000920 <ATEXE>
 800145c:	f7ff ffde 	bl	800141c <QSTAC>
 8001460:	f7ff bfee 	b.w	8001440 <EVAL1>

08001464 <EVAL2>:
 8001464:	f7fe ffe6 	bl	8000434 <DROP>
 8001468:	f7ff ffc0 	bl	80013ec <DOTOK>
 800146c:	f852 fb04 	ldr.w	pc, [r2], #4

08001470 <PRESE>:
 8001470:	f842 ed04 	str.w	lr, [r2, #-4]!
 8001474:	f44f 417f 	mov.w	r1, #65280	; 0xff00
 8001478:	f2c2 0101 	movt	r1, #8193	; 0x2001
 800147c:	ea85 0505 	eor.w	r5, r5, r5
 8001480:	f852 fb04 	ldr.w	pc, [r2], #4

08001484 <QUIT>:
 8001484:	f842 ed04 	str.w	lr, [r2, #-4]!
 8001488:	f64f 7280 	movw	r2, #65408	; 0xff80
 800148c:	f2c2 0201 	movt	r2, #8193	; 0x2001

08001490 <QUIT1>:
 8001490:	f7ff ffa0 	bl	80013d4 <LBRAC>

08001494 <QUIT2>:
 8001494:	f7ff ff36 	bl	8001304 <QUERY>
 8001498:	f7ff ffd0 	bl	800143c <EVAL>
 800149c:	f7fe ff9e 	bl	80003dc <BRAN>
 80014a0:	20001494 	mulcs	r0, r4, r4

080014a4 <UNLOCK>:
 80014a4:	f842 ed04 	str.w	lr, [r2, #-4]!
 80014a8:	f7fe ff8c 	bl	80003c4 <QBRAN>
 80014ac:	200014cc 	andcs	r1, r0, ip, asr #9
 80014b0:	48d4      	ldr	r0, [pc, #848]	; (8001804 <flash_regs>)
 80014b2:	f04f 0434 	mov.w	r4, #52	; 0x34
 80014b6:	60c4      	str	r4, [r0, #12]
 80014b8:	6904      	ldr	r4, [r0, #16]
 80014ba:	f014 0f80 	tst.w	r4, #128	; 0x80
 80014be:	d003      	beq.n	80014c8 <UNLOCK+0x24>
 80014c0:	4cd1      	ldr	r4, [pc, #836]	; (8001808 <flash_regs+0x4>)
 80014c2:	6044      	str	r4, [r0, #4]
 80014c4:	4cd1      	ldr	r4, [pc, #836]	; (800180c <flash_regs+0x8>)
 80014c6:	6044      	str	r4, [r0, #4]
 80014c8:	f852 fb04 	ldr.w	pc, [r2], #4

080014cc <LOCK>:
 80014cc:	48cd      	ldr	r0, [pc, #820]	; (8001804 <flash_regs>)
 80014ce:	f04f 0480 	mov.w	r4, #128	; 0x80
 80014d2:	6104      	str	r4, [r0, #16]
 80014d4:	f852 fb04 	ldr.w	pc, [r2], #4

080014d8 <WAIT_BSY>:
 80014d8:	48ca      	ldr	r0, [pc, #808]	; (8001804 <flash_regs>)

080014da <WAIT1>:
 80014da:	68c4      	ldr	r4, [r0, #12]
 80014dc:	f014 0401 	ands.w	r4, r4, #1
 80014e0:	d1fb      	bne.n	80014da <WAIT1>
 80014e2:	4770      	bx	lr

080014e4 <EPAGE>:
 80014e4:	f842 ed04 	str.w	lr, [r2, #-4]!
 80014e8:	f7ff fff6 	bl	80014d8 <WAIT_BSY>
 80014ec:	f7fe ff4d 	bl	800038a <DOLIT>
 80014f0:	00000001 	andeq	r0, r0, r1
 80014f4:	f7ff ffd6 	bl	80014a4 <UNLOCK>
 80014f8:	48c2      	ldr	r0, [pc, #776]	; (8001804 <flash_regs>)
 80014fa:	f04f 0402 	mov.w	r4, #2
 80014fe:	6104      	str	r4, [r0, #16]
 8001500:	6904      	ldr	r4, [r0, #16]
 8001502:	f044 0440 	orr.w	r4, r4, #64	; 0x40
 8001506:	6104      	str	r4, [r0, #16]
 8001508:	f7ff ffe6 	bl	80014d8 <WAIT_BSY>
 800150c:	f7fe ff3d 	bl	800038a <DOLIT>
 8001510:	00000000 	andeq	r0, r0, r0
 8001514:	f7ff ffc6 	bl	80014a4 <UNLOCK>
 8001518:	68c5      	ldr	r5, [r0, #12]
 800151a:	f005 0514 	and.w	r5, r5, #20
 800151e:	f7ff ff1f 	bl	8001360 <ABORQ>
 8001522:	7265200d 	rsbvc	r2, r5, #13
 8001526:	20657361 	rsbcs	r7, r5, r1, ror #6
 800152a:	6f727265 	svcvs	0x00727265
 800152e:	f8522172 			; <UNDEFINED> instruction: 0xf8522172
 8001532:	fb04  			; <UNDEFINED> instruction: 0xfb04f842

08001534 <HWORD_WRITE>:
 8001534:	f842 ed04 	str.w	lr, [r2, #-4]!
 8001538:	6904      	ldr	r4, [r0, #16]
 800153a:	f04f 0401 	mov.w	r4, #1
 800153e:	6104      	str	r4, [r0, #16]
 8001540:	462e      	mov	r6, r5
 8001542:	f851 5b04 	ldr.w	r5, [r1], #4
 8001546:	8035      	strh	r5, [r6, #0]
 8001548:	f7ff ffc6 	bl	80014d8 <WAIT_BSY>
 800154c:	68c5      	ldr	r5, [r0, #12]
 800154e:	f005 0514 	and.w	r5, r5, #20
 8001552:	f7fe ff37 	bl	80003c4 <QBRAN>
 8001556:	2000156c 	andcs	r1, r0, ip, ror #10
 800155a:	f7ff ff01 	bl	8001360 <ABORQ>
 800155e:	7277200d 	rsbsvc	r2, r7, #13
 8001562:	20657469 	rsbcs	r7, r5, r9, ror #8
 8001566:	6f727265 	svcvs	0x00727265
 800156a:	f8522172 			; <UNDEFINED> instruction: 0xf8522172
 800156e:	fb04  			; <UNDEFINED> instruction: 0xfb04f842

08001570 <ISTOR>:
 8001570:	f842 ed04 	str.w	lr, [r2, #-4]!
 8001574:	f7ff ffb0 	bl	80014d8 <WAIT_BSY>
 8001578:	f7fe ff07 	bl	800038a <DOLIT>
 800157c:	00000001 	andeq	r0, r0, r1
 8001580:	f7ff ff90 	bl	80014a4 <UNLOCK>
 8001584:	f7fe ffee 	bl	8000564 <DDUP>
 8001588:	f7fe ff4a 	bl	8000420 <TOR>
 800158c:	f7fe ff48 	bl	8000420 <TOR>
 8001590:	f7ff ffd0 	bl	8001534 <HWORD_WRITE>
 8001594:	f7fe ff3a 	bl	800040c <RFROM>
 8001598:	ea4f 4535 	mov.w	r5, r5, ror #16
 800159c:	f7fe ff36 	bl	800040c <RFROM>
 80015a0:	f105 0502 	add.w	r5, r5, #2
 80015a4:	f7ff ffc6 	bl	8001534 <HWORD_WRITE>
 80015a8:	f7fe feef 	bl	800038a <DOLIT>
 80015ac:	00000000 	andeq	r0, r0, r0
 80015b0:	f7ff ff78 	bl	80014a4 <UNLOCK>
 80015b4:	f852 fb04 	ldr.w	pc, [r2], #4

080015b8 <IMG_SIZE>:
 80015b8:	f842 ed04 	str.w	lr, [r2, #-4]!
 80015bc:	f7fe fee5 	bl	800038a <DOLIT>
 80015c0:	00000038 	andeq	r0, r0, r8, lsr r0
 80015c4:	f7ff f8b0 	bl	8000728 <USER_END>
 80015c8:	f7ff f8a8 	bl	800071c <USER_BEGIN>
 80015cc:	f7fe ff72 	bl	80004b4 <SUBB>
 80015d0:	f7fe ff6c 	bl	80004ac <PLUS>
 80015d4:	f7fe fed9 	bl	800038a <DOLIT>
 80015d8:	00000400 	andeq	r0, r0, r0, lsl #8
 80015dc:	f7ff f916 	bl	800080c <SLMOD>
 80015e0:	f7fe ff30 	bl	8000444 <SWAP>
 80015e4:	f7fe feee 	bl	80003c4 <QBRAN>
 80015e8:	200015f0 	strdcs	r1, [r0], -r0
 80015ec:	f7fe ff7a 	bl	80004e4 <ONEP>
 80015f0:	f852 fb04 	ldr.w	pc, [r2], #4

080015f4 <IMGQ>:
 80015f4:	f842 ed04 	str.w	lr, [r2, #-4]!
 80015f8:	f7ff f89e 	bl	8000738 <IMG_ADR>
 80015fc:	f7fe fefc 	bl	80003f8 <AT>
 8001600:	f7ff f8a0 	bl	8000744 <IMG_SIGN>
 8001604:	f7fe fef8 	bl	80003f8 <AT>
 8001608:	f7fe ff36 	bl	8000478 <XORR>
 800160c:	f7fe ffc8 	bl	80005a0 <ZEQUAL>
 8001610:	f852 fb04 	ldr.w	pc, [r2], #4

08001614 <LOAD_IMG>:
 8001614:	f842 ed04 	str.w	lr, [r2, #-4]!
 8001618:	f7ff ffec 	bl	80015f4 <IMGQ>
 800161c:	f7fe fed2 	bl	80003c4 <QBRAN>
 8001620:	20001668 	andcs	r1, r0, r8, ror #12
 8001624:	f7ff f888 	bl	8000738 <IMG_ADR>
 8001628:	f7fe ff08 	bl	800043c <DUPP>
 800162c:	f7fe fef8 	bl	8000420 <TOR>
 8001630:	f7ff f888 	bl	8000744 <IMG_SIGN>
 8001634:	f841 5d04 	str.w	r5, [r1, #-4]!
 8001638:	f04f 0538 	mov.w	r5, #56	; 0x38
 800163c:	f7fe fefe 	bl	800043c <DUPP>
 8001640:	f7fe feee 	bl	8000420 <TOR>
 8001644:	f7ff f988 	bl	8000958 <MOVE>
 8001648:	f7fe fee0 	bl	800040c <RFROM>
 800164c:	f7fe fede 	bl	800040c <RFROM>
 8001650:	f7fe ff2c 	bl	80004ac <PLUS>
 8001654:	f7ff f862 	bl	800071c <USER_BEGIN>
 8001658:	f7ff f94e 	bl	80008f8 <HERE>
 800165c:	f7fe fef6 	bl	800044c <OVER>
 8001660:	f7fe ff28 	bl	80004b4 <SUBB>
 8001664:	f7ff f978 	bl	8000958 <MOVE>
 8001668:	f852 fb04 	ldr.w	pc, [r2], #4

0800166c <ERASE_MPG>:
 800166c:	f842 ed04 	str.w	lr, [r2, #-4]!
 8001670:	f7fe fed6 	bl	8000420 <TOR>
 8001674:	f000 f840 	bl	80016f8 <PG_TO_ADR>
 8001678:	f7fe feb0 	bl	80003dc <BRAN>
 800167c:	20001694 	mulcs	r0, r4, r6
 8001680:	f7fe fedc 	bl	800043c <DUPP>
 8001684:	f7fe fecc 	bl	8000420 <TOR>
 8001688:	f7ff ff2c 	bl	80014e4 <EPAGE>
 800168c:	f7fe febe 	bl	800040c <RFROM>
 8001690:	f505 4580 	add.w	r5, r5, #16384	; 0x4000
 8001694:	f7fe fe87 	bl	80003a6 <DONXT>
 8001698:	20001680 	andcs	r1, r0, r0, lsl #13
 800169c:	f851 5b04 	ldr.w	r5, [r1], #4
 80016a0:	f852 fb04 	ldr.w	pc, [r2], #4

080016a4 <FLSH_WR>:
 80016a4:	f842 ed04 	str.w	lr, [r2, #-4]!
 80016a8:	f7fe feba 	bl	8000420 <TOR>
 80016ac:	f7fe fe96 	bl	80003dc <BRAN>
 80016b0:	200016d4 	ldrdcs	r1, [r0], -r4
 80016b4:	f7fe feb4 	bl	8000420 <TOR>
 80016b8:	f7fe fec0 	bl	800043c <DUPP>
 80016bc:	f7fe fe9c 	bl	80003f8 <AT>
 80016c0:	f7fe feaa 	bl	8000418 <RAT>
 80016c4:	f7ff ff54 	bl	8001570 <ISTOR>
 80016c8:	f7fe ff1c 	bl	8000504 <CELLP>
 80016cc:	f7fe fe9e 	bl	800040c <RFROM>
 80016d0:	f7fe ff18 	bl	8000504 <CELLP>
 80016d4:	f7fe fe67 	bl	80003a6 <DONXT>
 80016d8:	200016b4 			; <UNDEFINED> instruction: 0x200016b4
 80016dc:	f7fe fea0 	bl	8000420 <TOR>
 80016e0:	f7fe fea8 	bl	8000434 <DROP>
 80016e4:	f7fe fe92 	bl	800040c <RFROM>
 80016e8:	f852 fb04 	ldr.w	pc, [r2], #4

080016ec <ADR_TO_PG>:
 80016ec:	ea4f 2595 	mov.w	r5, r5, lsr #10
 80016f0:	f005 057f 	and.w	r5, r5, #127	; 0x7f
 80016f4:	4770      	bx	lr
 80016f6:	bf00      	nop

080016f8 <PG_TO_ADR>:
 80016f8:	f2c0 0502 	movt	r5, #2
 80016fc:	ea4f 2585 	mov.w	r5, r5, lsl #10
 8001700:	4770      	bx	lr
 8001702:	bf00      	nop

08001704 <ERASE_IMG>:
 8001704:	f842 ed04 	str.w	lr, [r2, #-4]!
 8001708:	f7ff f816 	bl	8000738 <IMG_ADR>
 800170c:	f7ff ff54 	bl	80015b8 <IMG_SIZE>
 8001710:	f7fe fe86 	bl	8000420 <TOR>
 8001714:	f7fe fe62 	bl	80003dc <BRAN>
 8001718:	20001728 	andcs	r1, r0, r8, lsr #14
 800171c:	f7fe fe8e 	bl	800043c <DUPP>
 8001720:	f7ff fee0 	bl	80014e4 <EPAGE>
 8001724:	f505 4580 	add.w	r5, r5, #16384	; 0x4000
 8001728:	f7fe fe3d 	bl	80003a6 <DONXT>
 800172c:	2000171c 	andcs	r1, r0, ip, lsl r7
 8001730:	f7fe fe80 	bl	8000434 <DROP>
 8001734:	f852 fb04 	ldr.w	pc, [r2], #4

08001738 <SAVE_IMG>:
 8001738:	f842 ed04 	str.w	lr, [r2, #-4]!
 800173c:	f7ff f8dc 	bl	80008f8 <HERE>
 8001740:	f7fe ffec 	bl	800071c <USER_BEGIN>
 8001744:	f7fe ff34 	bl	80005b0 <EQUAL>
 8001748:	f7fe fe3c 	bl	80003c4 <QBRAN>
 800174c:	20001754 	andcs	r1, r0, r4, asr r7
 8001750:	f852 fb04 	ldr.w	pc, [r2], #4
 8001754:	f7ff ff4e 	bl	80015f4 <IMGQ>
 8001758:	f7fe fe34 	bl	80003c4 <QBRAN>
 800175c:	20001764 	andcs	r1, r0, r4, ror #14
 8001760:	f7ff ffd0 	bl	8001704 <ERASE_IMG>
 8001764:	f7fe ffee 	bl	8000744 <IMG_SIGN>
 8001768:	f7fe ffe6 	bl	8000738 <IMG_ADR>
 800176c:	f841 5d04 	str.w	r5, [r1, #-4]!
 8001770:	f04f 0538 	mov.w	r5, #56	; 0x38
 8001774:	f7fe fed8 	bl	8000528 <CELLSL>
 8001778:	f7ff ff94 	bl	80016a4 <FLSH_WR>
 800177c:	f7fe ffce 	bl	800071c <USER_BEGIN>
 8001780:	f7fe fe60 	bl	8000444 <SWAP>
 8001784:	f7ff f8b8 	bl	80008f8 <HERE>
 8001788:	f7fe ffc8 	bl	800071c <USER_BEGIN>
 800178c:	f7fe fe92 	bl	80004b4 <SUBB>
 8001790:	f7fe feca 	bl	8000528 <CELLSL>
 8001794:	f7ff ff86 	bl	80016a4 <FLSH_WR>
 8001798:	f852 fb04 	ldr.w	pc, [r2], #4

0800179c <TURNKEY>:
 800179c:	f842 ed04 	str.w	lr, [r2, #-4]!
 80017a0:	f000 f836 	bl	8001810 <TICK>
 80017a4:	f7fe ff74 	bl	8000690 <TBOOT>
 80017a8:	f7fe fe20 	bl	80003ec <STORE>
 80017ac:	f7ff ffc4 	bl	8001738 <SAVE_IMG>
 80017b0:	f852 fb04 	ldr.w	pc, [r2], #4

080017b4 <FORGET>:
 80017b4:	f842 ed04 	str.w	lr, [r2, #-4]!
 80017b8:	f7ff fc5a 	bl	8001070 <TOKEN>
 80017bc:	f7fe fe3e 	bl	800043c <DUPP>
 80017c0:	f7fe fe00 	bl	80003c4 <QBRAN>
 80017c4:	f7fe fde1 	bl	800038a <DOLIT>
 80017c8:	20001800 	andcs	r1, r0, r0, lsl #16
 80017cc:	f7ff fd00 	bl	80011d0 <NAMEQ>
 80017d0:	f7fe feb6 	bl	8000540 <QDUP>
 80017d4:	f7fe fdf6 	bl	80003c4 <QBRAN>
 80017d8:	200017fc 	strdcs	r1, [r0], -ip
 80017dc:	f7fe fe96 	bl	800050c <CELLM>
 80017e0:	f7fe fe2c 	bl	800043c <DUPP>
 80017e4:	f7fe ff88 	bl	80006f8 <CPP>
 80017e8:	f7fe fe00 	bl	80003ec <STORE>
 80017ec:	f7fe fe04 	bl	80003f8 <AT>
 80017f0:	f7fe ff8e 	bl	8000710 <LAST>
 80017f4:	f7fe fdfa 	bl	80003ec <STORE>
 80017f8:	f000 f9a0 	bl	8001b3c <OVERT>
 80017fc:	f7fe fe1a 	bl	8000434 <DROP>
 8001800:	f852 fb04 	ldr.w	pc, [r2], #4

08001804 <flash_regs>:
 8001804:	40023c00 	andmi	r3, r2, r0, lsl #24
 8001808:	45670123 	strbmi	r0, [r7, #-291]!	; 0xfffffedd
 800180c:	cdef89ab 			; <UNDEFINED> instruction: 0xcdef89ab

08001810 <TICK>:
 8001810:	f842 ed04 	str.w	lr, [r2, #-4]!
 8001814:	f7ff fc2c 	bl	8001070 <TOKEN>
 8001818:	f7ff fcda 	bl	80011d0 <NAMEQ>
 800181c:	f7fe fdd2 	bl	80003c4 <QBRAN>
 8001820:	20001828 	andcs	r1, r0, r8, lsr #16
 8001824:	f852 fb04 	ldr.w	pc, [r2], #4

08001828 <TICK1>:
 8001828:	f7ff bd86 	b.w	8001338 <ABORT>

0800182c <ALLOT>:
 800182c:	f842 ed04 	str.w	lr, [r2, #-4]!
 8001830:	f7fe ff62 	bl	80006f8 <CPP>
 8001834:	f7fe fee8 	bl	8000608 <PSTOR>
 8001838:	f852 fb04 	ldr.w	pc, [r2], #4

0800183c <COMMA>:
 800183c:	f842 ed04 	str.w	lr, [r2, #-4]!
 8001840:	f7ff f85a 	bl	80008f8 <HERE>
 8001844:	f7fe fdfa 	bl	800043c <DUPP>
 8001848:	f7fe fe5c 	bl	8000504 <CELLP>
 800184c:	f7fe ff54 	bl	80006f8 <CPP>
 8001850:	f7fe fdcc 	bl	80003ec <STORE>
 8001854:	f7fe fdca 	bl	80003ec <STORE>
 8001858:	f852 fb04 	ldr.w	pc, [r2], #4

0800185c <BCOMP>:
 800185c:	f842 ed04 	str.w	lr, [r2, #-4]!
 8001860:	f7ff ffd6 	bl	8001810 <TICK>
 8001864:	f7ff ffea 	bl	800183c <COMMA>
 8001868:	f852 fb04 	ldr.w	pc, [r2], #4

0800186c <COMPI>:
 800186c:	f842 ed04 	str.w	lr, [r2, #-4]!
 8001870:	f7fe fdcc 	bl	800040c <RFROM>
 8001874:	f025 0501 	bic.w	r5, r5, #1
 8001878:	f7fe fde0 	bl	800043c <DUPP>
 800187c:	f7fe fdbc 	bl	80003f8 <AT>
 8001880:	f000 f9a3 	bl	8001bca <CALLC>
 8001884:	f7fe fe3e 	bl	8000504 <CELLP>
 8001888:	f045 0501 	orr.w	r5, r5, #1
 800188c:	f7fe fdc8 	bl	8000420 <TOR>
 8001890:	f852 fb04 	ldr.w	pc, [r2], #4

08001894 <LITER>:
 8001894:	20003058 	andcs	r3, r0, r8, asr r0
 8001898:	f842 ed04 	str.w	lr, [r2, #-4]!
 800189c:	f7ff ffe6 	bl	800186c <COMPI>
 80018a0:	2000038a 	andcs	r0, r0, sl, lsl #7
 80018a4:	f7ff ffca 	bl	800183c <COMMA>
 80018a8:	f852 fb04 	ldr.w	pc, [r2], #4

080018ac <STRCQ>:
 80018ac:	f842 ed04 	str.w	lr, [r2, #-4]!
 80018b0:	f7fe fd6b 	bl	800038a <DOLIT>
 80018b4:	fffffffc 			; <UNDEFINED> instruction: 0xfffffffc
 80018b8:	f7fe ff1e 	bl	80006f8 <CPP>
 80018bc:	f7fe fea4 	bl	8000608 <PSTOR>
 80018c0:	f7fe fd63 	bl	800038a <DOLIT>
 80018c4:	00000022 	andeq	r0, r0, r2, lsr #32
 80018c8:	f7ff fbc6 	bl	8001058 <WORDD>
 80018cc:	f7fe feb4 	bl	8000638 <COUNT>
 80018d0:	f7fe fdec 	bl	80004ac <PLUS>
 80018d4:	f7fe ffce 	bl	8000874 <ALGND>
 80018d8:	f7fe ff0e 	bl	80006f8 <CPP>
 80018dc:	f7fe fd86 	bl	80003ec <STORE>
 80018e0:	f852 fb04 	ldr.w	pc, [r2], #4

080018e4 <FOR>:
 80018e4:	f842 ed04 	str.w	lr, [r2, #-4]!
 80018e8:	f7ff ffc0 	bl	800186c <COMPI>
 80018ec:	20000420 	andcs	r0, r0, r0, lsr #8
 80018f0:	f7ff f802 	bl	80008f8 <HERE>
 80018f4:	f852 fb04 	ldr.w	pc, [r2], #4

080018f8 <BEGIN>:
 80018f8:	f842 ed04 	str.w	lr, [r2, #-4]!
 80018fc:	f7fe fffc 	bl	80008f8 <HERE>
 8001900:	f852 fb04 	ldr.w	pc, [r2], #4

08001904 <NEXT>:
 8001904:	f842 ed04 	str.w	lr, [r2, #-4]!
 8001908:	f7ff ffb0 	bl	800186c <COMPI>
 800190c:	200003a6 	andcs	r0, r0, r6, lsr #7
 8001910:	f7ff ff94 	bl	800183c <COMMA>
 8001914:	f852 fb04 	ldr.w	pc, [r2], #4

08001918 <UNTIL>:
 8001918:	f842 ed04 	str.w	lr, [r2, #-4]!
 800191c:	f7ff ffa6 	bl	800186c <COMPI>
 8001920:	200003c4 	andcs	r0, r0, r4, asr #7
 8001924:	f7ff ff8a 	bl	800183c <COMMA>
 8001928:	f852 fb04 	ldr.w	pc, [r2], #4

0800192c <AGAIN>:
 800192c:	f842 ed04 	str.w	lr, [r2, #-4]!
 8001930:	f7ff ff9c 	bl	800186c <COMPI>
 8001934:	200003dc 	ldrdcs	r0, [r0], -ip
 8001938:	f7ff ff80 	bl	800183c <COMMA>
 800193c:	f852 fb04 	ldr.w	pc, [r2], #4

08001940 <IFF>:
 8001940:	f842 ed04 	str.w	lr, [r2, #-4]!
 8001944:	f7ff ff92 	bl	800186c <COMPI>
 8001948:	200003c4 	andcs	r0, r0, r4, asr #7
 800194c:	f7fe ffd4 	bl	80008f8 <HERE>
 8001950:	f7fe fd1b 	bl	800038a <DOLIT>
 8001954:	00000004 	andeq	r0, r0, r4
 8001958:	f7fe fece 	bl	80006f8 <CPP>
 800195c:	f7fe fe54 	bl	8000608 <PSTOR>
 8001960:	f852 fb04 	ldr.w	pc, [r2], #4

08001964 <AHEAD>:
 8001964:	f842 ed04 	str.w	lr, [r2, #-4]!
 8001968:	f7ff ff80 	bl	800186c <COMPI>
 800196c:	200003dc 	ldrdcs	r0, [r0], -ip
 8001970:	f7fe ffc2 	bl	80008f8 <HERE>
 8001974:	f7fe fd09 	bl	800038a <DOLIT>
 8001978:	00000004 	andeq	r0, r0, r4
 800197c:	f7fe febc 	bl	80006f8 <CPP>
 8001980:	f7fe fe42 	bl	8000608 <PSTOR>
 8001984:	f852 fb04 	ldr.w	pc, [r2], #4

08001988 <REPEA>:
 8001988:	f842 ed04 	str.w	lr, [r2, #-4]!
 800198c:	f7ff ffce 	bl	800192c <AGAIN>
 8001990:	f7fe ffb2 	bl	80008f8 <HERE>
 8001994:	f7fe fd56 	bl	8000444 <SWAP>
 8001998:	f7fe fd28 	bl	80003ec <STORE>
 800199c:	f852 fb04 	ldr.w	pc, [r2], #4

080019a0 <THENN>:
 80019a0:	f842 ed04 	str.w	lr, [r2, #-4]!
 80019a4:	f7fe ffa8 	bl	80008f8 <HERE>
 80019a8:	f7fe fd4c 	bl	8000444 <SWAP>
 80019ac:	f7fe fd1e 	bl	80003ec <STORE>
 80019b0:	f852 fb04 	ldr.w	pc, [r2], #4

080019b4 <AFT>:
 80019b4:	f842 ed04 	str.w	lr, [r2, #-4]!
 80019b8:	f7fe fd3c 	bl	8000434 <DROP>
 80019bc:	f7ff ffd2 	bl	8001964 <AHEAD>
 80019c0:	f7ff ff9a 	bl	80018f8 <BEGIN>
 80019c4:	f7fe fd3e 	bl	8000444 <SWAP>
 80019c8:	f852 fb04 	ldr.w	pc, [r2], #4

080019cc <ELSEE>:
 80019cc:	f842 ed04 	str.w	lr, [r2, #-4]!
 80019d0:	f7ff ffc8 	bl	8001964 <AHEAD>
 80019d4:	f7fe fd36 	bl	8000444 <SWAP>
 80019d8:	f7ff ffe2 	bl	80019a0 <THENN>
 80019dc:	f852 fb04 	ldr.w	pc, [r2], #4

080019e0 <WHILE>:
 80019e0:	f842 ed04 	str.w	lr, [r2, #-4]!
 80019e4:	f7ff ffac 	bl	8001940 <IFF>
 80019e8:	f7fe fd2c 	bl	8000444 <SWAP>
 80019ec:	f852 fb04 	ldr.w	pc, [r2], #4

080019f0 <ABRTQ>:
 80019f0:	f842 ed04 	str.w	lr, [r2, #-4]!
 80019f4:	f7ff ff3a 	bl	800186c <COMPI>
 80019f8:	20001360 	andcs	r1, r0, r0, ror #6
 80019fc:	f7ff ff56 	bl	80018ac <STRCQ>
 8001a00:	f852 fb04 	ldr.w	pc, [r2], #4

08001a04 <STRQ>:
 8001a04:	f842 ed04 	str.w	lr, [r2, #-4]!
 8001a08:	f7ff ff30 	bl	800186c <COMPI>
 8001a0c:	20000d90 	mulcs	r0, r0, sp
 8001a10:	f7ff ff4c 	bl	80018ac <STRCQ>
 8001a14:	f852 fb04 	ldr.w	pc, [r2], #4

08001a18 <DOTQ>:
 8001a18:	f842 ed04 	str.w	lr, [r2, #-4]!
 8001a1c:	f7ff ff26 	bl	800186c <COMPI>
 8001a20:	20000dac 	andcs	r0, r0, ip, lsr #27
 8001a24:	f7ff ff42 	bl	80018ac <STRCQ>
 8001a28:	f852 fb04 	ldr.w	pc, [r2], #4

08001a2c <UNIQU>:
 8001a2c:	f842 ed04 	str.w	lr, [r2, #-4]!
 8001a30:	f7fe fd04 	bl	800043c <DUPP>
 8001a34:	f7ff fbcc 	bl	80011d0 <NAMEQ>
 8001a38:	f7fe fcc4 	bl	80003c4 <QBRAN>
 8001a3c:	20001a58 	andcs	r1, r0, r8, asr sl
 8001a40:	f7ff f9b4 	bl	8000dac <DOTQP>
 8001a44:	65722007 	ldrbvs	r2, [r2, #-7]!
 8001a48:	20666544 	rsbcs	r6, r6, r4, asr #10
 8001a4c:	f7fe fcfe 	bl	800044c <OVER>
 8001a50:	f7fe fdf2 	bl	8000638 <COUNT>
 8001a54:	f7ff f95e 	bl	8000d14 <TYPEE>

08001a58 <UNIQ1>:
 8001a58:	f7fe fcec 	bl	8000434 <DROP>
 8001a5c:	f852 fb04 	ldr.w	pc, [r2], #4

08001a60 <SNAME>:
 8001a60:	f842 ed04 	str.w	lr, [r2, #-4]!
 8001a64:	f7fe fcea 	bl	800043c <DUPP>
 8001a68:	f7fe fcce 	bl	8000408 <CAT>
 8001a6c:	f7fe fcaa 	bl	80003c4 <QBRAN>
 8001a70:	20001aa8 	andcs	r1, r0, r8, lsr #21
 8001a74:	f7ff ffda 	bl	8001a2c <UNIQU>
 8001a78:	f7fe fe4a 	bl	8000710 <LAST>
 8001a7c:	f7fe fcbc 	bl	80003f8 <AT>
 8001a80:	f7ff fedc 	bl	800183c <COMMA>
 8001a84:	f7fe fcda 	bl	800043c <DUPP>
 8001a88:	f7fe fe42 	bl	8000710 <LAST>
 8001a8c:	f7fe fcae 	bl	80003ec <STORE>
 8001a90:	f7fe fdd2 	bl	8000638 <COUNT>
 8001a94:	f7fe fd0a 	bl	80004ac <PLUS>
 8001a98:	f7fe feec 	bl	8000874 <ALGND>
 8001a9c:	f7fe fe2c 	bl	80006f8 <CPP>
 8001aa0:	f7fe fca4 	bl	80003ec <STORE>
 8001aa4:	f852 fb04 	ldr.w	pc, [r2], #4

08001aa8 <SNAM1>:
 8001aa8:	f7ff f972 	bl	8000d90 <STRQP>
 8001aac:	616e2007 	cmnvs	lr, r7
 8001ab0:	203f656d 	eorscs	r6, pc, sp, ror #10
 8001ab4:	f7ff bc40 	b.w	8001338 <ABORT>

08001ab8 <SCOMP>:
 8001ab8:	f842 ed04 	str.w	lr, [r2, #-4]!
 8001abc:	f7ff fb88 	bl	80011d0 <NAMEQ>
 8001ac0:	f7fe fd3e 	bl	8000540 <QDUP>
 8001ac4:	f7fe fc7e 	bl	80003c4 <QBRAN>
 8001ac8:	20001af4 	strdcs	r1, [r0], -r4
 8001acc:	f7fe fc94 	bl	80003f8 <AT>
 8001ad0:	f7fe fc5b 	bl	800038a <DOLIT>
 8001ad4:	00000080 	andeq	r0, r0, r0, lsl #1
 8001ad8:	f7fe fcc2 	bl	8000460 <ANDD>
 8001adc:	f7fe fc72 	bl	80003c4 <QBRAN>
 8001ae0:	20001aec 	andcs	r1, r0, ip, ror #21
 8001ae4:	f7fe fc5a 	bl	800039c <EXECU>
 8001ae8:	f852 fb04 	ldr.w	pc, [r2], #4

08001aec <SCOM1>:
 8001aec:	f000 f86d 	bl	8001bca <CALLC>
 8001af0:	f852 fb04 	ldr.w	pc, [r2], #4

08001af4 <SCOM2>:
 8001af4:	f7ff f852 	bl	8000b9c <NUMBQ>
 8001af8:	f7fe fc64 	bl	80003c4 <QBRAN>
 8001afc:	20001b08 	andcs	r1, r0, r8, lsl #22
 8001b00:	f7ff fec8 	bl	8001894 <LITER>
 8001b04:	f852 fb04 	ldr.w	pc, [r2], #4

08001b08 <SCOM3>:
 8001b08:	f000 f802 	bl	8001b10 <COLON_ABORT>
 8001b0c:	f7ff bc14 	b.w	8001338 <ABORT>

08001b10 <COLON_ABORT>:
 8001b10:	f842 ed04 	str.w	lr, [r2, #-4]!
 8001b14:	f7fe fdfc 	bl	8000710 <LAST>
 8001b18:	f7fe fc6e 	bl	80003f8 <AT>
 8001b1c:	f7fe fcf6 	bl	800050c <CELLM>
 8001b20:	f7fe fc8c 	bl	800043c <DUPP>
 8001b24:	f7fe fde8 	bl	80006f8 <CPP>
 8001b28:	f7fe fc60 	bl	80003ec <STORE>
 8001b2c:	f7fe fc64 	bl	80003f8 <AT>
 8001b30:	f7fe fdee 	bl	8000710 <LAST>
 8001b34:	f7fe fc5a 	bl	80003ec <STORE>
 8001b38:	f852 fb04 	ldr.w	pc, [r2], #4

08001b3c <OVERT>:
 8001b3c:	f842 ed04 	str.w	lr, [r2, #-4]!
 8001b40:	f7fe fde6 	bl	8000710 <LAST>
 8001b44:	f7fe fc58 	bl	80003f8 <AT>
 8001b48:	f7fe fdd0 	bl	80006ec <CNTXT>
 8001b4c:	f7fe fc4e 	bl	80003ec <STORE>
 8001b50:	f852 fb04 	ldr.w	pc, [r2], #4

08001b54 <SEMIS>:
 8001b54:	f842 ed04 	str.w	lr, [r2, #-4]!
 8001b58:	f7fe fc17 	bl	800038a <DOLIT>
 8001b5c:	f852 fb04 	ldr.w	pc, [r2], #4
 8001b60:	f7ff fe6c 	bl	800183c <COMMA>
 8001b64:	f7ff fc36 	bl	80013d4 <LBRAC>
 8001b68:	f7ff ffe8 	bl	8001b3c <OVERT>
 8001b6c:	f852 fb04 	ldr.w	pc, [r2], #4

08001b70 <RBRAC>:
 8001b70:	f842 ed04 	str.w	lr, [r2, #-4]!
 8001b74:	f7fe fc09 	bl	800038a <DOLIT>
 8001b78:	20001ab8 			; <UNDEFINED> instruction: 0x20001ab8
 8001b7c:	f7fe fdaa 	bl	80006d4 <TEVAL>
 8001b80:	f7fe fc34 	bl	80003ec <STORE>
 8001b84:	f852 fb04 	ldr.w	pc, [r2], #4

08001b88 <COMPILE_BLW>:
 8001b88:	ea4f 0565 	mov.w	r5, r5, asr #1
 8001b8c:	f44f 4450 	mov.w	r4, #53248	; 0xd000
 8001b90:	f2cf 0400 	movt	r4, #61440	; 0xf000
 8001b94:	f365 040a 	bfi	r4, r5, #0, #11
 8001b98:	ea4f 25d5 	mov.w	r5, r5, lsr #11
 8001b9c:	f365 4419 	bfi	r4, r5, #16, #10
 8001ba0:	ea4f 25a5 	mov.w	r5, r5, asr #10
 8001ba4:	f365 24cb 	bfi	r4, r5, #11, #1
 8001ba8:	ea4f 0565 	mov.w	r5, r5, asr #1
 8001bac:	f365 344d 	bfi	r4, r5, #13, #1
 8001bb0:	ea4f 0565 	mov.w	r5, r5, asr #1
 8001bb4:	f365 649a 	bfi	r4, r5, #26, #1
 8001bb8:	f014 6f80 	tst.w	r4, #67108864	; 0x4000000
 8001bbc:	d102      	bne.n	8001bc4 <COMPILE_BLW+0x3c>
 8001bbe:	bf00      	nop
 8001bc0:	f484 5420 	eor.w	r4, r4, #10240	; 0x2800
 8001bc4:	ea4f 4534 	mov.w	r5, r4, ror #16
 8001bc8:	4770      	bx	lr

08001bca <CALLC>:
 8001bca:	f842 ed04 	str.w	lr, [r2, #-4]!
 8001bce:	f025 0501 	bic.w	r5, r5, #1
 8001bd2:	f7fe fe91 	bl	80008f8 <HERE>
 8001bd6:	f7fe fc6d 	bl	80004b4 <SUBB>
 8001bda:	f1a5 0504 	sub.w	r5, r5, #4
 8001bde:	f7ff ffd3 	bl	8001b88 <COMPILE_BLW>
 8001be2:	f7ff fe2b 	bl	800183c <COMMA>
 8001be6:	f852 fb04 	ldr.w	pc, [r2], #4
 8001bea:	bf00      	nop

08001bec <COLON>:
 8001bec:	f842 ed04 	str.w	lr, [r2, #-4]!
 8001bf0:	f000 f83a 	bl	8001c68 <HEAD>
 8001bf4:	f7ff ffbc 	bl	8001b70 <RBRAC>
 8001bf8:	f852 fb04 	ldr.w	pc, [r2], #4

08001bfc <IMMED>:
 8001bfc:	f842 ed04 	str.w	lr, [r2, #-4]!
 8001c00:	f7fe fbc3 	bl	800038a <DOLIT>
 8001c04:	00000080 	andeq	r0, r0, r0, lsl #1
 8001c08:	f7fe fd82 	bl	8000710 <LAST>
 8001c0c:	f7fe fbf4 	bl	80003f8 <AT>
 8001c10:	f7fe fbf2 	bl	80003f8 <AT>
 8001c14:	f7fe fc2a 	bl	800046c <ORR>
 8001c18:	f7fe fd7a 	bl	8000710 <LAST>
 8001c1c:	f7fe fbec 	bl	80003f8 <AT>
 8001c20:	f7fe fbe4 	bl	80003ec <STORE>
 8001c24:	f852 fb04 	ldr.w	pc, [r2], #4

08001c28 <ICOLON>:
 8001c28:	f842 ed04 	str.w	lr, [r2, #-4]!
 8001c2c:	f7fe fe64 	bl	80008f8 <HERE>
 8001c30:	f7fe fbab 	bl	800038a <DOLIT>
 8001c34:	f842 ed04 	str.w	lr, [r2, #-4]!
 8001c38:	f7ff fe00 	bl	800183c <COMMA>
 8001c3c:	f7ff ff98 	bl	8001b70 <RBRAC>
 8001c40:	f852 fb04 	ldr.w	pc, [r2], #4

08001c44 <ISEMIS>:
 8001c44:	f842 ed04 	str.w	lr, [r2, #-4]!
 8001c48:	f7fe fb9f 	bl	800038a <DOLIT>
 8001c4c:	f852 eb04 	ldr.w	lr, [r2], #4
 8001c50:	f7ff fdf4 	bl	800183c <COMMA>
 8001c54:	f7fe fb99 	bl	800038a <DOLIT>
 8001c58:	4770      	bx	lr
 8001c5a:	bf00      	nop
 8001c5c:	f7ff fdee 	bl	800183c <COMMA>
 8001c60:	f7ff fbb8 	bl	80013d4 <LBRAC>
 8001c64:	f852 fb04 	ldr.w	pc, [r2], #4

08001c68 <HEAD>:
 8001c68:	f842 ed04 	str.w	lr, [r2, #-4]!
 8001c6c:	f7ff fa00 	bl	8001070 <TOKEN>
 8001c70:	f7ff fef6 	bl	8001a60 <SNAME>
 8001c74:	f7fe fe40 	bl	80008f8 <HERE>
 8001c78:	f7fe fc44 	bl	8000504 <CELLP>
 8001c7c:	f7ff fdde 	bl	800183c <COMMA>
 8001c80:	f7fe fb83 	bl	800038a <DOLIT>
 8001c84:	f842 ed04 	str.w	lr, [r2, #-4]!
 8001c88:	f7ff fdd8 	bl	800183c <COMMA>
 8001c8c:	f852 fb04 	ldr.w	pc, [r2], #4

08001c90 <CONST>:
 8001c90:	f842 ed04 	str.w	lr, [r2, #-4]!
 8001c94:	f7ff ffe8 	bl	8001c68 <HEAD>
 8001c98:	f7fe fb77 	bl	800038a <DOLIT>
 8001c9c:	20000660 	andcs	r0, r0, r0, ror #12
 8001ca0:	f7ff ff93 	bl	8001bca <CALLC>
 8001ca4:	f7ff fdca 	bl	800183c <COMMA>
 8001ca8:	f7ff ff48 	bl	8001b3c <OVERT>
 8001cac:	f852 fb04 	ldr.w	pc, [r2], #4

08001cb0 <DODOES>:
 8001cb0:	f842 ed04 	str.w	lr, [r2, #-4]!
 8001cb4:	f7fe fd2c 	bl	8000710 <LAST>
 8001cb8:	f7fe fb9e 	bl	80003f8 <AT>
 8001cbc:	f7ff f9e0 	bl	8001080 <TOCFA>
 8001cc0:	f7fe fe1a 	bl	80008f8 <HERE>
 8001cc4:	f7fe fbc2 	bl	800044c <OVER>
 8001cc8:	f7fe fb90 	bl	80003ec <STORE>
 8001ccc:	f7fe fb5d 	bl	800038a <DOLIT>
 8001cd0:	f842 ed04 	str.w	lr, [r2, #-4]!
 8001cd4:	f7ff fdb2 	bl	800183c <COMMA>
 8001cd8:	f7fe fb57 	bl	800038a <DOLIT>
 8001cdc:	0000000c 	andeq	r0, r0, ip
 8001ce0:	f7fe fbe4 	bl	80004ac <PLUS>
 8001ce4:	f7ff fdd6 	bl	8001894 <LITER>
 8001ce8:	f7fe fb96 	bl	8000418 <RAT>
 8001cec:	f7fe fbfe 	bl	80004ec <ONEM>
 8001cf0:	f7fe fc08 	bl	8000504 <CELLP>
 8001cf4:	f7ff ff69 	bl	8001bca <CALLC>
 8001cf8:	f7fe fb47 	bl	800038a <DOLIT>
 8001cfc:	f852 fb04 	ldr.w	pc, [r2], #4
 8001d00:	f7ff fd9c 	bl	800183c <COMMA>
 8001d04:	f7ff ff1a 	bl	8001b3c <OVERT>
 8001d08:	f852 fb04 	ldr.w	pc, [r2], #4

08001d0c <DOES>:
 8001d0c:	f842 ed04 	str.w	lr, [r2, #-4]!
 8001d10:	f7fe fb3b 	bl	800038a <DOLIT>
 8001d14:	20001cb0 			; <UNDEFINED> instruction: 0x20001cb0
 8001d18:	f7ff ff57 	bl	8001bca <CALLC>
 8001d1c:	f7fe fb35 	bl	800038a <DOLIT>
 8001d20:	f852 fb04 	ldr.w	pc, [r2], #4
 8001d24:	f7ff fd8a 	bl	800183c <COMMA>
 8001d28:	f7fe fb2f 	bl	800038a <DOLIT>
 8001d2c:	f842 ed04 	str.w	lr, [r2, #-4]!
 8001d30:	f7ff fd84 	bl	800183c <COMMA>
 8001d34:	f852 fb04 	ldr.w	pc, [r2], #4

08001d38 <CREAT>:
 8001d38:	f842 ed04 	str.w	lr, [r2, #-4]!
 8001d3c:	f7ff ff94 	bl	8001c68 <HEAD>
 8001d40:	f7fe fb23 	bl	800038a <DOLIT>
 8001d44:	20000654 	andcs	r0, r0, r4, asr r6
 8001d48:	f7ff ff3f 	bl	8001bca <CALLC>
 8001d4c:	f852 fb04 	ldr.w	pc, [r2], #4

08001d50 <VARIA>:
 8001d50:	f842 ed04 	str.w	lr, [r2, #-4]!
 8001d54:	f7ff fff0 	bl	8001d38 <CREAT>
 8001d58:	f7fe fb17 	bl	800038a <DOLIT>
 8001d5c:	00000000 	andeq	r0, r0, r0
 8001d60:	f7ff fd6c 	bl	800183c <COMMA>
 8001d64:	f7ff feea 	bl	8001b3c <OVERT>
 8001d68:	f852 fb04 	ldr.w	pc, [r2], #4

08001d6c <FCALL>:
 8001d6c:	f842 ed04 	str.w	lr, [r2, #-4]!
 8001d70:	462c      	mov	r4, r5
 8001d72:	f851 5b04 	ldr.w	r5, [r1], #4
 8001d76:	f044 0401 	orr.w	r4, r4, #1
 8001d7a:	47a0      	blx	r4
 8001d7c:	f852 fb04 	ldr.w	pc, [r2], #4

08001d80 <DEFER>:
 8001d80:	f842 ed04 	str.w	lr, [r2, #-4]!
 8001d84:	f7ff ff70 	bl	8001c68 <HEAD>
 8001d88:	f7fe faff 	bl	800038a <DOLIT>
 8001d8c:	20000388 	andcs	r0, r0, r8, lsl #7
 8001d90:	f7ff ff1b 	bl	8001bca <CALLC>
 8001d94:	f7fe faf9 	bl	800038a <DOLIT>
 8001d98:	f852 fb04 	ldr.w	pc, [r2], #4
 8001d9c:	f7ff fd4e 	bl	800183c <COMMA>
 8001da0:	f7ff fecc 	bl	8001b3c <OVERT>
 8001da4:	f852 fb04 	ldr.w	pc, [r2], #4

08001da8 <DEFERSTO>:
 8001da8:	f842 ed04 	str.w	lr, [r2, #-4]!
 8001dac:	f025 0501 	bic.w	r5, r5, #1
 8001db0:	f7ff fd2e 	bl	8001810 <TICK>
 8001db4:	f7fe fba6 	bl	8000504 <CELLP>
 8001db8:	f7fe fb40 	bl	800043c <DUPP>
 8001dbc:	f7fe fb30 	bl	8000420 <TOR>
 8001dc0:	f7fe fb78 	bl	80004b4 <SUBB>
 8001dc4:	f1a5 0504 	sub.w	r5, r5, #4
 8001dc8:	f7ff fede 	bl	8001b88 <COMPILE_BLW>
 8001dcc:	f7fe fb1e 	bl	800040c <RFROM>
 8001dd0:	f7fe fb0c 	bl	80003ec <STORE>
 8001dd4:	f852 fb04 	ldr.w	pc, [r2], #4

08001dd8 <DEFERAT>:
 8001dd8:	f842 ed04 	str.w	lr, [r2, #-4]!
 8001ddc:	f7ff fd18 	bl	8001810 <TICK>
 8001de0:	f7fe fb90 	bl	8000504 <CELLP>
 8001de4:	f7fe fb2a 	bl	800043c <DUPP>
 8001de8:	f7fe fb1a 	bl	8000420 <TOR>
 8001dec:	f7fe fb04 	bl	80003f8 <AT>
 8001df0:	f7fe facb 	bl	800038a <DOLIT>
 8001df4:	080025e5 	stmdaeq	r0, {r0, r2, r5, r6, r7, r8, sl, sp}
 8001df8:	f7ff ffb8 	bl	8001d6c <FCALL>
 8001dfc:	f7fe fac5 	bl	800038a <DOLIT>
 8001e00:	00000004 	andeq	r0, r0, r4
 8001e04:	f7fe fb52 	bl	80004ac <PLUS>
 8001e08:	f7fe fb00 	bl	800040c <RFROM>
 8001e0c:	f7fe fb4e 	bl	80004ac <PLUS>
 8001e10:	f852 fb04 	ldr.w	pc, [r2], #4

08001e14 <DUMP>:
 8001e14:	f7fe fab9 	bl	800038a <DOLIT>
 8001e18:	08002289 	stmdaeq	r0, {r0, r3, r7, r9, sp}
 8001e1c:	462c      	mov	r4, r5
 8001e1e:	f851 5b04 	ldr.w	r5, [r1], #4
 8001e22:	47a0      	blx	r4
 8001e24:	4770      	bx	lr
 8001e26:	bf00      	nop

08001e28 <DOTS>:
 8001e28:	f7fe faaf 	bl	800038a <DOLIT>
 8001e2c:	080022f5 	stmdaeq	r0, {r0, r2, r4, r5, r6, r7, r9, sp}
 8001e30:	462c      	mov	r4, r5
 8001e32:	f851 5b04 	ldr.w	r5, [r1], #4
 8001e36:	47a0      	blx	r4
 8001e38:	4770      	bx	lr
 8001e3a:	bf00      	nop

08001e3c <TNAME>:
 8001e3c:	f7fe faa5 	bl	800038a <DOLIT>
 8001e40:	08002325 	stmdaeq	r0, {r0, r2, r5, r8, r9, sp}
 8001e44:	462c      	mov	r4, r5
 8001e46:	f851 5b04 	ldr.w	r5, [r1], #4
 8001e4a:	47a0      	blx	r4
 8001e4c:	4770      	bx	lr
 8001e4e:	bf00      	nop

08001e50 <DOTID>:
 8001e50:	f7fe fa9b 	bl	800038a <DOLIT>
 8001e54:	0800237d 	stmdaeq	r0, {r0, r2, r3, r4, r5, r6, r8, r9, sp}
 8001e58:	462c      	mov	r4, r5
 8001e5a:	f851 5b04 	ldr.w	r5, [r1], #4
 8001e5e:	47a0      	blx	r4
 8001e60:	4770      	bx	lr
 8001e62:	bf00      	nop

08001e64 <SEE>:
 8001e64:	f7fe fa91 	bl	800038a <DOLIT>
 8001e68:	08002545 	stmdaeq	r0, {r0, r2, r6, r8, sl, sp}
 8001e6c:	462c      	mov	r4, r5
 8001e6e:	f851 5b04 	ldr.w	r5, [r1], #4
 8001e72:	47a0      	blx	r4
 8001e74:	4770      	bx	lr
 8001e76:	bf00      	nop

08001e78 <SCOL>:
 8001e78:	f7fe fa87 	bl	800038a <DOLIT>
 8001e7c:	08002579 	stmdaeq	r0, {r0, r3, r4, r5, r6, r8, sl, sp}
 8001e80:	462c      	mov	r4, r5
 8001e82:	f851 5b04 	ldr.w	r5, [r1], #4
 8001e86:	47a0      	blx	r4
 8001e88:	4770      	bx	lr
 8001e8a:	bf00      	nop

08001e8c <DECOMP>:
 8001e8c:	f7fe fa7d 	bl	800038a <DOLIT>
 8001e90:	08002629 	stmdaeq	r0, {r0, r3, r5, r9, sl, sp}
 8001e94:	462c      	mov	r4, r5
 8001e96:	f851 5b04 	ldr.w	r5, [r1], #4
 8001e9a:	47a0      	blx	r4
 8001e9c:	4770      	bx	lr
 8001e9e:	bf00      	nop

08001ea0 <WORDS>:
 8001ea0:	f7fe fa73 	bl	800038a <DOLIT>
 8001ea4:	080026ad 	stmdaeq	r0, {r0, r2, r3, r5, r7, r9, sl, sp}
 8001ea8:	462c      	mov	r4, r5
 8001eaa:	f851 5b04 	ldr.w	r5, [r1], #4
 8001eae:	47a0      	blx	r4
 8001eb0:	4770      	bx	lr

08001eb2 <VERSN>:
 8001eb2:	f842 ed04 	str.w	lr, [r2, #-4]!
 8001eb6:	f7fe fa68 	bl	800038a <DOLIT>
 8001eba:	00000100 	andeq	r0, r0, r0, lsl #2
 8001ebe:	f852 fb04 	ldr.w	pc, [r2], #4
 8001ec2:	bf00      	nop

08001ec4 <HI>:
 8001ec4:	f842 ed04 	str.w	lr, [r2, #-4]!
 8001ec8:	f7fe ff38 	bl	8000d3c <CR>
 8001ecc:	f7fe fa5d 	bl	800038a <DOLIT>
 8001ed0:	08003304 	stmdaeq	r0, {r2, r8, r9, ip, sp}
 8001ed4:	f7fe fbb0 	bl	8000638 <COUNT>
 8001ed8:	f7fe ff1c 	bl	8000d14 <TYPEE>
 8001edc:	f7fe fbde 	bl	800069c <BASE>
 8001ee0:	f7fe fa8a 	bl	80003f8 <AT>
 8001ee4:	f7fe fe14 	bl	8000b10 <HEX>
 8001ee8:	f7ff ffe3 	bl	8001eb2 <VERSN>
 8001eec:	f7fe fda6 	bl	8000a3c <BDIGS>
 8001ef0:	f7fe fdc0 	bl	8000a74 <DIG>
 8001ef4:	f7fe fdbe 	bl	8000a74 <DIG>
 8001ef8:	f7fe fa47 	bl	800038a <DOLIT>
 8001efc:	0000002e 	andeq	r0, r0, lr, lsr #32
 8001f00:	f7fe fda6 	bl	8000a50 <HOLD>
 8001f04:	f7fe fdc2 	bl	8000a8c <DIGS>
 8001f08:	f7fe fdde 	bl	8000ac8 <EDIGS>
 8001f0c:	f7fe ff02 	bl	8000d14 <TYPEE>
 8001f10:	f7fe fbc4 	bl	800069c <BASE>
 8001f14:	f7fe fa6a 	bl	80003ec <STORE>
 8001f18:	f7fe ff10 	bl	8000d3c <CR>
 8001f1c:	f852 fb04 	ldr.w	pc, [r2], #4

08001f20 <COLD>:
 8001f20:	f44f 7300 	mov.w	r3, #512	; 0x200
 8001f24:	f2c2 0300 	movt	r3, #8192	; 0x2000
 8001f28:	f44f 417f 	mov.w	r1, #65280	; 0xff00
 8001f2c:	f2c2 0101 	movt	r1, #8193	; 0x2001
 8001f30:	f64f 7280 	movw	r2, #65408	; 0xff80
 8001f34:	f2c2 0201 	movt	r2, #8193	; 0x2001
 8001f38:	ea85 0505 	eor.w	r5, r5, r5
 8001f3c:	f842 ed04 	str.w	lr, [r2, #-4]!

08001f40 <COLD1>:
 8001f40:	f7fe fa23 	bl	800038a <DOLIT>
 8001f44:	00000000 	andeq	r0, r0, r0
 8001f48:	f7fe f9ee 	bl	8000328 <ULED>
 8001f4c:	f7fe fa1d 	bl	800038a <DOLIT>
 8001f50:	08000200 	stmdaeq	r0, {r9}
 8001f54:	f7fe fa19 	bl	800038a <DOLIT>
 8001f58:	20000200 	andcs	r0, r0, r0, lsl #4
 8001f5c:	f7fe fa15 	bl	800038a <DOLIT>
 8001f60:	00000054 	andeq	r0, r0, r4, asr r0
 8001f64:	f7fe fcf8 	bl	8000958 <MOVE>
 8001f68:	f7ff fa82 	bl	8001470 <PRESE>
 8001f6c:	f7ff fb42 	bl	80015f4 <IMGQ>
 8001f70:	f7fe fa28 	bl	80003c4 <QBRAN>
 8001f74:	20001f7c 	andcs	r1, r0, ip, ror pc
 8001f78:	f7ff fb4c 	bl	8001614 <LOAD_IMG>
 8001f7c:	f7fe fb88 	bl	8000690 <TBOOT>
 8001f80:	f7fe fcce 	bl	8000920 <ATEXE>
 8001f84:	f7ff fdda 	bl	8001b3c <OVERT>
 8001f88:	f7ff ba7c 	b.w	8001484 <QUIT>

08001f8c <COLD2>:
 8001f8c:	ffffffff 			; <UNDEFINED> instruction: 0xffffffff

Disassembly of section .inflash:

08001f90 <default_handler>:
 8001f90:	4d01      	ldr	r5, [pc, #4]	; (8001f98 <exception_msg>)
 8001f92:	f000 f84f 	bl	8002034 <uart_puts>
 8001f96:	e039      	b.n	800200c <reset_mcu>

08001f98 <exception_msg>:
 8001f98:	08001f9c 	stmdaeq	r0, {r2, r3, r4, r7, r8, r9, sl, fp, ip}
 8001f9c:	650d0a12 	strvs	r0, [sp, #-2578]	; 0xfffff5ee
 8001fa0:	74706578 	ldrbtvc	r6, [r0], #-1400	; 0xfffffa88
 8001fa4:	206e6f69 	rsbcs	r6, lr, r9, ror #30
 8001fa8:	6f626572 	svcvs	0x00626572
 8001fac:	0021746f 	eoreq	r7, r1, pc, ror #8

08001fb0 <systick_handler>:
 8001fb0:	f44f 7300 	mov.w	r3, #512	; 0x200
 8001fb4:	f2c2 0300 	movt	r3, #8192	; 0x2000
 8001fb8:	6898      	ldr	r0, [r3, #8]
 8001fba:	f100 0001 	add.w	r0, r0, #1
 8001fbe:	6098      	str	r0, [r3, #8]
 8001fc0:	68d8      	ldr	r0, [r3, #12]
 8001fc2:	b110      	cbz	r0, 8001fca <systick_exit>
 8001fc4:	f1a0 0001 	sub.w	r0, r0, #1
 8001fc8:	60d8      	str	r0, [r3, #12]

08001fca <systick_exit>:
 8001fca:	4770      	bx	lr

08001fcc <uart_rx_handler>:
 8001fcc:	e92d 02d0 	stmdb	sp!, {r4, r6, r7, r9}
 8001fd0:	f44f 5480 	mov.w	r4, #4096	; 0x1000
 8001fd4:	f2c4 0401 	movt	r4, #16385	; 0x4001
 8001fd8:	6826      	ldr	r6, [r4, #0]
 8001fda:	f8d4 9004 	ldr.w	r9, [r4, #4]
 8001fde:	f016 0f20 	tst.w	r6, #32
 8001fe2:	d00d      	beq.n	8002000 <uart_rx_handler+0x34>
 8001fe4:	f1b9 0f03 	cmp.w	r9, #3
 8001fe8:	d00d      	beq.n	8002006 <user_reboot>
 8001fea:	f103 0750 	add.w	r7, r3, #80	; 0x50
 8001fee:	6e5c      	ldr	r4, [r3, #100]	; 0x64
 8001ff0:	4427      	add	r7, r4
 8001ff2:	f887 9000 	strb.w	r9, [r7]
 8001ff6:	f104 0401 	add.w	r4, r4, #1
 8001ffa:	f004 040f 	and.w	r4, r4, #15
 8001ffe:	665c      	str	r4, [r3, #100]	; 0x64
 8002000:	e8bd 02d0 	ldmia.w	sp!, {r4, r6, r7, r9}
 8002004:	4770      	bx	lr

08002006 <user_reboot>:
 8002006:	4d06      	ldr	r5, [pc, #24]	; (8002020 <user_reboot_msg>)
 8002008:	f000 f814 	bl	8002034 <uart_puts>

0800200c <reset_mcu>:
 800200c:	4803      	ldr	r0, [pc, #12]	; (800201c <scb_adr>)
 800200e:	68c1      	ldr	r1, [r0, #12]
 8002010:	f041 0104 	orr.w	r1, r1, #4
 8002014:	f2c0 51fa 	movt	r1, #1530	; 0x5fa
 8002018:	60c1      	str	r1, [r0, #12]
 800201a:	e7fe      	b.n	800201a <reset_mcu+0xe>

0800201c <scb_adr>:
 800201c:	e000ed00 	and	lr, r0, r0, lsl #26

08002020 <user_reboot_msg>:
 8002020:	08002024 	stmdaeq	r0, {r2, r5, sp}
 8002024:	73750d0d 	cmnvc	r5, #832	; 0x340
 8002028:	72207265 	eorvc	r7, r0, #1342177286	; 0x50000006
 800202c:	6f6f6265 	svcvs	0x006f6265
 8002030:	bf002174 	svclt	0x00002174

08002034 <uart_puts>:
 8002034:	f44f 5080 	mov.w	r0, #4096	; 0x1000
 8002038:	f2c4 0001 	movt	r0, #16385	; 0x4001
 800203c:	f815 1b01 	ldrb.w	r1, [r5], #1
 8002040:	4009      	ands	r1, r1
 8002042:	d00c      	beq.n	800205e <uart_puts+0x2a>
 8002044:	6802      	ldr	r2, [r0, #0]
 8002046:	f012 0280 	ands.w	r2, r2, #128	; 0x80
 800204a:	d0fb      	beq.n	8002044 <uart_puts+0x10>
 800204c:	f815 2b01 	ldrb.w	r2, [r5], #1
 8002050:	7102      	strb	r2, [r0, #4]
 8002052:	3901      	subs	r1, #1
 8002054:	d1f6      	bne.n	8002044 <uart_puts+0x10>
 8002056:	6802      	ldr	r2, [r0, #0]
 8002058:	f012 0240 	ands.w	r2, r2, #64	; 0x40
 800205c:	d0fb      	beq.n	8002056 <uart_puts+0x22>
 800205e:	4770      	bx	lr

08002060 <reset_handler>:
 8002060:	f04f 0000 	mov.w	r0, #0
 8002064:	f2c2 0002 	movt	r0, #8194	; 0x2002
 8002068:	4685      	mov	sp, r0
 800206a:	f000 f8b7 	bl	80021dc <remap>
 800206e:	f000 f83b 	bl	80020e8 <init_devices>
 8002072:	f000 f88d 	bl	8002190 <uart_init>
 8002076:	f000 f809 	bl	800208c <forth_init>
 800207a:	4803      	ldr	r0, [pc, #12]	; (8002088 <forth_entry>)
 800207c:	f040 0001 	orr.w	r0, r0, #1
 8002080:	4780      	blx	r0
 8002082:	f7ff bffe 	b.w	8002082 <reset_handler+0x22>
 8002086:	bf00      	nop

08002088 <forth_entry>:
 8002088:	20001f20 	andcs	r1, r0, r0, lsr #30

0800208c <forth_init>:
 800208c:	f44f 7300 	mov.w	r3, #512	; 0x200
 8002090:	f2c2 0300 	movt	r3, #8192	; 0x2000
 8002094:	f44f 417f 	mov.w	r1, #65280	; 0xff00
 8002098:	f2c2 0101 	movt	r1, #8193	; 0x2001
 800209c:	f64f 7280 	movw	r2, #65408	; 0xff80
 80020a0:	f2c2 0201 	movt	r2, #8193	; 0x2001
 80020a4:	ea85 0505 	eor.w	r5, r5, r5
 80020a8:	4770      	bx	lr

080020aa <blink>:
 80020aa:	f44f 6000 	mov.w	r0, #2048	; 0x800
 80020ae:	f2c4 0002 	movt	r0, #16386	; 0x4002
 80020b2:	f44f 5100 	mov.w	r1, #8192	; 0x2000
 80020b6:	6181      	str	r1, [r0, #24]
 80020b8:	f44f 71fa 	mov.w	r1, #500	; 0x1f4
 80020bc:	60d9      	str	r1, [r3, #12]
 80020be:	b500      	push	{lr}
 80020c0:	f000 f80e 	bl	80020e0 <timeout>
 80020c4:	f85d eb04 	ldr.w	lr, [sp], #4
 80020c8:	f04f 5100 	mov.w	r1, #536870912	; 0x20000000
 80020cc:	6181      	str	r1, [r0, #24]
 80020ce:	f44f 71fa 	mov.w	r1, #500	; 0x1f4
 80020d2:	60d9      	str	r1, [r3, #12]
 80020d4:	b500      	push	{lr}
 80020d6:	f000 f803 	bl	80020e0 <timeout>
 80020da:	f85d eb04 	ldr.w	lr, [sp], #4
 80020de:	e7e8      	b.n	80020b2 <blink+0x8>

080020e0 <timeout>:
 80020e0:	68d9      	ldr	r1, [r3, #12]
 80020e2:	4309      	orrs	r1, r1
 80020e4:	d1fc      	bne.n	80020e0 <timeout>
 80020e6:	4770      	bx	lr

080020e8 <init_devices>:
 80020e8:	f44f 5070 	mov.w	r0, #15360	; 0x3c00
 80020ec:	f2c4 0002 	movt	r0, #16386	; 0x4002
 80020f0:	f04f 0103 	mov.w	r1, #3
 80020f4:	6001      	str	r1, [r0, #0]
 80020f6:	f44f 5060 	mov.w	r0, #14336	; 0x3800
 80020fa:	f2c4 0002 	movt	r0, #16386	; 0x4002
 80020fe:	6801      	ldr	r1, [r0, #0]
 8002100:	f441 3180 	orr.w	r1, r1, #65536	; 0x10000
 8002104:	6001      	str	r1, [r0, #0]

08002106 <wait_hserdy>:
 8002106:	6801      	ldr	r1, [r0, #0]
 8002108:	f411 3f00 	tst.w	r1, #131072	; 0x20000
 800210c:	d0fb      	beq.n	8002106 <wait_hserdy>
 800210e:	f44f 5060 	mov.w	r0, #14336	; 0x3800
 8002112:	f2c4 0002 	movt	r0, #16386	; 0x4002
 8002116:	f246 0132 	movw	r1, #24626	; 0x6032
 800211a:	f2c0 4140 	movt	r1, #1088	; 0x440
 800211e:	6041      	str	r1, [r0, #4]
 8002120:	6801      	ldr	r1, [r0, #0]
 8002122:	f041 7180 	orr.w	r1, r1, #16777216	; 0x1000000
 8002126:	6001      	str	r1, [r0, #0]

08002128 <wait_pllrdy>:
 8002128:	6801      	ldr	r1, [r0, #0]
 800212a:	f011 7f00 	tst.w	r1, #33554432	; 0x2000000
 800212e:	d1fb      	bne.n	8002128 <wait_pllrdy>
 8002130:	f44f 5180 	mov.w	r1, #4096	; 0x1000
 8002134:	f2c0 0119 	movt	r1, #25
 8002138:	6081      	str	r1, [r0, #8]
 800213a:	6881      	ldr	r1, [r0, #8]
 800213c:	f041 0102 	orr.w	r1, r1, #2
 8002140:	6081      	str	r1, [r0, #8]

08002142 <wait_sws>:
 8002142:	6881      	ldr	r1, [r0, #8]
 8002144:	f011 0f08 	tst.w	r1, #8
 8002148:	d0fb      	beq.n	8002142 <wait_sws>
 800214a:	f04f 0105 	mov.w	r1, #5
 800214e:	6301      	str	r1, [r0, #48]	; 0x30
 8002150:	f04f 0110 	mov.w	r1, #16
 8002154:	6441      	str	r1, [r0, #68]	; 0x44
 8002156:	f44f 6000 	mov.w	r0, #2048	; 0x800
 800215a:	f2c4 0002 	movt	r0, #16386	; 0x4002
 800215e:	6801      	ldr	r1, [r0, #0]
 8002160:	f06f 6240 	mvn.w	r2, #201326592	; 0xc000000
 8002164:	ea01 0102 	and.w	r1, r1, r2
 8002168:	f041 6180 	orr.w	r1, r1, #67108864	; 0x4000000
 800216c:	6001      	str	r1, [r0, #0]
 800216e:	6841      	ldr	r1, [r0, #4]
 8002170:	f441 5100 	orr.w	r1, r1, #8192	; 0x2000
 8002174:	6041      	str	r1, [r0, #4]
 8002176:	f24e 0010 	movw	r0, #57360	; 0xe010
 800217a:	f2ce 0000 	movt	r0, #57344	; 0xe000
 800217e:	f247 61ff 	movw	r1, #30463	; 0x76ff
 8002182:	f2c0 0101 	movt	r1, #1
 8002186:	6041      	str	r1, [r0, #4]
 8002188:	f04f 0107 	mov.w	r1, #7
 800218c:	6001      	str	r1, [r0, #0]
 800218e:	4770      	bx	lr

08002190 <uart_init>:
 8002190:	f04f 0000 	mov.w	r0, #0
 8002194:	f2c4 0002 	movt	r0, #16386	; 0x4002
 8002198:	6801      	ldr	r1, [r0, #0]
 800219a:	f46f 2240 	mvn.w	r2, #786432	; 0xc0000
 800219e:	ea01 0102 	and.w	r1, r1, r2
 80021a2:	f44f 2200 	mov.w	r2, #524288	; 0x80000
 80021a6:	ea41 0102 	orr.w	r1, r1, r2
 80021aa:	6001      	str	r1, [r0, #0]
 80021ac:	f44f 61ee 	mov.w	r1, #1904	; 0x770
 80021b0:	6241      	str	r1, [r0, #36]	; 0x24
 80021b2:	f44f 5080 	mov.w	r0, #4096	; 0x1000
 80021b6:	f2c4 0001 	movt	r0, #16385	; 0x4001
 80021ba:	f240 3141 	movw	r1, #833	; 0x341
 80021be:	6081      	str	r1, [r0, #8]
 80021c0:	f242 012c 	movw	r1, #8236	; 0x202c
 80021c4:	60c1      	str	r1, [r0, #12]
 80021c6:	f44f 4061 	mov.w	r0, #57600	; 0xe100
 80021ca:	f2ce 0000 	movt	r0, #57344	; 0xe000
 80021ce:	f8d0 1104 	ldr.w	r1, [r0, #260]	; 0x104
 80021d2:	f041 0120 	orr.w	r1, r1, #32
 80021d6:	f8c0 1104 	str.w	r1, [r0, #260]	; 0x104
 80021da:	4770      	bx	lr

080021dc <remap>:
 80021dc:	f04f 0000 	mov.w	r0, #0
 80021e0:	f2c2 0000 	movt	r0, #8192	; 0x2000
 80021e4:	ea81 0101 	eor.w	r1, r1, r1
 80021e8:	f44f 72cc 	mov.w	r2, #408	; 0x198
 80021ec:	f851 3b04 	ldr.w	r3, [r1], #4
 80021f0:	f840 3b04 	str.w	r3, [r0], #4
 80021f4:	3a04      	subs	r2, #4
 80021f6:	d1f9      	bne.n	80021ec <remap+0x10>
 80021f8:	f44f 406d 	mov.w	r0, #60672	; 0xed00
 80021fc:	f2ce 0000 	movt	r0, #57344	; 0xe000
 8002200:	f04f 0100 	mov.w	r1, #0
 8002204:	f2c2 0100 	movt	r1, #8192	; 0x2000
 8002208:	6081      	str	r1, [r0, #8]
 800220a:	480d      	ldr	r0, [pc, #52]	; (8002240 <remap_dest>)
 800220c:	490b      	ldr	r1, [pc, #44]	; (800223c <remap_src>)
 800220e:	f641 528c 	movw	r2, #7564	; 0x1d8c
 8002212:	f102 0203 	add.w	r2, r2, #3
 8002216:	f022 0203 	bic.w	r2, r2, #3
 800221a:	f851 3b04 	ldr.w	r3, [r1], #4
 800221e:	f840 3b04 	str.w	r3, [r0], #4
 8002222:	3a04      	subs	r2, #4
 8002224:	d1f9      	bne.n	800221a <remap+0x3e>
 8002226:	f04f 0200 	mov.w	r2, #0
 800222a:	f2c2 0202 	movt	r2, #8194	; 0x2002
 800222e:	ea83 0303 	eor.w	r3, r3, r3
 8002232:	f840 3b04 	str.w	r3, [r0], #4
 8002236:	4290      	cmp	r0, r2
 8002238:	dbfb      	blt.n	8002232 <remap+0x56>
 800223a:	4770      	bx	lr

0800223c <remap_src>:
 800223c:	08000200 	stmdaeq	r0, {r9}

08002240 <remap_dest>:
 8002240:	20000200 	andcs	r0, r0, r0, lsl #4

08002244 <DMP>:
 8002244:	f842 ed04 	str.w	lr, [r2, #-4]!
 8002248:	f7fe f900 	bl	800044c <OVER>
 800224c:	f7fe f89d 	bl	800038a <DOLIT>
 8002250:	00000004 	andeq	r0, r0, r4
 8002254:	f7fe fdc4 	bl	8000de0 <UDOTR>
 8002258:	f7fe fd40 	bl	8000cdc <SPACE>
 800225c:	f7fe f8e0 	bl	8000420 <TOR>
 8002260:	f000 b80c 	b.w	800227c <PDUM2>

08002264 <PDUM1>:
 8002264:	f7fe f8ea 	bl	800043c <DUPP>
 8002268:	f7fe f8ce 	bl	8000408 <CAT>
 800226c:	f7fe f88d 	bl	800038a <DOLIT>
 8002270:	00000003 	andeq	r0, r0, r3
 8002274:	f7fe fdb4 	bl	8000de0 <UDOTR>
 8002278:	f7fe f934 	bl	80004e4 <ONEP>

0800227c <PDUM2>:
 800227c:	f7fe f893 	bl	80003a6 <DONXT>
 8002280:	08002264 	stmdaeq	r0, {r2, r5, r6, r9, sp}
 8002284:	f852 fb04 	ldr.w	pc, [r2], #4

08002288 <FL_DUMP>:
 8002288:	f842 ed04 	str.w	lr, [r2, #-4]!
 800228c:	f7fe fa06 	bl	800069c <BASE>
 8002290:	f7fe f8b2 	bl	80003f8 <AT>
 8002294:	f7fe f8c4 	bl	8000420 <TOR>
 8002298:	f7fe fc3a 	bl	8000b10 <HEX>
 800229c:	f7fe f875 	bl	800038a <DOLIT>
 80022a0:	00000010 	andeq	r0, r0, r0, lsl r0
 80022a4:	f7fe fac6 	bl	8000834 <SLASH>
 80022a8:	f7fe f8ba 	bl	8000420 <TOR>
 80022ac:	f000 b814 	b.w	80022d8 <DUMP4>

080022b0 <DUMP1>:
 80022b0:	f7fe fd44 	bl	8000d3c <CR>
 80022b4:	f7fe f869 	bl	800038a <DOLIT>
 80022b8:	00000010 	andeq	r0, r0, r0, lsl r0
 80022bc:	f7fe f952 	bl	8000564 <DDUP>
 80022c0:	f7ff ffc0 	bl	8002244 <DMP>
 80022c4:	f7fe f942 	bl	800054c <ROT>
 80022c8:	f7fe f940 	bl	800054c <ROT>
 80022cc:	f7fe fd06 	bl	8000cdc <SPACE>
 80022d0:	f7fe fd04 	bl	8000cdc <SPACE>
 80022d4:	f7fe fd1e 	bl	8000d14 <TYPEE>

080022d8 <DUMP4>:
 80022d8:	f7fe f865 	bl	80003a6 <DONXT>
 80022dc:	080022b0 	stmdaeq	r0, {r4, r5, r7, r9, sp}

080022e0 <DUMP3>:
 80022e0:	f7fe f8a8 	bl	8000434 <DROP>
 80022e4:	f7fe f892 	bl	800040c <RFROM>
 80022e8:	f7fe f9d8 	bl	800069c <BASE>
 80022ec:	f7fe f87e 	bl	80003ec <STORE>
 80022f0:	f852 fb04 	ldr.w	pc, [r2], #4

080022f4 <FL_DOTS>:
 80022f4:	f842 ed04 	str.w	lr, [r2, #-4]!
 80022f8:	f7fe fcf0 	bl	8000cdc <SPACE>
 80022fc:	f7fe fae2 	bl	80008c4 <DEPTH>
 8002300:	f7fe f88e 	bl	8000420 <TOR>
 8002304:	f000 b806 	b.w	8002314 <DOTS2>

08002308 <DOTS1>:
 8002308:	f7fe f886 	bl	8000418 <RAT>
 800230c:	f7fe fae6 	bl	80008dc <PICK>
 8002310:	f7fe fd9e 	bl	8000e50 <DOT>

08002314 <DOTS2>:
 8002314:	f7fe f847 	bl	80003a6 <DONXT>
 8002318:	08002308 	stmdaeq	r0, {r3, r8, r9, sp}
 800231c:	f7fe fcde 	bl	8000cdc <SPACE>
 8002320:	f852 fb04 	ldr.w	pc, [r2], #4

08002324 <FL_TNAME>:
 8002324:	f842 ed04 	str.w	lr, [r2, #-4]!
 8002328:	f7fe f87a 	bl	8000420 <TOR>
 800232c:	f7fe f9de 	bl	80006ec <CNTXT>
 8002330:	f7fe f862 	bl	80003f8 <AT>

08002334 <TNAM1>:
 8002334:	f7fe f882 	bl	800043c <DUPP>
 8002338:	f7fe f844 	bl	80003c4 <QBRAN>
 800233c:	08002370 	stmdaeq	r0, {r4, r5, r6, r8, r9, sp}
 8002340:	f7fe f87c 	bl	800043c <DUPP>
 8002344:	f7fe feac 	bl	80010a0 <NAMET>
 8002348:	f7fe f866 	bl	8000418 <RAT>
 800234c:	f7fe f894 	bl	8000478 <XORR>
 8002350:	f7fe f81b 	bl	800038a <DOLIT>
 8002354:	00ffffff 	ldrshteq	pc, [pc], #255	; <UNPREDICTABLE>
 8002358:	f7fe f882 	bl	8000460 <ANDD>
 800235c:	f7fe f832 	bl	80003c4 <QBRAN>
 8002360:	08002370 	stmdaeq	r0, {r4, r5, r6, r8, r9, sp}
 8002364:	f7fe f8d2 	bl	800050c <CELLM>
 8002368:	f7fe f846 	bl	80003f8 <AT>
 800236c:	f7ff bfe2 	b.w	8002334 <TNAM1>

08002370 <TNAM2>:
 8002370:	f7fe f84c 	bl	800040c <RFROM>
 8002374:	f7fe f85e 	bl	8000434 <DROP>
 8002378:	f852 fb04 	ldr.w	pc, [r2], #4

0800237c <FL_DOTID>:
 800237c:	f842 ed04 	str.w	lr, [r2, #-4]!
 8002380:	f7fe f8de 	bl	8000540 <QDUP>
 8002384:	f7fe f81e 	bl	80003c4 <QBRAN>
 8002388:	080023a4 	stmdaeq	r0, {r2, r5, r7, r8, r9, sp}
 800238c:	f7fe f954 	bl	8000638 <COUNT>
 8002390:	f7fd fffb 	bl	800038a <DOLIT>
 8002394:	0000001f 	andeq	r0, r0, pc, lsl r0
 8002398:	f7fe f862 	bl	8000460 <ANDD>
 800239c:	f7fe fcba 	bl	8000d14 <TYPEE>
 80023a0:	f852 fb04 	ldr.w	pc, [r2], #4

080023a4 <DOTI1>:
 80023a4:	f7fe fd02 	bl	8000dac <DOTQP>
 80023a8:	6e7b2009 	cdpvs	0, 7, cr2, cr11, cr9, {0}
 80023ac:	6d614e6f 	stclvs	14, cr4, [r1, #-444]!	; 0xfffffe44
 80023b0:	bf007d65 	svclt	0x00007d65
 80023b4:	f852 fb04 	ldr.w	pc, [r2], #4

080023b8 <DOTCA>:
 80023b8:	f842 ed04 	str.w	lr, [r2, #-4]!
 80023bc:	f7fe f83e 	bl	800043c <DUPP>
 80023c0:	f7fe fd24 	bl	8000e0c <UDOT>
 80023c4:	f7fd ffe1 	bl	800038a <DOLIT>
 80023c8:	00000002 	andeq	r0, r0, r2
 80023cc:	f7fe fc8e 	bl	8000cec <SPACS>
 80023d0:	f852 fb04 	ldr.w	pc, [r2], #4

080023d4 <CODE_ABORT>:
 80023d4:	f842 ed04 	str.w	lr, [r2, #-4]!
 80023d8:	f7ff ffee 	bl	80023b8 <DOTCA>
 80023dc:	f7fe f82e 	bl	800043c <DUPP>
 80023e0:	f7fe f80a 	bl	80003f8 <AT>
 80023e4:	f7fd ffd1 	bl	800038a <DOLIT>
 80023e8:	f842 ed04 	str.w	lr, [r2, #-4]!
 80023ec:	f7fe f844 	bl	8000478 <XORR>
 80023f0:	f7fd ffe8 	bl	80003c4 <QBRAN>
 80023f4:	0800240c 	stmdaeq	r0, {r2, r3, sl, sp}
 80023f8:	f7fe fb96 	bl	8000b28 <DECIM>
 80023fc:	f7fe ffb0 	bl	8001360 <ABORQ>
 8002400:	646f6309 	strbtvs	r6, [pc], #-777	; 8002408 <CODE_ABORT+0x34>
 8002404:	6f772065 	svcvs	0x00772065
 8002408:	bf006472 	svclt	0x00006472
 800240c:	f7fe fcce 	bl	8000dac <DOTQP>
 8002410:	73656e04 	cmnvc	r5, #4, 28	; 0x40
 8002414:	bf000074 	svclt	0x00000074
 8002418:	f7fe fc90 	bl	8000d3c <CR>
 800241c:	f852 fb04 	ldr.w	pc, [r2], #4

08002420 <UNNESTQ>:
 8002420:	f842 ed04 	str.w	lr, [r2, #-4]!
 8002424:	f7fe f80a 	bl	800043c <DUPP>
 8002428:	f7fd ffe6 	bl	80003f8 <AT>
 800242c:	f7fd ffad 	bl	800038a <DOLIT>
 8002430:	f852 fb04 	ldr.w	pc, [r2], #4
 8002434:	f7fe f8bc 	bl	80005b0 <EQUAL>
 8002438:	f7fe f800 	bl	800043c <DUPP>
 800243c:	f7fd ffc2 	bl	80003c4 <QBRAN>
 8002440:	08002454 	stmdaeq	r0, {r2, r4, r6, sl, sp}
 8002444:	f7fe fcb2 	bl	8000dac <DOTQP>
 8002448:	6e6e7506 	cdpvs	5, 6, cr7, cr14, cr6, {0}
 800244c:	00747365 	rsbseq	r7, r4, r5, ror #6
 8002450:	f7fe fc74 	bl	8000d3c <CR>
 8002454:	f852 fb04 	ldr.w	pc, [r2], #4

08002458 <NONAMEQ>:
 8002458:	f842 ed04 	str.w	lr, [r2, #-4]!
 800245c:	f7fd ff95 	bl	800038a <DOLIT>
 8002460:	00000000 	andeq	r0, r0, r0
 8002464:	f7fd ffee 	bl	8000444 <SWAP>
 8002468:	f7fd ff8f 	bl	800038a <DOLIT>
 800246c:	0800331c 	stmdaeq	r0, {r2, r3, r4, r8, r9, ip, sp}
 8002470:	f7fd ffd6 	bl	8000420 <TOR>
 8002474:	f7fd ffe2 	bl	800043c <DUPP>
 8002478:	f7fd ffce 	bl	8000418 <RAT>
 800247c:	f7fd ffbc 	bl	80003f8 <AT>
 8002480:	f7fe f85e 	bl	8000540 <QDUP>
 8002484:	f7fd ff9e 	bl	80003c4 <QBRAN>
 8002488:	080024ec 	stmdaeq	r0, {r2, r3, r5, r6, r7, sl, sp}
 800248c:	f7fd fff4 	bl	8000478 <XORR>
 8002490:	f7fd ff7b 	bl	800038a <DOLIT>
 8002494:	00ffffff 	ldrshteq	pc, [pc], #255	; <UNPREDICTABLE>
 8002498:	f7fd ffe2 	bl	8000460 <ANDD>
 800249c:	f7fd ff92 	bl	80003c4 <QBRAN>
 80024a0:	080024b8 	stmdaeq	r0, {r3, r4, r5, r7, sl, sp}
 80024a4:	f7fd ffb2 	bl	800040c <RFROM>
 80024a8:	f7fe f82c 	bl	8000504 <CELLP>
 80024ac:	f7fd ffb8 	bl	8000420 <TOR>
 80024b0:	f7fd ff94 	bl	80003dc <BRAN>
 80024b4:	08002474 	stmdaeq	r0, {r2, r4, r5, r6, sl, sp}
 80024b8:	f7fd ffa8 	bl	800040c <RFROM>
 80024bc:	f7fd ff65 	bl	800038a <DOLIT>
 80024c0:	0800331c 	stmdaeq	r0, {r2, r3, r4, r8, r9, ip, sp}
 80024c4:	f7fd fff6 	bl	80004b4 <SUBB>
 80024c8:	f7fd ff5f 	bl	800038a <DOLIT>
 80024cc:	08003358 	stmdaeq	r0, {r3, r4, r6, r8, r9, ip, sp}
 80024d0:	f7fd ffec 	bl	80004ac <PLUS>
 80024d4:	f7fd ff90 	bl	80003f8 <AT>
 80024d8:	f7fd ffb4 	bl	8000444 <SWAP>
 80024dc:	f7fd ffaa 	bl	8000434 <DROP>
 80024e0:	f7fd ffb0 	bl	8000444 <SWAP>
 80024e4:	f7fe f84e 	bl	8000584 <INVER>
 80024e8:	f852 fb04 	ldr.w	pc, [r2], #4
 80024ec:	f7fd ffa2 	bl	8000434 <DROP>
 80024f0:	f7fd ffa8 	bl	8000444 <SWAP>
 80024f4:	f7fd ff8a 	bl	800040c <RFROM>
 80024f8:	f7fd ff9c 	bl	8000434 <DROP>
 80024fc:	f852 fb04 	ldr.w	pc, [r2], #4

08002500 <DOTNONAME>:
 8002500:	f842 ed04 	str.w	lr, [r2, #-4]!
 8002504:	f841 5d04 	str.w	r5, [r1, #-4]!
 8002508:	f7fd ff3f 	bl	800038a <DOLIT>
 800250c:	08003358 	stmdaeq	r0, {r3, r4, r6, r8, r9, ip, sp}
 8002510:	f7fd ffcc 	bl	80004ac <PLUS>
 8002514:	f7fd ff70 	bl	80003f8 <AT>
 8002518:	f7fe fbfc 	bl	8000d14 <TYPEE>
 800251c:	f852 fb04 	ldr.w	pc, [r2], #4

08002520 <IS_BLW>:
 8002520:	f842 ed04 	str.w	lr, [r2, #-4]!
 8002524:	f7fd ff31 	bl	800038a <DOLIT>
 8002528:	d000f000 	andle	pc, r0, r0
 800252c:	f7fd ff86 	bl	800043c <DUPP>
 8002530:	f7fd ff76 	bl	8000420 <TOR>
 8002534:	f7fd ff94 	bl	8000460 <ANDD>
 8002538:	f7fd ff68 	bl	800040c <RFROM>
 800253c:	f7fe f838 	bl	80005b0 <EQUAL>
 8002540:	f852 fb04 	ldr.w	pc, [r2], #4

08002544 <FL_SEE>:
 8002544:	f842 ed04 	str.w	lr, [r2, #-4]!
 8002548:	f7fe f8a8 	bl	800069c <BASE>
 800254c:	f7fd ff54 	bl	80003f8 <AT>
 8002550:	f7fd ff66 	bl	8000420 <TOR>
 8002554:	f7fe fadc 	bl	8000b10 <HEX>
 8002558:	f7ff f95a 	bl	8001810 <TICK>
 800255c:	f7fe fbee 	bl	8000d3c <CR>
 8002560:	f7ff ff38 	bl	80023d4 <CODE_ABORT>
 8002564:	f000 f808 	bl	8002578 <FL_SCOL>
 8002568:	f7fd ff50 	bl	800040c <RFROM>
 800256c:	f7fe f896 	bl	800069c <BASE>
 8002570:	f7fd ff3c 	bl	80003ec <STORE>
 8002574:	f852 fb04 	ldr.w	pc, [r2], #4

08002578 <FL_SCOL>:
 8002578:	f842 ed04 	str.w	lr, [r2, #-4]!
 800257c:	f7fd ff05 	bl	800038a <DOLIT>
 8002580:	00000009 	andeq	r0, r0, r9
 8002584:	f7fd ff4c 	bl	8000420 <TOR>

08002588 <SCOL1>:
 8002588:	f7fd ffbc 	bl	8000504 <CELLP>
 800258c:	f7ff ff14 	bl	80023b8 <DOTCA>
 8002590:	f7ff ff46 	bl	8002420 <UNNESTQ>
 8002594:	f7fd ff16 	bl	80003c4 <QBRAN>
 8002598:	080025c8 	stmdaeq	r0, {r3, r6, r7, r8, sl, sp}
 800259c:	f7fd ff4e 	bl	800043c <DUPP>
 80025a0:	f7fd ffb0 	bl	8000504 <CELLP>
 80025a4:	f7fd ff28 	bl	80003f8 <AT>
 80025a8:	f7ff ffba 	bl	8002520 <IS_BLW>
 80025ac:	f7fd ffea 	bl	8000584 <INVER>
 80025b0:	f7fd ff08 	bl	80003c4 <QBRAN>
 80025b4:	08002588 	stmdaeq	r0, {r3, r7, r8, sl, sp}
 80025b8:	f7fd ff28 	bl	800040c <RFROM>
 80025bc:	f7fd ff3a 	bl	8000434 <DROP>
 80025c0:	f7fd ff0c 	bl	80003dc <BRAN>
 80025c4:	080025dc 	stmdaeq	r0, {r2, r3, r4, r6, r7, r8, sl, sp}
 80025c8:	f7fd ff38 	bl	800043c <DUPP>
 80025cc:	f000 f82c 	bl	8002628 <FL_DECOMP>
 80025d0:	f7fe fbb4 	bl	8000d3c <CR>
 80025d4:	f7fd fee7 	bl	80003a6 <DONXT>
 80025d8:	08002588 	stmdaeq	r0, {r3, r7, r8, sl, sp}
 80025dc:	f7fd ff2a 	bl	8000434 <DROP>
 80025e0:	f852 fb04 	ldr.w	pc, [r2], #4

080025e4 <BLADR>:
 80025e4:	ea4f 0405 	mov.w	r4, r5
 80025e8:	ea4f 4434 	mov.w	r4, r4, ror #16
 80025ec:	f364 050a 	bfi	r5, r4, #0, #11
 80025f0:	ea4f 24e4 	mov.w	r4, r4, asr #11
 80025f4:	f364 5555 	bfi	r5, r4, #21, #1
 80025f8:	ea4f 04a4 	mov.w	r4, r4, asr #2
 80025fc:	f364 5596 	bfi	r5, r4, #22, #1
 8002600:	ea4f 04e4 	mov.w	r4, r4, asr #3
 8002604:	f364 25d4 	bfi	r5, r4, #11, #10
 8002608:	ea4f 24a4 	mov.w	r4, r4, asr #10
 800260c:	f364 55d7 	bfi	r5, r4, #23, #1
 8002610:	f415 0f00 	tst.w	r5, #8388608	; 0x800000
 8002614:	f040 8002 	bne.w	800261c <BLADR+0x38>
 8002618:	f485 05c0 	eor.w	r5, r5, #6291456	; 0x600000
 800261c:	ea4f 2505 	mov.w	r5, r5, lsl #8
 8002620:	ea4f 15e5 	mov.w	r5, r5, asr #7
 8002624:	4770      	bx	lr
 8002626:	bf00      	nop

08002628 <FL_DECOMP>:
 8002628:	f842 ed04 	str.w	lr, [r2, #-4]!
 800262c:	f7fd ff06 	bl	800043c <DUPP>
 8002630:	f7fd fee2 	bl	80003f8 <AT>
 8002634:	f7fd ff02 	bl	800043c <DUPP>
 8002638:	f7ff ff72 	bl	8002520 <IS_BLW>
 800263c:	f7fd fec2 	bl	80003c4 <QBRAN>
 8002640:	080026a0 	stmdaeq	r0, {r5, r7, r9, sl, sp}
 8002644:	f7fe fbb2 	bl	8000dac <DOTQP>
 8002648:	204c4203 	subcs	r4, ip, r3, lsl #4
 800264c:	f7ff ffca 	bl	80025e4 <BLADR>
 8002650:	f7fd fefc 	bl	800044c <OVER>
 8002654:	f7fd ff2a 	bl	80004ac <PLUS>
 8002658:	f7fd ff54 	bl	8000504 <CELLP>
 800265c:	f7ff feac 	bl	80023b8 <DOTCA>
 8002660:	f7ff fefa 	bl	8002458 <NONAMEQ>
 8002664:	f7fd feae 	bl	80003c4 <QBRAN>
 8002668:	08002674 	stmdaeq	r0, {r2, r4, r5, r6, r9, sl, sp}
 800266c:	f7fd feb6 	bl	80003dc <BRAN>
 8002670:	08002678 	stmdaeq	r0, {r3, r4, r5, r6, r9, sl, sp}

08002674 <DECOMP1>:
 8002674:	f7ff fe56 	bl	8002324 <FL_TNAME>

08002678 <DECOMP3>:
 8002678:	f7ff fe80 	bl	800237c <FL_DOTID>
 800267c:	f7fd feda 	bl	8000434 <DROP>
 8002680:	f7fd fec4 	bl	800040c <RFROM>
 8002684:	f7fd fec2 	bl	800040c <RFROM>
 8002688:	f7fd fed4 	bl	8000434 <DROP>
 800268c:	f7fd fe7d 	bl	800038a <DOLIT>
 8002690:	00000009 	andeq	r0, r0, r9
 8002694:	f7fd fec4 	bl	8000420 <TOR>
 8002698:	f7fd fec2 	bl	8000420 <TOR>
 800269c:	f852 fb04 	ldr.w	pc, [r2], #4

080026a0 <DECOM2>:
 80026a0:	f7fe fbb4 	bl	8000e0c <UDOT>
 80026a4:	f7fd fec6 	bl	8000434 <DROP>
 80026a8:	f852 fb04 	ldr.w	pc, [r2], #4

080026ac <FL_WORDS>:
 80026ac:	f842 ed04 	str.w	lr, [r2, #-4]!
 80026b0:	f7fe fb44 	bl	8000d3c <CR>
 80026b4:	f7fe f81a 	bl	80006ec <CNTXT>
 80026b8:	f7fd fe9e 	bl	80003f8 <AT>

080026bc <WORS1>:
 80026bc:	f7fd ff40 	bl	8000540 <QDUP>
 80026c0:	f7fd fe80 	bl	80003c4 <QBRAN>
 80026c4:	080026e0 	stmdaeq	r0, {r5, r6, r7, r9, sl, sp}
 80026c8:	f7fd feb8 	bl	800043c <DUPP>
 80026cc:	f7fe fb06 	bl	8000cdc <SPACE>
 80026d0:	f7ff fe54 	bl	800237c <FL_DOTID>
 80026d4:	f7fd ff1a 	bl	800050c <CELLM>
 80026d8:	f7fd fe8e 	bl	80003f8 <AT>
 80026dc:	f7ff bfee 	b.w	80026bc <WORS1>

080026e0 <WORS2>:
 80026e0:	f852 fb04 	ldr.w	pc, [r2], #4

080026e4 <LF_RSTIVEC>:
 80026e4:	0000      	movs	r0, r0
	...

080026e8 <_RSTIVEC>:
 80026e8:	5208      	strh	r0, [r1, r0]
 80026ea:	5453      	strb	r3, [r2, r1]
 80026ec:	492d      	ldr	r1, [pc, #180]	; (80027a4 <_CSTOR>)
 80026ee:	4556      	cmp	r6, sl
 80026f0:	0043      	lsls	r3, r0, #1
	...

080026f4 <CA_RSTIVEC>:
 80026f4:	20000270 	andcs	r0, r0, r0, ror r2

080026f8 <LF_SETIVEC>:
 80026f8:	080026e8 	stmdaeq	r0, {r3, r5, r6, r7, r9, sl, sp}

080026fc <_SETIVEC>:
 80026fc:	54455308 	strbpl	r5, [r5], #-776	; 0xfffffcf8
 8002700:	4556492d 	ldrbmi	r4, [r6, #-2349]	; 0xfffff6d3
 8002704:	00000043 	andeq	r0, r0, r3, asr #32

08002708 <CA_SETIVEC>:
 8002708:	20000298 	mulcs	r0, r8, r2

0800270c <LF_RAND>:
 800270c:	080026fc 	stmdaeq	r0, {r2, r3, r4, r5, r6, r7, r9, sl, sp}

08002710 <_RAND>:
 8002710:	4e415206 	cdpmi	2, 4, cr5, cr1, cr6, {0}
 8002714:	004d4f44 	subeq	r4, sp, r4, asr #30

08002718 <CA_RAND>:
 8002718:	200002c0 	andcs	r0, r0, r0, asr #5

0800271c <LF_PAUSE>:
 800271c:	08002710 	stmdaeq	r0, {r4, r8, r9, sl, sp}

08002720 <_PAUSE>:
 8002720:	55415005 	strbpl	r5, [r1, #-5]
 8002724:	00004553 	andeq	r4, r0, r3, asr r5

08002728 <CA_PAUSE>:
 8002728:	20000300 	andcs	r0, r0, r0, lsl #6

0800272c <LF_ULED>:
 800272c:	08002720 	stmdaeq	r0, {r5, r8, r9, sl, sp}

08002730 <_ULED>:
 8002730:	454c5504 	strbmi	r5, [ip, #-1284]	; 0xfffffafc
 8002734:	00000044 	andeq	r0, r0, r4, asr #32

08002738 <CA_ULED>:
 8002738:	20000328 	andcs	r0, r0, r8, lsr #6

0800273c <LF_QRX>:
 800273c:	08002730 	stmdaeq	r0, {r4, r5, r8, r9, sl, sp}

08002740 <_QRX>:
 8002740:	454b3f04 	strbmi	r3, [fp, #-3844]	; 0xfffff0fc
 8002744:	00000059 	andeq	r0, r0, r9, asr r0

08002748 <CA_QRX>:
 8002748:	20000344 	andcs	r0, r0, r4, asr #6

0800274c <LF_EMIT>:
 800274c:	08002740 	stmdaeq	r0, {r6, r8, r9, sl, sp}

08002750 <_EMIT>:
 8002750:	494d4504 	stmdbmi	sp, {r2, r8, sl, lr}^
 8002754:	00000054 	andeq	r0, r0, r4, asr r0

08002758 <CA_EMIT>:
 8002758:	20000370 	andcs	r0, r0, r0, ror r3

0800275c <LF_NOP>:
 800275c:	08002750 	stmdaeq	r0, {r4, r6, r8, r9, sl, sp}

08002760 <_NOP>:
 8002760:	504f4e03 	subpl	r4, pc, r3, lsl #28

08002764 <CA_NOP>:
 8002764:	20000388 	andcs	r0, r0, r8, lsl #7

08002768 <LF_EXECU>:
 8002768:	08002760 	stmdaeq	r0, {r5, r6, r8, r9, sl, sp}

0800276c <_EXECU>:
 800276c:	45584507 	ldrbmi	r4, [r8, #-1287]	; 0xfffffaf9
 8002770:	45545543 	ldrbmi	r5, [r4, #-1347]	; 0xfffffabd

08002774 <CA_EXECU>:
 8002774:	2000039c 	mulcs	r0, ip, r3

08002778 <LF_EXIT>:
 8002778:	0800276c 	stmdaeq	r0, {r2, r3, r5, r6, r8, r9, sl, sp}

0800277c <_EXIT>:
 800277c:	49584504 	ldmdbmi	r8, {r2, r8, sl, lr}^
 8002780:	00000054 	andeq	r0, r0, r4, asr r0

08002784 <CA_EXIT>:
 8002784:	200003e8 	andcs	r0, r0, r8, ror #7

08002788 <LF_STORE>:
 8002788:	0800277c 	stmdaeq	r0, {r2, r3, r4, r5, r6, r8, r9, sl, sp}

0800278c <_STORE>:
 800278c:	00002101 	andeq	r2, r0, r1, lsl #2

08002790 <CA_STORE>:
 8002790:	200003ec 	andcs	r0, r0, ip, ror #7

08002794 <LF_AT>:
 8002794:	0800278c 	stmdaeq	r0, {r2, r3, r7, r8, r9, sl, sp}

08002798 <_AT>:
 8002798:	00004001 	andeq	r4, r0, r1

0800279c <CA_AT>:
 800279c:	200003f8 	strdcs	r0, [r0], -r8

080027a0 <LF_CSTOR>:
 80027a0:	08002798 	stmdaeq	r0, {r3, r4, r7, r8, r9, sl, sp}

080027a4 <_CSTOR>:
 80027a4:	00214302 	eoreq	r4, r1, r2, lsl #6

080027a8 <CA_CSTOR>:
 80027a8:	200003fc 	strdcs	r0, [r0], -ip

080027ac <LF_CAT>:
 80027ac:	080027a4 	stmdaeq	r0, {r2, r5, r7, r8, r9, sl, sp}

080027b0 <_CAT>:
 80027b0:	00404302 	subeq	r4, r0, r2, lsl #6

080027b4 <CA_CAT>:
 80027b4:	20000408 	andcs	r0, r0, r8, lsl #8

080027b8 <LF_RFROM>:
 80027b8:	080027b0 	stmdaeq	r0, {r4, r5, r7, r8, r9, sl, sp}

080027bc <_RFROM>:
 80027bc:	003e5202 	eorseq	r5, lr, r2, lsl #4

080027c0 <CA_RFROM>:
 80027c0:	2000040c 	andcs	r0, r0, ip, lsl #8

080027c4 <LF_RAT>:
 80027c4:	080027bc 	stmdaeq	r0, {r2, r3, r4, r5, r7, r8, r9, sl, sp}

080027c8 <_RAT>:
 80027c8:	00405202 	subeq	r5, r0, r2, lsl #4

080027cc <CA_RAT>:
 80027cc:	20000418 	andcs	r0, r0, r8, lsl r4

080027d0 <LF_TOR>:
 80027d0:	080027c8 	stmdaeq	r0, {r3, r6, r7, r8, r9, sl, sp}

080027d4 <_TOR>:
 80027d4:	00523e42 	subseq	r3, r2, r2, asr #28

080027d8 <CA_TOR>:
 80027d8:	20000420 	andcs	r0, r0, r0, lsr #8

080027dc <LF_SPAT>:
 80027dc:	080027d4 	stmdaeq	r0, {r2, r4, r6, r7, r8, r9, sl, sp}

080027e0 <_SPAT>:
 80027e0:	40505303 	subsmi	r5, r0, r3, lsl #6

080027e4 <CA_SPAT>:
 80027e4:	2000042c 	andcs	r0, r0, ip, lsr #8

080027e8 <LF_DROP>:
 80027e8:	080027e0 	stmdaeq	r0, {r5, r6, r7, r8, r9, sl, sp}

080027ec <_DROP>:
 80027ec:	4f524404 	svcmi	0x00524404
 80027f0:	00000050 	andeq	r0, r0, r0, asr r0

080027f4 <CA_DROP>:
 80027f4:	20000434 	andcs	r0, r0, r4, lsr r4

080027f8 <LF_DUPP>:
 80027f8:	080027ec 	stmdaeq	r0, {r2, r3, r5, r6, r7, r8, r9, sl, sp}

080027fc <_DUPP>:
 80027fc:	50554403 	subspl	r4, r5, r3, lsl #8

08002800 <CA_DUPP>:
 8002800:	2000043c 	andcs	r0, r0, ip, lsr r4

08002804 <LF_SWAP>:
 8002804:	080027fc 	stmdaeq	r0, {r2, r3, r4, r5, r6, r7, r8, r9, sl, sp}

08002808 <_SWAP>:
 8002808:	41575304 	cmpmi	r7, r4, lsl #6
 800280c:	00000050 	andeq	r0, r0, r0, asr r0

08002810 <CA_SWAP>:
 8002810:	20000444 	andcs	r0, r0, r4, asr #8

08002814 <LF_OVER>:
 8002814:	08002808 	stmdaeq	r0, {r3, fp, sp}

08002818 <_OVER>:
 8002818:	45564f04 	ldrbmi	r4, [r6, #-3844]	; 0xfffff0fc
 800281c:	00000052 	andeq	r0, r0, r2, asr r0

08002820 <CA_OVER>:
 8002820:	2000044c 	andcs	r0, r0, ip, asr #8

08002824 <LF_ZLESS>:
 8002824:	08002818 	stmdaeq	r0, {r3, r4, fp, sp}

08002828 <_ZLESS>:
 8002828:	003c3002 	eorseq	r3, ip, r2

0800282c <CA_ZLESS>:
 800282c:	20000454 	andcs	r0, r0, r4, asr r4

08002830 <LF_ANDD>:
 8002830:	08002828 	stmdaeq	r0, {r3, r5, fp, sp}

08002834 <_ANDD>:
 8002834:	444e4103 	strbmi	r4, [lr], #-259	; 0xfffffefd

08002838 <CA_ANDD>:
 8002838:	20000460 	andcs	r0, r0, r0, ror #8

0800283c <LF_ORR>:
 800283c:	08002834 	stmdaeq	r0, {r2, r4, r5, fp, sp}

08002840 <_ORR>:
 8002840:	00524f02 	subseq	r4, r2, r2, lsl #30

08002844 <CA_ORR>:
 8002844:	2000046c 	andcs	r0, r0, ip, ror #8

08002848 <LF_XORR>:
 8002848:	08002840 	stmdaeq	r0, {r6, fp, sp}

0800284c <_XORR>:
 800284c:	524f5803 	subpl	r5, pc, #196608	; 0x30000

08002850 <CA_XORR>:
 8002850:	20000478 	andcs	r0, r0, r8, ror r4

08002854 <LF_UPLUS>:
 8002854:	0800284c 	stmdaeq	r0, {r2, r3, r6, fp, sp}

08002858 <_UPLUS>:
 8002858:	2b4d5503 	blcs	9357c6c <OPTKEY1+0x11c5231>

0800285c <CA_UPLUS>:
 800285c:	20000484 	andcs	r0, r0, r4, lsl #9

08002860 <LF_RSHIFT>:
 8002860:	08002858 	stmdaeq	r0, {r3, r4, r6, fp, sp}

08002864 <_RSHIFT>:
 8002864:	48535206 	ldmdami	r3, {r1, r2, r9, ip, lr}^
 8002868:	00544649 	subseq	r4, r4, r9, asr #12

0800286c <CA_RSHIFT>:
 800286c:	20000494 	mulcs	r0, r4, r4

08002870 <LF_LSHIFT>:
 8002870:	08002864 	stmdaeq	r0, {r2, r5, r6, fp, sp}

08002874 <_LSHIFT>:
 8002874:	48534c06 	ldmdami	r3, {r1, r2, sl, fp, lr}^
 8002878:	00544649 	subseq	r4, r4, r9, asr #12

0800287c <CA_LSHIFT>:
 800287c:	200004a0 	andcs	r0, r0, r0, lsr #9

08002880 <LF_PLUS>:
 8002880:	08002874 	stmdaeq	r0, {r2, r4, r5, r6, fp, sp}

08002884 <_PLUS>:
 8002884:	00002b01 	andeq	r2, r0, r1, lsl #22

08002888 <CA_PLUS>:
 8002888:	200004ac 	andcs	r0, r0, ip, lsr #9

0800288c <LF_SUBB>:
 800288c:	08002884 	stmdaeq	r0, {r2, r7, fp, sp}

08002890 <_SUBB>:
 8002890:	00002d01 	andeq	r2, r0, r1, lsl #26

08002894 <CA_SUBB>:
 8002894:	200004b4 			; <UNDEFINED> instruction: 0x200004b4

08002898 <LF_STAR>:
 8002898:	08002890 	stmdaeq	r0, {r4, r7, fp, sp}

0800289c <_STAR>:
 800289c:	00002a01 	andeq	r2, r0, r1, lsl #20

080028a0 <CA_STAR>:
 80028a0:	200004c0 	andcs	r0, r0, r0, asr #9

080028a4 <LF_UMSTA>:
 80028a4:	0800289c 	stmdaeq	r0, {r2, r3, r4, r7, fp, sp}

080028a8 <_UMSTA>:
 80028a8:	2a4d5503 	bcs	9357cbc <OPTKEY1+0x11c5281>

080028ac <CA_UMSTA>:
 80028ac:	200004cc 	andcs	r0, r0, ip, asr #9

080028b0 <LF_MSTAR>:
 80028b0:	080028a8 	stmdaeq	r0, {r3, r5, r7, fp, sp}

080028b4 <_MSTAR>:
 80028b4:	002a4d02 	eoreq	r4, sl, r2, lsl #26

080028b8 <CA_MSTAR>:
 80028b8:	200004d8 	ldrdcs	r0, [r0], -r8

080028bc <LF_ONEP>:
 80028bc:	080028b4 	stmdaeq	r0, {r2, r4, r5, r7, fp, sp}

080028c0 <_ONEP>:
 80028c0:	002b3102 	eoreq	r3, fp, r2, lsl #2

080028c4 <CA_ONEP>:
 80028c4:	200004e4 	andcs	r0, r0, r4, ror #9

080028c8 <LF_ONEM>:
 80028c8:	080028c0 	stmdaeq	r0, {r6, r7, fp, sp}

080028cc <_ONEM>:
 80028cc:	002d3102 	eoreq	r3, sp, r2, lsl #2

080028d0 <CA_ONEM>:
 80028d0:	200004ec 	andcs	r0, r0, ip, ror #9

080028d4 <LF_TWOP>:
 80028d4:	080028cc 	stmdaeq	r0, {r2, r3, r6, r7, fp, sp}

080028d8 <_TWOP>:
 80028d8:	002b3202 	eoreq	r3, fp, r2, lsl #4

080028dc <CA_TWOP>:
 80028dc:	200004f4 	strdcs	r0, [r0], -r4

080028e0 <LF_TWOM>:
 80028e0:	080028d8 	stmdaeq	r0, {r3, r4, r6, r7, fp, sp}

080028e4 <_TWOM>:
 80028e4:	002d3202 	eoreq	r3, sp, r2, lsl #4

080028e8 <CA_TWOM>:
 80028e8:	200004fc 	strdcs	r0, [r0], -ip

080028ec <LF_CELLP>:
 80028ec:	080028e4 	stmdaeq	r0, {r2, r5, r6, r7, fp, sp}

080028f0 <_CELLP>:
 80028f0:	4c454305 	mcrrmi	3, 0, r4, r5, cr5
 80028f4:	00002b4c 	andeq	r2, r0, ip, asr #22

080028f8 <CA_CELLP>:
 80028f8:	20000504 	andcs	r0, r0, r4, lsl #10

080028fc <LF_CELLM>:
 80028fc:	080028f0 	stmdaeq	r0, {r4, r5, r6, r7, fp, sp}

08002900 <_CELLM>:
 8002900:	4c454305 	mcrrmi	3, 0, r4, r5, cr5
 8002904:	00002d4c 	andeq	r2, r0, ip, asr #26

08002908 <CA_CELLM>:
 8002908:	2000050c 	andcs	r0, r0, ip, lsl #10

0800290c <LF_BLANK>:
 800290c:	08002900 	stmdaeq	r0, {r8, fp, sp}

08002910 <_BLANK>:
 8002910:	004c4202 	subeq	r4, ip, r2, lsl #4

08002914 <CA_BLANK>:
 8002914:	20000514 	andcs	r0, r0, r4, lsl r5

08002918 <LF_CELLS>:
 8002918:	08002910 	stmdaeq	r0, {r4, r8, fp, sp}

0800291c <_CELLS>:
 800291c:	4c454305 	mcrrmi	3, 0, r4, r5, cr5
 8002920:	0000534c 	andeq	r5, r0, ip, asr #6

08002924 <CA_CELLS>:
 8002924:	20000520 	andcs	r0, r0, r0, lsr #10

08002928 <LF_CELLSL>:
 8002928:	0800291c 	stmdaeq	r0, {r2, r3, r4, r8, fp, sp}

0800292c <_CELLSL>:
 800292c:	4c454305 	mcrrmi	3, 0, r4, r5, cr5
 8002930:	00002f4c 	andeq	r2, r0, ip, asr #30

08002934 <CA_CELLSL>:
 8002934:	20000528 	andcs	r0, r0, r8, lsr #10

08002938 <LF_TWOST>:
 8002938:	0800292c 	stmdaeq	r0, {r2, r3, r5, r8, fp, sp}

0800293c <_TWOST>:
 800293c:	002a3202 	eoreq	r3, sl, r2, lsl #4

08002940 <CA_TWOST>:
 8002940:	20000530 	andcs	r0, r0, r0, lsr r5

08002944 <LF_TWOSL>:
 8002944:	0800293c 	stmdaeq	r0, {r2, r3, r4, r5, r8, fp, sp}

08002948 <_TWOSL>:
 8002948:	002f3202 	eoreq	r3, pc, r2, lsl #4

0800294c <CA_TWOSL>:
 800294c:	20000538 	andcs	r0, r0, r8, lsr r5

08002950 <LF_QDUP>:
 8002950:	08002948 	stmdaeq	r0, {r3, r6, r8, fp, sp}

08002954 <_QDUP>:
 8002954:	55443f04 	strbpl	r3, [r4, #-3844]	; 0xfffff0fc
 8002958:	00000050 	andeq	r0, r0, r0, asr r0

0800295c <CA_QDUP>:
 800295c:	20000540 	andcs	r0, r0, r0, asr #10

08002960 <LF_ROT>:
 8002960:	08002954 	stmdaeq	r0, {r2, r4, r6, r8, fp, sp}

08002964 <_ROT>:
 8002964:	544f5203 	strbpl	r5, [pc], #-515	; 800296c <LF_DDROP>

08002968 <CA_ROT>:
 8002968:	2000054c 	andcs	r0, r0, ip, asr #10

0800296c <LF_DDROP>:
 800296c:	08002964 	stmdaeq	r0, {r2, r5, r6, r8, fp, sp}

08002970 <_DDROP>:
 8002970:	52443205 	subpl	r3, r4, #1342177280	; 0x50000000
 8002974:	0000504f 	andeq	r5, r0, pc, asr #32

08002978 <CA_DDROP>:
 8002978:	20000558 	andcs	r0, r0, r8, asr r5

0800297c <LF_DDUP>:
 800297c:	08002970 	stmdaeq	r0, {r4, r5, r6, r8, fp, sp}

08002980 <_DDUP>:
 8002980:	55443204 	strbpl	r3, [r4, #-516]	; 0xfffffdfc
 8002984:	00000050 	andeq	r0, r0, r0, asr r0

08002988 <CA_DDUP>:
 8002988:	20000564 	andcs	r0, r0, r4, ror #10

0800298c <LF_DPLUS>:
 800298c:	08002980 	stmdaeq	r0, {r7, r8, fp, sp}

08002990 <_DPLUS>:
 8002990:	002b4402 	eoreq	r4, fp, r2, lsl #8

08002994 <CA_DPLUS>:
 8002994:	20000570 	andcs	r0, r0, r0, ror r5

08002998 <LF_INVER>:
 8002998:	08002990 	stmdaeq	r0, {r4, r7, r8, fp, sp}

0800299c <_INVER>:
 800299c:	544f4e03 	strbpl	r4, [pc], #-3587	; 80029a4 <LF_NEGAT>

080029a0 <CA_INVER>:
 80029a0:	20000584 	andcs	r0, r0, r4, lsl #11

080029a4 <LF_NEGAT>:
 80029a4:	0800299c 	stmdaeq	r0, {r2, r3, r4, r7, r8, fp, sp}

080029a8 <_NEGAT>:
 80029a8:	47454e06 	strbmi	r4, [r5, -r6, lsl #28]
 80029ac:	00455441 	subeq	r5, r5, r1, asr #8

080029b0 <CA_NEGAT>:
 80029b0:	2000058c 	andcs	r0, r0, ip, lsl #11

080029b4 <LF_ABSS>:
 80029b4:	080029a8 	stmdaeq	r0, {r3, r5, r7, r8, fp, sp}

080029b8 <_ABSS>:
 80029b8:	53424103 	movtpl	r4, #8451	; 0x2103

080029bc <CA_ABSS>:
 80029bc:	20000594 	mulcs	r0, r4, r5

080029c0 <LF_ZEQUAL>:
 80029c0:	080029b8 	stmdaeq	r0, {r3, r4, r5, r7, r8, fp, sp}

080029c4 <_ZEQUAL>:
 80029c4:	003d3002 	eorseq	r3, sp, r2

080029c8 <CA_ZEQUAL>:
 80029c8:	200005a0 	andcs	r0, r0, r0, lsr #11

080029cc <LF_EQUAL>:
 80029cc:	080029c4 	stmdaeq	r0, {r2, r6, r7, r8, fp, sp}

080029d0 <_EQUAL>:
 80029d0:	00003d01 	andeq	r3, r0, r1, lsl #26

080029d4 <CA_EQUAL>:
 80029d4:	200005b0 			; <UNDEFINED> instruction: 0x200005b0

080029d8 <LF_ULESS>:
 80029d8:	080029d0 	stmdaeq	r0, {r4, r6, r7, r8, fp, sp}

080029dc <_ULESS>:
 80029dc:	003c5502 	eorseq	r5, ip, r2, lsl #10

080029e0 <CA_ULESS>:
 80029e0:	200005c0 	andcs	r0, r0, r0, asr #11

080029e4 <LF_LESS>:
 80029e4:	080029dc 	stmdaeq	r0, {r2, r3, r4, r6, r7, r8, fp, sp}

080029e8 <_LESS>:
 80029e8:	00003c01 	andeq	r3, r0, r1, lsl #24

080029ec <CA_LESS>:
 80029ec:	200005d0 	ldrdcs	r0, [r0], -r0	; <UNPREDICTABLE>

080029f0 <LF_GREAT>:
 80029f0:	080029e8 	stmdaeq	r0, {r3, r5, r6, r7, r8, fp, sp}

080029f4 <_GREAT>:
 80029f4:	00003e01 	andeq	r3, r0, r1, lsl #28

080029f8 <CA_GREAT>:
 80029f8:	200005e0 	andcs	r0, r0, r0, ror #11

080029fc <LF_MAX>:
 80029fc:	080029f4 	stmdaeq	r0, {r2, r4, r5, r6, r7, r8, fp, sp}

08002a00 <_MAX>:
 8002a00:	58414d03 	stmdapl	r1, {r0, r1, r8, sl, fp, lr}^

08002a04 <CA_MAX>:
 8002a04:	200005f0 	strdcs	r0, [r0], -r0	; <UNPREDICTABLE>

08002a08 <LF_MIN>:
 8002a08:	08002a00 	stmdaeq	r0, {r9, fp, sp}

08002a0c <_MIN>:
 8002a0c:	4e494d03 	cdpmi	13, 4, cr4, cr9, cr3, {0}

08002a10 <CA_MIN>:
 8002a10:	200005fc 	strdcs	r0, [r0], -ip

08002a14 <LF_PSTOR>:
 8002a14:	08002a0c 	stmdaeq	r0, {r2, r3, r9, fp, sp}

08002a18 <_PSTOR>:
 8002a18:	00212b02 	eoreq	r2, r1, r2, lsl #22

08002a1c <CA_PSTOR>:
 8002a1c:	20000608 	andcs	r0, r0, r8, lsl #12

08002a20 <LF_DSTOR>:
 8002a20:	08002a18 	stmdaeq	r0, {r3, r4, r9, fp, sp}

08002a24 <_DSTOR>:
 8002a24:	00213202 	eoreq	r3, r1, r2, lsl #4

08002a28 <CA_DSTOR>:
 8002a28:	20000618 	andcs	r0, r0, r8, lsl r6

08002a2c <LF_DAT>:
 8002a2c:	08002a24 	stmdaeq	r0, {r2, r5, r9, fp, sp}

08002a30 <_DAT>:
 8002a30:	00403202 	subeq	r3, r0, r2, lsl #4

08002a34 <CA_DAT>:
 8002a34:	2000062c 	andcs	r0, r0, ip, lsr #12

08002a38 <LF_COUNT>:
 8002a38:	08002a30 	stmdaeq	r0, {r4, r5, r9, fp, sp}

08002a3c <_COUNT>:
 8002a3c:	554f4305 	strbpl	r4, [pc, #-773]	; 800273f <LF_QRX+0x3>
 8002a40:	0000544e 	andeq	r5, r0, lr, asr #8

08002a44 <CA_COUNT>:
 8002a44:	20000638 	andcs	r0, r0, r8, lsr r6

08002a48 <LF_DNEGA>:
 8002a48:	08002a3c 	stmdaeq	r0, {r2, r3, r4, r5, r9, fp, sp}

08002a4c <_DNEGA>:
 8002a4c:	454e4407 	strbmi	r4, [lr, #-1031]	; 0xfffffbf9
 8002a50:	45544147 	ldrbmi	r4, [r4, #-327]	; 0xfffffeb9

08002a54 <CA_DNEGA>:
 8002a54:	20000644 	andcs	r0, r0, r4, asr #12

08002a58 <LF_SEED>:
 8002a58:	08002a4c 	stmdaeq	r0, {r2, r3, r6, r9, fp, sp}

08002a5c <_SEED>:
 8002a5c:	45455304 	strbmi	r5, [r5, #-772]	; 0xfffffcfc
 8002a60:	00000044 	andeq	r0, r0, r4, asr #32

08002a64 <CA_SEED>:
 8002a64:	2000066c 	andcs	r0, r0, ip, ror #12

08002a68 <LF_MSEC>:
 8002a68:	08002a5c 	stmdaeq	r0, {r2, r3, r4, r6, r9, fp, sp}

08002a6c <_MSEC>:
 8002a6c:	45534d04 	ldrbmi	r4, [r3, #-3332]	; 0xfffff2fc
 8002a70:	00000043 	andeq	r0, r0, r3, asr #32

08002a74 <CA_MSEC>:
 8002a74:	20000678 	andcs	r0, r0, r8, ror r6

08002a78 <LF_TIMER>:
 8002a78:	08002a6c 	stmdaeq	r0, {r2, r3, r5, r6, r9, fp, sp}

08002a7c <_TIMER>:
 8002a7c:	4d495405 	cfstrdmi	mvd5, [r9, #-20]	; 0xffffffec
 8002a80:	00005245 	andeq	r5, r0, r5, asr #4

08002a84 <CA_TIMER>:
 8002a84:	20000684 	andcs	r0, r0, r4, lsl #13

08002a88 <LF_TBOOT>:
 8002a88:	08002a7c 	stmdaeq	r0, {r2, r3, r4, r5, r6, r9, fp, sp}

08002a8c <_TBOOT>:
 8002a8c:	4f422705 	svcmi	0x00422705
 8002a90:	0000544f 	andeq	r5, r0, pc, asr #8

08002a94 <CA_TBOOT>:
 8002a94:	20000690 	mulcs	r0, r0, r6

08002a98 <LF_BASE>:
 8002a98:	08002a8c 	stmdaeq	r0, {r2, r3, r7, r9, fp, sp}

08002a9c <_BASE>:
 8002a9c:	53414204 	movtpl	r4, #4612	; 0x1204
 8002aa0:	00000045 	andeq	r0, r0, r5, asr #32

08002aa4 <CA_BASE>:
 8002aa4:	2000069c 	mulcs	r0, ip, r6

08002aa8 <LF_SPAN>:
 8002aa8:	08002a9c 	stmdaeq	r0, {r2, r3, r4, r7, r9, fp, sp}

08002aac <_SPAN>:
 8002aac:	41505304 	cmpmi	r0, r4, lsl #6
 8002ab0:	0000004e 	andeq	r0, r0, lr, asr #32

08002ab4 <CA_SPAN>:
 8002ab4:	200006b0 			; <UNDEFINED> instruction: 0x200006b0

08002ab8 <LF_INN>:
 8002ab8:	08002aac 	stmdaeq	r0, {r2, r3, r5, r7, r9, fp, sp}

08002abc <_INN>:
 8002abc:	4e493e03 	cdpmi	14, 4, cr3, cr9, cr3, {0}

08002ac0 <CA_INN>:
 8002ac0:	200006bc 			; <UNDEFINED> instruction: 0x200006bc

08002ac4 <LF_NTIB>:
 8002ac4:	08002abc 	stmdaeq	r0, {r2, r3, r4, r5, r7, r9, fp, sp}

08002ac8 <_NTIB>:
 8002ac8:	49542304 	ldmdbmi	r4, {r2, r8, r9, sp}^
 8002acc:	00000042 	andeq	r0, r0, r2, asr #32

08002ad0 <CA_NTIB>:
 8002ad0:	200006c8 	andcs	r0, r0, r8, asr #13

08002ad4 <LF_TEVAL>:
 8002ad4:	08002ac8 	stmdaeq	r0, {r3, r6, r7, r9, fp, sp}

08002ad8 <_TEVAL>:
 8002ad8:	56452705 	strbpl	r2, [r5], -r5, lsl #14
 8002adc:	00004c41 	andeq	r4, r0, r1, asr #24

08002ae0 <CA_TEVAL>:
 8002ae0:	200006d4 	ldrdcs	r0, [r0], -r4

08002ae4 <LF_HLD>:
 8002ae4:	08002ad8 	stmdaeq	r0, {r3, r4, r6, r7, r9, fp, sp}

08002ae8 <_HLD>:
 8002ae8:	444c4803 	strbmi	r4, [ip], #-2051	; 0xfffff7fd

08002aec <CA_HLD>:
 8002aec:	200006e0 	andcs	r0, r0, r0, ror #13

08002af0 <LF_CNTXT>:
 8002af0:	08002ae8 	stmdaeq	r0, {r3, r5, r6, r7, r9, fp, sp}

08002af4 <_CNTXT>:
 8002af4:	4e4f4307 	cdpmi	3, 4, cr4, cr15, cr7, {0}
 8002af8:	54584554 	ldrbpl	r4, [r8], #-1364	; 0xfffffaac

08002afc <CA_CNTXT>:
 8002afc:	200006ec 	andcs	r0, r0, ip, ror #13

08002b00 <LF_CPP>:
 8002b00:	08002af4 	stmdaeq	r0, {r2, r4, r5, r6, r7, r9, fp, sp}

08002b04 <_CPP>:
 8002b04:	00504302 	subseq	r4, r0, r2, lsl #6

08002b08 <CA_CPP>:
 8002b08:	200006f8 	strdcs	r0, [r0], -r8

08002b0c <LF_FCP>:
 8002b0c:	08002b04 	stmdaeq	r0, {r2, r8, r9, fp, sp}

08002b10 <_FCP>:
 8002b10:	50434603 	subpl	r4, r3, r3, lsl #12

08002b14 <CA_FCP>:
 8002b14:	20000704 	andcs	r0, r0, r4, lsl #14

08002b18 <LF_LAST>:
 8002b18:	08002b10 	stmdaeq	r0, {r4, r8, r9, fp, sp}

08002b1c <_LAST>:
 8002b1c:	53414c04 	movtpl	r4, #7172	; 0x1c04
 8002b20:	00000054 	andeq	r0, r0, r4, asr r0

08002b24 <CA_LAST>:
 8002b24:	20000710 	andcs	r0, r0, r0, lsl r7

08002b28 <LF_USER_BEGIN>:
 8002b28:	08002b1c 	stmdaeq	r0, {r2, r3, r4, r8, r9, fp, sp}

08002b2c <_USER_BEGIN>:
 8002b2c:	4553550a 	ldrbmi	r5, [r3, #-1290]	; 0xfffffaf6
 8002b30:	45425f52 	strbmi	r5, [r2, #-3922]	; 0xfffff0ae
 8002b34:	004e4947 	subeq	r4, lr, r7, asr #18

08002b38 <CA_USER_BEGIN>:
 8002b38:	2000071c 	andcs	r0, r0, ip, lsl r7

08002b3c <LF_USER_END>:
 8002b3c:	08002b2c 	stmdaeq	r0, {r2, r3, r5, r8, r9, fp, sp}

08002b40 <_USER_END>:
 8002b40:	45535508 	ldrbmi	r5, [r3, #-1288]	; 0xfffffaf8
 8002b44:	4e455f52 	mcrmi	15, 2, r5, cr5, cr2, {2}
 8002b48:	00000044 	andeq	r0, r0, r4, asr #32

08002b4c <CA_USER_END>:
 8002b4c:	20000728 	andcs	r0, r0, r8, lsr #14

08002b50 <LF_IMG_ADR>:
 8002b50:	08002b40 	stmdaeq	r0, {r6, r8, r9, fp, sp}

08002b54 <_IMG_ADR>:
 8002b54:	474d4907 	strbmi	r4, [sp, -r7, lsl #18]
 8002b58:	5244415f 	subpl	r4, r4, #-1073741801	; 0xc0000017

08002b5c <CA_IMG_ADR>:
 8002b5c:	20000738 	andcs	r0, r0, r8, lsr r7

08002b60 <LF_IMG_SIGN>:
 8002b60:	08002b54 	stmdaeq	r0, {r2, r4, r6, r8, r9, fp, sp}

08002b64 <_IMG_SIGN>:
 8002b64:	474d4908 	strbmi	r4, [sp, -r8, lsl #18]
 8002b68:	4749535f 	smlsldmi	r5, r9, pc, r3	; <UNPREDICTABLE>
 8002b6c:	0000004e 	andeq	r0, r0, lr, asr #32

08002b70 <CA_IMG_SIGN>:
 8002b70:	20000744 	andcs	r0, r0, r4, asr #14

08002b74 <LF_WITHI>:
 8002b74:	08002b64 	stmdaeq	r0, {r2, r5, r6, r8, r9, fp, sp}

08002b78 <_WITHI>:
 8002b78:	54495706 	strbpl	r5, [r9], #-1798	; 0xfffff8fa
 8002b7c:	004e4948 	subeq	r4, lr, r8, asr #18

08002b80 <CA_WITHI>:
 8002b80:	20000750 	andcs	r0, r0, r0, asr r7

08002b84 <LF_UMMOD>:
 8002b84:	08002b78 	stmdaeq	r0, {r3, r4, r5, r6, r8, r9, fp, sp}

08002b88 <_UMMOD>:
 8002b88:	2f4d5506 	svccs	0x004d5506
 8002b8c:	00444f4d 	subeq	r4, r4, sp, asr #30

08002b90 <CA_UMMOD>:
 8002b90:	20000770 	andcs	r0, r0, r0, ror r7

08002b94 <LF_MSMOD>:
 8002b94:	08002b88 	stmdaeq	r0, {r3, r7, r8, r9, fp, sp}

08002b98 <_MSMOD>:
 8002b98:	4d2f4d05 	stcmi	13, cr4, [pc, #-20]!	; 8002b8c <_UMMOD+0x4>
 8002b9c:	0000444f 	andeq	r4, r0, pc, asr #8

08002ba0 <CA_MSMOD>:
 8002ba0:	200007a0 	andcs	r0, r0, r0, lsr #15

08002ba4 <LF_SLMOD>:
 8002ba4:	08002b98 	stmdaeq	r0, {r3, r4, r7, r8, r9, fp, sp}

08002ba8 <_SLMOD>:
 8002ba8:	4f4d2f04 	svcmi	0x004d2f04
 8002bac:	00000044 	andeq	r0, r0, r4, asr #32

08002bb0 <CA_SLMOD>:
 8002bb0:	2000080c 	andcs	r0, r0, ip, lsl #16

08002bb4 <LF_MODD>:
 8002bb4:	08002ba8 	stmdaeq	r0, {r3, r5, r7, r8, r9, fp, sp}

08002bb8 <_MODD>:
 8002bb8:	444f4d03 	strbmi	r4, [pc], #-3331	; 8002bc0 <CA_MODD>
 8002bbc:	00000044 	andeq	r0, r0, r4, asr #32

08002bc0 <CA_MODD>:
 8002bc0:	20000824 	andcs	r0, r0, r4, lsr #16

08002bc4 <LF_SLASH>:
 8002bc4:	08002bb8 	stmdaeq	r0, {r3, r4, r5, r7, r8, r9, fp, sp}

08002bc8 <_SLASH>:
 8002bc8:	00002f01 	andeq	r2, r0, r1, lsl #30

08002bcc <CA_SLASH>:
 8002bcc:	20000834 	andcs	r0, r0, r4, lsr r8

08002bd0 <LF_SSMOD>:
 8002bd0:	08002bc8 	stmdaeq	r0, {r3, r6, r7, r8, r9, fp, sp}

08002bd4 <_SSMOD>:
 8002bd4:	4d2f2a05 	vstmdbmi	pc!, {s4-s8}
 8002bd8:	0000444f 	andeq	r4, r0, pc, asr #8

08002bdc <CA_SSMOD>:
 8002bdc:	20000848 	andcs	r0, r0, r8, asr #16

08002be0 <LF_STASL>:
 8002be0:	08002bd4 	stmdaeq	r0, {r2, r4, r6, r7, r8, r9, fp, sp}

08002be4 <_STASL>:
 8002be4:	002f2a02 	eoreq	r2, pc, r2, lsl #20

08002be8 <CA_STASL>:
 8002be8:	20000860 	andcs	r0, r0, r0, ror #16

08002bec <LF_ALGND>:
 8002bec:	08002be4 	stmdaeq	r0, {r2, r5, r6, r7, r8, r9, fp, sp}

08002bf0 <_ALGND>:
 8002bf0:	494c4107 	stmdbmi	ip, {r0, r1, r2, r8, lr}^
 8002bf4:	44454e47 	strbmi	r4, [r5], #-3655	; 0xfffff1b9

08002bf8 <CA_ALGND>:
 8002bf8:	20000874 	andcs	r0, r0, r4, ror r8

08002bfc <LF_TCHAR>:
 8002bfc:	08002bf0 	stmdaeq	r0, {r4, r5, r6, r7, r8, r9, fp, sp}

08002c00 <_TCHAR>:
 8002c00:	48433e05 	stmdami	r3, {r0, r2, r9, sl, fp, ip, sp}^
 8002c04:	00005241 	andeq	r5, r0, r1, asr #4

08002c08 <CA_TCHAR>:
 8002c08:	20000884 	andcs	r0, r0, r4, lsl #17

08002c0c <LF_DEPTH>:
 8002c0c:	08002c00 	stmdaeq	r0, {sl, fp, sp}

08002c10 <_DEPTH>:
 8002c10:	50454405 	subpl	r4, r5, r5, lsl #8
 8002c14:	00004854 	andeq	r4, r0, r4, asr r8

08002c18 <CA_DEPTH>:
 8002c18:	200008c4 	andcs	r0, r0, r4, asr #17

08002c1c <LF_PICK>:
 8002c1c:	08002c10 	stmdaeq	r0, {r4, sl, fp, sp}

08002c20 <_PICK>:
 8002c20:	43495004 	movtmi	r5, #36868	; 0x9004
 8002c24:	0000004b 	andeq	r0, r0, fp, asr #32

08002c28 <CA_PICK>:
 8002c28:	200008dc 	ldrdcs	r0, [r0], -ip

08002c2c <LF_HERE>:
 8002c2c:	08002c20 	stmdaeq	r0, {r5, sl, fp, sp}

08002c30 <_HERE>:
 8002c30:	52454804 	subpl	r4, r5, #4, 16	; 0x40000
 8002c34:	00000045 	andeq	r0, r0, r5, asr #32

08002c38 <CA_HERE>:
 8002c38:	200008f8 	strdcs	r0, [r0], -r8

08002c3c <LF_PAD>:
 8002c3c:	08002c30 	stmdaeq	r0, {r4, r5, sl, fp, sp}

08002c40 <_PAD>:
 8002c40:	44415004 	strbmi	r5, [r1], #-4

08002c44 <CA_PAD>:
 8002c44:	20000908 	andcs	r0, r0, r8, lsl #18

08002c48 <LF_TIB>:
 8002c48:	08002c40 	stmdaeq	r0, {r6, sl, fp, sp}

08002c4c <_TIB>:
 8002c4c:	42495403 	submi	r5, r9, #50331648	; 0x3000000

08002c50 <CA_TIB>:
 8002c50:	20000918 	andcs	r0, r0, r8, lsl r9

08002c54 <LF_ATEXE>:
 8002c54:	08002c4c 	stmdaeq	r0, {r2, r3, r6, sl, fp, sp}

08002c58 <_ATEXE>:
 8002c58:	58454008 	stmdapl	r5, {r3, lr}^
 8002c5c:	54554345 	ldrbpl	r4, [r5], #-837	; 0xfffffcbb
 8002c60:	00000045 	andeq	r0, r0, r5, asr #32

08002c64 <CA_ATEXE>:
 8002c64:	20000920 	andcs	r0, r0, r0, lsr #18

08002c68 <LF_CMOVE>:
 8002c68:	08002c58 	stmdaeq	r0, {r3, r4, r6, sl, fp, sp}

08002c6c <_CMOVE>:
 8002c6c:	4f4d4305 	svcmi	0x004d4305
 8002c70:	00004556 	andeq	r4, r0, r6, asr r5

08002c74 <CA_CMOVE>:
 8002c74:	20000934 	andcs	r0, r0, r4, lsr r9

08002c78 <LF_MOVE>:
 8002c78:	08002c6c 	stmdaeq	r0, {r2, r3, r5, r6, sl, fp, sp}

08002c7c <_MOVE>:
 8002c7c:	564f4d04 	strbpl	r4, [pc], -r4, lsl #26
 8002c80:	00000045 	andeq	r0, r0, r5, asr #32

08002c84 <CA_MOVE>:
 8002c84:	20000958 	andcs	r0, r0, r8, asr r9

08002c88 <LF_FILL>:
 8002c88:	08002c7c 	stmdaeq	r0, {r2, r3, r4, r5, r6, sl, fp, sp}

08002c8c <_FILL>:
 8002c8c:	4c494604 	mcrrmi	6, 0, r4, r9, cr4
 8002c90:	0000004c 	andeq	r0, r0, ip, asr #32

08002c94 <CA_FILL>:
 8002c94:	20000980 	andcs	r0, r0, r0, lsl #19

08002c98 <LF_PACKS>:
 8002c98:	08002c8c 	stmdaeq	r0, {r2, r3, r7, sl, fp, sp}

08002c9c <_PACKS>:
 8002c9c:	43415005 	movtmi	r5, #4101	; 0x1005
 8002ca0:	0000244b 	andeq	r2, r0, fp, asr #8

08002ca4 <CA_PACKS>:
 8002ca4:	200009a0 	andcs	r0, r0, r0, lsr #19

08002ca8 <LF_DIGIT>:
 8002ca8:	08002c9c 	stmdaeq	r0, {r2, r3, r4, r7, sl, fp, sp}

08002cac <_DIGIT>:
 8002cac:	47494405 	strbmi	r4, [r9, -r5, lsl #8]
 8002cb0:	00005449 	andeq	r5, r0, r9, asr #8

08002cb4 <CA_DIGIT>:
 8002cb4:	200009f8 	strdcs	r0, [r0], -r8

08002cb8 <LF_EXTRC>:
 8002cb8:	08002cac 	stmdaeq	r0, {r2, r3, r5, r7, sl, fp, sp}

08002cbc <_EXTRC>:
 8002cbc:	54584507 	ldrbpl	r4, [r8], #-1287	; 0xfffffaf9
 8002cc0:	54434152 	strbpl	r4, [r3], #-338	; 0xfffffeae

08002cc4 <CA_EXTRC>:
 8002cc4:	20000a1c 	andcs	r0, r0, ip, lsl sl

08002cc8 <LF_BDIGS>:
 8002cc8:	08002cbc 	stmdaeq	r0, {r2, r3, r4, r5, r7, sl, fp, sp}

08002ccc <_BDIGS>:
 8002ccc:	00233c02 	eoreq	r3, r3, r2, lsl #24

08002cd0 <CA_BDIGS>:
 8002cd0:	20000a3c 	andcs	r0, r0, ip, lsr sl

08002cd4 <LF_HOLD>:
 8002cd4:	08002ccc 	stmdaeq	r0, {r2, r3, r6, r7, sl, fp, sp}

08002cd8 <_HOLD>:
 8002cd8:	4c4f4804 	mcrrmi	8, 0, r4, pc, cr4
 8002cdc:	00000044 	andeq	r0, r0, r4, asr #32

08002ce0 <CA_HOLD>:
 8002ce0:	20000a50 	andcs	r0, r0, r0, asr sl

08002ce4 <LF_DIG>:
 8002ce4:	08002cd8 	stmdaeq	r0, {r3, r4, r6, r7, sl, fp, sp}

08002ce8 <_DIG>:
 8002ce8:	00002301 	andeq	r2, r0, r1, lsl #6

08002cec <CA_DIG>:
 8002cec:	20000a74 	andcs	r0, r0, r4, ror sl

08002cf0 <LF_DIGS>:
 8002cf0:	08002ce8 	stmdaeq	r0, {r3, r5, r6, r7, sl, fp, sp}

08002cf4 <_DIGS>:
 8002cf4:	00532302 	subseq	r2, r3, r2, lsl #6

08002cf8 <CA_DIGS>:
 8002cf8:	20000a8c 	andcs	r0, r0, ip, lsl #21

08002cfc <LF_SIGN>:
 8002cfc:	08002cf4 	stmdaeq	r0, {r2, r4, r5, r6, r7, sl, fp, sp}

08002d00 <_SIGN>:
 8002d00:	47495304 	strbmi	r5, [r9, -r4, lsl #6]
 8002d04:	0000004e 	andeq	r0, r0, lr, asr #32

08002d08 <CA_SIGN>:
 8002d08:	20000aa8 	andcs	r0, r0, r8, lsr #21

08002d0c <LF_EDIGS>:
 8002d0c:	08002d00 	stmdaeq	r0, {r8, sl, fp, sp}

08002d10 <_EDIGS>:
 8002d10:	003e2302 	eorseq	r2, lr, r2, lsl #6

08002d14 <CA_EDIGS>:
 8002d14:	20000ac8 	andcs	r0, r0, r8, asr #21

08002d18 <LF_HEX>:
 8002d18:	08002d10 	stmdaeq	r0, {r4, r8, sl, fp, sp}

08002d1c <_HEX>:
 8002d1c:	58454803 	stmdapl	r5, {r0, r1, fp, lr}^

08002d20 <CA_HEX>:
 8002d20:	20000b10 	andcs	r0, r0, r0, lsl fp

08002d24 <LF_DECIM>:
 8002d24:	08002d1c 	stmdaeq	r0, {r2, r3, r4, r8, sl, fp, sp}

08002d28 <_DECIM>:
 8002d28:	43454407 	movtmi	r4, #21511	; 0x5407
 8002d2c:	4c414d49 	mcrrmi	13, 4, r4, r1, cr9

08002d30 <CA_DECIM>:
 8002d30:	20000b28 	andcs	r0, r0, r8, lsr #22

08002d34 <LF_DIGTQ>:
 8002d34:	08002d28 	stmdaeq	r0, {r3, r5, r8, sl, fp, sp}

08002d38 <_DIGTQ>:
 8002d38:	47494406 	strbmi	r4, [r9, -r6, lsl #8]
 8002d3c:	003f5449 	eorseq	r5, pc, r9, asr #8

08002d40 <CA_DIGTQ>:
 8002d40:	20000b40 	andcs	r0, r0, r0, asr #22

08002d44 <LF_NUMBQ>:
 8002d44:	08002d38 	stmdaeq	r0, {r3, r4, r5, r8, sl, fp, sp}

08002d48 <_NUMBQ>:
 8002d48:	4d554e07 	ldclmi	14, cr4, [r5, #-28]	; 0xffffffe4
 8002d4c:	3f524542 	svccc	0x00524542

08002d50 <CA_NUMBQ>:
 8002d50:	20000b9c 	mulcs	r0, ip, fp

08002d54 <LF_KEY>:
 8002d54:	08002d48 	stmdaeq	r0, {r3, r6, r8, sl, fp, sp}

08002d58 <_KEY>:
 8002d58:	59454b03 	stmdbpl	r5, {r0, r1, r8, r9, fp, lr}^

08002d5c <CA_KEY>:
 8002d5c:	20000cc8 	andcs	r0, r0, r8, asr #25

08002d60 <LF_SPACE>:
 8002d60:	08002d58 	stmdaeq	r0, {r3, r4, r6, r8, sl, fp, sp}

08002d64 <_SPACE>:
 8002d64:	41505305 	cmpmi	r0, r5, lsl #6
 8002d68:	00004543 	andeq	r4, r0, r3, asr #10

08002d6c <CA_SPACE>:
 8002d6c:	20000cdc 	ldrdcs	r0, [r0], -ip

08002d70 <LF_SPACS>:
 8002d70:	08002d64 	stmdaeq	r0, {r2, r5, r6, r8, sl, fp, sp}

08002d74 <_SPACS>:
 8002d74:	41505306 	cmpmi	r0, r6, lsl #6
 8002d78:	00534543 	subseq	r4, r3, r3, asr #10

08002d7c <CA_SPACS>:
 8002d7c:	20000cec 	andcs	r0, r0, ip, ror #25

08002d80 <LF_TYPEE>:
 8002d80:	08002d74 	stmdaeq	r0, {r2, r4, r5, r6, r8, sl, fp, sp}

08002d84 <_TYPEE>:
 8002d84:	50595404 	subspl	r5, r9, r4, lsl #8
 8002d88:	00000045 	andeq	r0, r0, r5, asr #32

08002d8c <CA_TYPEE>:
 8002d8c:	20000d14 	andcs	r0, r0, r4, lsl sp

08002d90 <LF_CR>:
 8002d90:	08002d84 	stmdaeq	r0, {r2, r7, r8, sl, fp, sp}

08002d94 <_CR>:
 8002d94:	00524302 	subseq	r4, r2, r2, lsl #6

08002d98 <CA_CR>:
 8002d98:	20000d3c 	andcs	r0, r0, ip, lsr sp

08002d9c <LF_DOTR>:
 8002d9c:	08002d94 	stmdaeq	r0, {r2, r4, r7, r8, sl, fp, sp}

08002da0 <_DOTR>:
 8002da0:	00522e02 	subseq	r2, r2, r2, lsl #28

08002da4 <CA_DOTR>:
 8002da4:	20000dbc 			; <UNDEFINED> instruction: 0x20000dbc

08002da8 <LF_UDOTR>:
 8002da8:	08002da0 	stmdaeq	r0, {r5, r7, r8, sl, fp, sp}

08002dac <_UDOTR>:
 8002dac:	522e5503 	eorpl	r5, lr, #12582912	; 0xc00000

08002db0 <CA_UDOTR>:
 8002db0:	20000de0 	andcs	r0, r0, r0, ror #27

08002db4 <LF_UDOT>:
 8002db4:	08002dac 	stmdaeq	r0, {r2, r3, r5, r7, r8, sl, fp, sp}

08002db8 <_UDOT>:
 8002db8:	002e5502 	eoreq	r5, lr, r2, lsl #10

08002dbc <CA_UDOT>:
 8002dbc:	20000e0c 	andcs	r0, r0, ip, lsl #28

08002dc0 <LF_HDOT>:
 8002dc0:	08002db8 	stmdaeq	r0, {r3, r4, r5, r7, r8, sl, fp, sp}

08002dc4 <_HDOT>:
 8002dc4:	002e4802 	eoreq	r4, lr, r2, lsl #16

08002dc8 <CA_HDOT>:
 8002dc8:	20000e28 	andcs	r0, r0, r8, lsr #28

08002dcc <LF_DOT>:
 8002dcc:	08002dc4 	stmdaeq	r0, {r2, r6, r7, r8, sl, fp, sp}

08002dd0 <_DOT>:
 8002dd0:	00002e01 	andeq	r2, r0, r1, lsl #28

08002dd4 <CA_DOT>:
 8002dd4:	20000e50 	andcs	r0, r0, r0, asr lr

08002dd8 <LF_QUEST>:
 8002dd8:	08002dd0 	stmdaeq	r0, {r4, r6, r7, r8, sl, fp, sp}

08002ddc <_QUEST>:
 8002ddc:	00003f01 	andeq	r3, r0, r1, lsl #30

08002de0 <CA_QUEST>:
 8002de0:	20000e88 	andcs	r0, r0, r8, lsl #29

08002de4 <LF_PARSE>:
 8002de4:	08002ddc 	stmdaeq	r0, {r2, r3, r4, r6, r7, r8, sl, fp, sp}

08002de8 <_PARSE>:
 8002de8:	52415005 	subpl	r5, r1, #5
 8002dec:	00004553 	andeq	r4, r0, r3, asr r5

08002df0 <CA_PARSE>:
 8002df0:	20000fb8 			; <UNDEFINED> instruction: 0x20000fb8

08002df4 <LF_DOTPR>:
 8002df4:	08002de8 	stmdaeq	r0, {r3, r5, r6, r7, r8, sl, fp, sp}

08002df8 <_DOTPR>:
 8002df8:	00282e82 	eoreq	r2, r8, r2, lsl #29

08002dfc <CA_DOTPR>:
 8002dfc:	20000ff8 	strdcs	r0, [r0], -r8

08002e00 <LF_PAREN>:
 8002e00:	08002df8 	stmdaeq	r0, {r3, r4, r5, r6, r7, r8, sl, fp, sp}

08002e04 <_PAREN>:
 8002e04:	00002881 	andeq	r2, r0, r1, lsl #17

08002e08 <CA_PAREN>:
 8002e08:	20001010 	andcs	r1, r0, r0, lsl r0

08002e0c <LF_BKSLA>:
 8002e0c:	08002e04 	stmdaeq	r0, {r2, r9, sl, fp, sp}

08002e10 <_BKSLA>:
 8002e10:	00005c01 	andeq	r5, r0, r1, lsl #24

08002e14 <CA_BKSLA>:
 8002e14:	20001028 	andcs	r1, r0, r8, lsr #32

08002e18 <LF_CAHR>:
 8002e18:	08002e10 	stmdaeq	r0, {r4, r9, sl, fp, sp}

08002e1c <_CAHR>:
 8002e1c:	41484304 	cmpmi	r8, r4, lsl #6
 8002e20:	00000052 	andeq	r0, r0, r2, asr r0

08002e24 <CA_CAHR>:
 8002e24:	20001040 	andcs	r1, r0, r0, asr #32

08002e28 <LF_WORDD>:
 8002e28:	08002e1c 	stmdaeq	r0, {r2, r3, r4, r9, sl, fp, sp}

08002e2c <_WORDD>:
 8002e2c:	524f5704 	subpl	r5, pc, #4, 14	; 0x100000
 8002e30:	00000044 	andeq	r0, r0, r4, asr #32

08002e34 <CA_WORDD>:
 8002e34:	20001058 	andcs	r1, r0, r8, asr r0

08002e38 <LF_TOKEN>:
 8002e38:	08002e2c 	stmdaeq	r0, {r2, r3, r5, r9, sl, fp, sp}

08002e3c <_TOKEN>:
 8002e3c:	4b4f5405 	blmi	93d7e58 <OPTKEY1+0x124541d>
 8002e40:	00004e45 	andeq	r4, r0, r5, asr #28

08002e44 <CA_TOKEN>:
 8002e44:	20001070 	andcs	r1, r0, r0, ror r0

08002e48 <LF_TOCFA>:
 8002e48:	08002e3c 	stmdaeq	r0, {r2, r3, r4, r5, r9, sl, fp, sp}

08002e4c <_TOCFA>:
 8002e4c:	46433e04 	strbmi	r3, [r3], -r4, lsl #28
 8002e50:	00000041 	andeq	r0, r0, r1, asr #32

08002e54 <CA_TOCFA>:
 8002e54:	20001080 	andcs	r1, r0, r0, lsl #1

08002e58 <LF_NAMET>:
 8002e58:	08002e4c 	stmdaeq	r0, {r2, r3, r6, r9, sl, fp, sp}

08002e5c <_NAMET>:
 8002e5c:	4d414e05 	stclmi	14, cr4, [r1, #-20]	; 0xffffffec
 8002e60:	00003e45 	andeq	r3, r0, r5, asr #28

08002e64 <CA_NAMET>:
 8002e64:	200010a0 	andcs	r1, r0, r0, lsr #1

08002e68 <LF_SAMEQ>:
 8002e68:	08002e5c 	stmdaeq	r0, {r2, r3, r4, r6, r9, sl, fp, sp}

08002e6c <_SAMEQ>:
 8002e6c:	4d415305 	stclmi	3, cr5, [r1, #-20]	; 0xffffffec
 8002e70:	00003f45 	andeq	r3, r0, r5, asr #30

08002e74 <CA_SAMEQ>:
 8002e74:	200010b0 	strhcs	r1, [r0], -r0

08002e78 <LF_NAMEQ>:
 8002e78:	08002e6c 	stmdaeq	r0, {r2, r3, r5, r6, r9, sl, fp, sp}

08002e7c <_NAMEQ>:
 8002e7c:	4d414e05 	stclmi	14, cr4, [r1, #-20]	; 0xffffffec
 8002e80:	00003f45 	andeq	r3, r0, r5, asr #30

08002e84 <CA_NAMEQ>:
 8002e84:	200011d0 	ldrdcs	r1, [r0], -r0

08002e88 <LF_ACCEP>:
 8002e88:	08002e7c 	stmdaeq	r0, {r2, r3, r4, r5, r6, r9, sl, fp, sp}

08002e8c <_ACCEP>:
 8002e8c:	43434106 	movtmi	r4, #12550	; 0x3106
 8002e90:	00545045 	subseq	r5, r4, r5, asr #32

08002e94 <CA_ACCEP>:
 8002e94:	200012a8 	andcs	r1, r0, r8, lsr #5

08002e98 <LF_QUERY>:
 8002e98:	08002e8c 	stmdaeq	r0, {r2, r3, r7, r9, sl, fp, sp}

08002e9c <_QUERY>:
 8002e9c:	45555105 	ldrbmi	r5, [r5, #-261]	; 0xfffffefb
 8002ea0:	00005952 	andeq	r5, r0, r2, asr r9

08002ea4 <CA_QUERY>:
 8002ea4:	20001304 	andcs	r1, r0, r4, lsl #6

08002ea8 <LF_ABORT>:
 8002ea8:	08002e9c 	stmdaeq	r0, {r2, r3, r4, r7, r9, sl, fp, sp}

08002eac <_ABORT>:
 8002eac:	4f424105 	svcmi	0x00424105
 8002eb0:	00005452 	andeq	r5, r0, r2, asr r4

08002eb4 <CA_ABORT>:
 8002eb4:	20001338 	andcs	r1, r0, r8, lsr r3

08002eb8 <LF_INTER>:
 8002eb8:	08002eac 	stmdaeq	r0, {r2, r3, r5, r7, r9, sl, fp, sp}

08002ebc <_INTER>:
 8002ebc:	4e49240a 	cdpmi	4, 4, cr2, cr9, cr10, {0}
 8002ec0:	50524554 	subspl	r4, r2, r4, asr r5
 8002ec4:	00544552 	subseq	r4, r4, r2, asr r5

08002ec8 <CA_INTER>:
 8002ec8:	20001380 	andcs	r1, r0, r0, lsl #7

08002ecc <LF_LBRAC>:
 8002ecc:	08002ebc 	stmdaeq	r0, {r2, r3, r4, r5, r7, r9, sl, fp, sp}

08002ed0 <_LBRAC>:
 8002ed0:	00005b81 	andeq	r5, r0, r1, lsl #23

08002ed4 <CA_LBRAC>:
 8002ed4:	200013d4 	ldrdcs	r1, [r0], -r4

08002ed8 <LF_DOTOK>:
 8002ed8:	08002ed0 	stmdaeq	r0, {r4, r6, r7, r9, sl, fp, sp}

08002edc <_DOTOK>:
 8002edc:	4b4f2e03 	blmi	93ce6f0 <OPTKEY1+0x123bcb5>

08002ee0 <CA_DOTOK>:
 8002ee0:	200013ec 	andcs	r1, r0, ip, ror #7

08002ee4 <LF_QSTAC>:
 8002ee4:	08002edc 	stmdaeq	r0, {r2, r3, r4, r6, r7, r9, sl, fp, sp}

08002ee8 <_QSTAC>:
 8002ee8:	54533f06 	ldrbpl	r3, [r3], #-3846	; 0xfffff0fa
 8002eec:	004b4341 	subeq	r4, fp, r1, asr #6

08002ef0 <CA_QSTAC>:
 8002ef0:	2000141c 	andcs	r1, r0, ip, lsl r4

08002ef4 <LF_EVAL>:
 8002ef4:	08002ee8 	stmdaeq	r0, {r3, r5, r6, r7, r9, sl, fp, sp}

08002ef8 <_EVAL>:
 8002ef8:	41564504 	cmpmi	r6, r4, lsl #10
 8002efc:	0000004c 	andeq	r0, r0, ip, asr #32

08002f00 <CA_EVAL>:
 8002f00:	2000143c 	andcs	r1, r0, ip, lsr r4

08002f04 <LF_PRESE>:
 8002f04:	08002ef8 	stmdaeq	r0, {r3, r4, r5, r6, r7, r9, sl, fp, sp}

08002f08 <_PRESE>:
 8002f08:	45525006 	ldrbmi	r5, [r2, #-6]
 8002f0c:	00544553 	subseq	r4, r4, r3, asr r5

08002f10 <CA_PRESE>:
 8002f10:	20001470 	andcs	r1, r0, r0, ror r4

08002f14 <LF_QUIT>:
 8002f14:	08002f08 	stmdaeq	r0, {r3, r8, r9, sl, fp, sp}

08002f18 <_QUIT>:
 8002f18:	49555104 	ldmdbmi	r5, {r2, r8, ip, lr}^
 8002f1c:	00000054 	andeq	r0, r0, r4, asr r0

08002f20 <CA_QUIT>:
 8002f20:	20001484 	andcs	r1, r0, r4, lsl #9

08002f24 <LF_UNLOCK>:
 8002f24:	08002f18 	stmdaeq	r0, {r3, r4, r8, r9, sl, fp, sp}

08002f28 <_UNLOCK>:
 8002f28:	4c4e5506 	cfstr64mi	mvdx5, [lr], {6}
 8002f2c:	004b434f 	subeq	r4, fp, pc, asr #6

08002f30 <CA_UNLOCK>:
 8002f30:	200014a4 	andcs	r1, r0, r4, lsr #9

08002f34 <LF_EPAGE>:
 8002f34:	08002f28 	stmdaeq	r0, {r3, r5, r8, r9, sl, fp, sp}

08002f38 <_EPAGE>:
 8002f38:	4152450a 	cmpmi	r2, sl, lsl #10
 8002f3c:	505f4553 	subspl	r4, pc, r3, asr r5	; <UNPREDICTABLE>
 8002f40:	00454741 	subeq	r4, r5, r1, asr #14

08002f44 <CA_EPAGE>:
 8002f44:	200014e4 	andcs	r1, r0, r4, ror #9

08002f48 <LF_ISTOR>:
 8002f48:	08002f38 	stmdaeq	r0, {r3, r4, r5, r8, r9, sl, fp, sp}

08002f4c <_ISTOR>:
 8002f4c:	00214902 	eoreq	r4, r1, r2, lsl #18

08002f50 <CA_ISTOR>:
 8002f50:	20001570 	andcs	r1, r0, r0, ror r5

08002f54 <LF_IMG_SIZE>:
 8002f54:	08002f4c 	stmdaeq	r0, {r2, r3, r6, r8, r9, sl, fp, sp}

08002f58 <_IMG_SIZE>:
 8002f58:	474d4908 	strbmi	r4, [sp, -r8, lsl #18]
 8002f5c:	5a49535f 	bpl	9257ce0 <OPTKEY1+0x10c52a5>
 8002f60:	00000045 	andeq	r0, r0, r5, asr #32

08002f64 <CA_IMG_SIZE>:
 8002f64:	200015b8 			; <UNDEFINED> instruction: 0x200015b8

08002f68 <LF_IMGQ>:
 8002f68:	08002f58 	stmdaeq	r0, {r3, r4, r6, r8, r9, sl, fp, sp}

08002f6c <_IMGQ>:
 8002f6c:	474d4904 	strbmi	r4, [sp, -r4, lsl #18]
 8002f70:	0000003f 	andeq	r0, r0, pc, lsr r0

08002f74 <CA_IMGQ>:
 8002f74:	200015f4 	strdcs	r1, [r0], -r4

08002f78 <LF_LOAD_IMG>:
 8002f78:	08002f6c 	stmdaeq	r0, {r2, r3, r5, r6, r8, r9, sl, fp, sp}

08002f7c <_LOAD_IMG>:
 8002f7c:	414f4c08 	cmpmi	pc, r8, lsl #24
 8002f80:	4d495f44 	stclmi	15, cr5, [r9, #-272]	; 0xfffffef0
 8002f84:	00000047 	andeq	r0, r0, r7, asr #32

08002f88 <CA_LOAD_IMG>:
 8002f88:	20001614 	andcs	r1, r0, r4, lsl r6

08002f8c <LF_ERASE_MPG>:
 8002f8c:	08002f7c 	stmdaeq	r0, {r2, r3, r4, r5, r6, r8, r9, sl, fp, sp}

08002f90 <_ERASE_MPG>:
 8002f90:	41524509 	cmpmi	r2, r9, lsl #10
 8002f94:	4d5f4553 	cfldr64mi	mvdx4, [pc, #-332]	; 8002e50 <_TOCFA+0x4>
 8002f98:	00004750 	andeq	r4, r0, r0, asr r7

08002f9c <CA_ERASE_MPG>:
 8002f9c:	2000166c 	andcs	r1, r0, ip, ror #12

08002fa0 <LF_FLSH_WR>:
 8002fa0:	08002f90 	stmdaeq	r0, {r4, r7, r8, r9, sl, fp, sp}

08002fa4 <_FLSH_WR>:
 8002fa4:	534c4607 	movtpl	r4, #50695	; 0xc607
 8002fa8:	52575f48 	subspl	r5, r7, #72, 30	; 0x120

08002fac <CA_FLSH_WR>:
 8002fac:	200016a4 	andcs	r1, r0, r4, lsr #13

08002fb0 <LF_ADR_TO_PG>:
 8002fb0:	08002fa4 	stmdaeq	r0, {r2, r5, r7, r8, r9, sl, fp, sp}

08002fb4 <_ADR_TO_PG>:
 8002fb4:	52444106 	subpl	r4, r4, #-2147483647	; 0x80000001
 8002fb8:	0047503e 	subeq	r5, r7, lr, lsr r0

08002fbc <CA_ADR_TO_PG>:
 8002fbc:	200016ec 	andcs	r1, r0, ip, ror #13

08002fc0 <LF_PG_TO_ADR>:
 8002fc0:	08002fb4 	stmdaeq	r0, {r2, r4, r5, r7, r8, r9, sl, fp, sp}

08002fc4 <_PG_TO_ADR>:
 8002fc4:	3e475006 	cdpcc	0, 4, cr5, cr7, cr6, {0}
 8002fc8:	00524441 	subseq	r4, r2, r1, asr #8

08002fcc <CA_PG_TO_ADR>:
 8002fcc:	200016f8 	strdcs	r1, [r0], -r8

08002fd0 <LF_ERASE_IMG>:
 8002fd0:	08002fc4 	stmdaeq	r0, {r2, r6, r7, r8, r9, sl, fp, sp}

08002fd4 <_ERASE_IMG>:
 8002fd4:	41524509 	cmpmi	r2, r9, lsl #10
 8002fd8:	495f4553 	ldmdbmi	pc, {r0, r1, r4, r6, r8, sl, lr}^	; <UNPREDICTABLE>
 8002fdc:	0000474d 	andeq	r4, r0, sp, asr #14

08002fe0 <CA_ERASE_IMG>:
 8002fe0:	20001704 	andcs	r1, r0, r4, lsl #14

08002fe4 <LF_SAVE_IMG>:
 8002fe4:	08002fd4 	stmdaeq	r0, {r2, r4, r6, r7, r8, r9, sl, fp, sp}

08002fe8 <_SAVE_IMG>:
 8002fe8:	56415308 	strbpl	r5, [r1], -r8, lsl #6
 8002fec:	4d495f45 	stclmi	15, cr5, [r9, #-276]	; 0xfffffeec
 8002ff0:	00000047 	andeq	r0, r0, r7, asr #32

08002ff4 <CA_SAVE_IMG>:
 8002ff4:	20001738 	andcs	r1, r0, r8, lsr r7

08002ff8 <LF_TURNKEY>:
 8002ff8:	08002fe8 	stmdaeq	r0, {r3, r5, r6, r7, r8, r9, sl, fp, sp}

08002ffc <_TURNKEY>:
 8002ffc:	52555407 	subspl	r5, r5, #117440512	; 0x7000000
 8003000:	59454b4e 	stmdbpl	r5, {r1, r2, r3, r6, r8, r9, fp, lr}^

08003004 <CA_TURNKEY>:
 8003004:	2000179c 	mulcs	r0, ip, r7

08003008 <LF_FORGET>:
 8003008:	08002ffc 	stmdaeq	r0, {r2, r3, r4, r5, r6, r7, r8, r9, sl, fp, sp}

0800300c <_FORGET>:
 800300c:	524f4606 	subpl	r4, pc, #6291456	; 0x600000
 8003010:	00544547 	subseq	r4, r4, r7, asr #10

08003014 <CA_FORGET>:
 8003014:	200017b4 			; <UNDEFINED> instruction: 0x200017b4

08003018 <LF_TICK>:
 8003018:	0800300c 	stmdaeq	r0, {r2, r3, ip, sp}

0800301c <_TICK>:
 800301c:	00002701 	andeq	r2, r0, r1, lsl #14

08003020 <CA_TICK>:
 8003020:	20001810 	andcs	r1, r0, r0, lsl r8

08003024 <LF_ALLOT>:
 8003024:	0800301c 	stmdaeq	r0, {r2, r3, r4, ip, sp}

08003028 <_ALLOT>:
 8003028:	4c4c4105 	stfmie	f4, [ip], {5}
 800302c:	0000544f 	andeq	r5, r0, pc, asr #8

08003030 <CA_ALLOT>:
 8003030:	2000182c 	andcs	r1, r0, ip, lsr #16

08003034 <LF_COMMA>:
 8003034:	08003028 	stmdaeq	r0, {r3, r5, ip, sp}

08003038 <_COMMA>:
 8003038:	00002c01 	andeq	r2, r0, r1, lsl #24

0800303c <CA_COMMA>:
 800303c:	2000183c 	andcs	r1, r0, ip, lsr r8

08003040 <LF_BCOMP>:
 8003040:	08003038 	stmdaeq	r0, {r3, r4, r5, ip, sp}

08003044 <_BCOMP>:
 8003044:	4f435b89 	svcmi	0x00435b89
 8003048:	4c49504d 	mcrrmi	0, 4, r5, r9, cr13
 800304c:	00005d45 	andeq	r5, r0, r5, asr #26

08003050 <CA_BCOMP>:
 8003050:	2000185c 	andcs	r1, r0, ip, asr r8

08003054 <LF_COMPI>:
 8003054:	08003044 	stmdaeq	r0, {r2, r6, ip, sp}

08003058 <_COMPI>:
 8003058:	4d4f4347 	stclmi	3, cr4, [pc, #-284]	; 8002f44 <CA_EPAGE>
 800305c:	454c4950 	strbmi	r4, [ip, #-2384]	; 0xfffff6b0

08003060 <CA_COMPI>:
 8003060:	2000186c 	andcs	r1, r0, ip, ror #16

08003064 <LF_LITER>:
 8003064:	08003058 	stmdaeq	r0, {r3, r4, r6, ip, sp}

08003068 <_LITER>:
 8003068:	54494c87 	strbpl	r4, [r9], #-3207	; 0xfffff379
 800306c:	4c415245 	sfmmi	f5, 2, [r1], {69}	; 0x45

08003070 <CA_LITER>:
 8003070:	20001894 	mulcs	r0, r4, r8

08003074 <LF_FOR>:
 8003074:	08003068 	stmdaeq	r0, {r3, r5, r6, ip, sp}

08003078 <_FOR>:
 8003078:	524f46c3 	subpl	r4, pc, #204472320	; 0xc300000

0800307c <CA_FOR>:
 800307c:	200018e4 	andcs	r1, r0, r4, ror #17

08003080 <LF_BEGIN>:
 8003080:	08003078 	stmdaeq	r0, {r3, r4, r5, r6, ip, sp}

08003084 <_BEGIN>:
 8003084:	474542c5 	strbmi	r4, [r5, -r5, asr #5]
 8003088:	00004e49 	andeq	r4, r0, r9, asr #28

0800308c <CA_BEGIN>:
 800308c:	200018f8 	strdcs	r1, [r0], -r8

08003090 <LF_NEXT>:
 8003090:	08003084 	stmdaeq	r0, {r2, r7, ip, sp}

08003094 <_NEXT>:
 8003094:	58454ec4 	stmdapl	r5, {r2, r6, r7, r9, sl, fp, lr}^
 8003098:	00000054 	andeq	r0, r0, r4, asr r0

0800309c <CA_NEXT>:
 800309c:	20001904 	andcs	r1, r0, r4, lsl #18

080030a0 <LF_UNTIL>:
 80030a0:	08003094 	stmdaeq	r0, {r2, r4, r7, ip, sp}

080030a4 <_UNTIL>:
 80030a4:	544e55c5 	strbpl	r5, [lr], #-1477	; 0xfffffa3b
 80030a8:	00004c49 	andeq	r4, r0, r9, asr #24

080030ac <CA_UNTIL>:
 80030ac:	20001918 	andcs	r1, r0, r8, lsl r9

080030b0 <LF_AGAIN>:
 80030b0:	080030a4 	stmdaeq	r0, {r2, r5, r7, ip, sp}

080030b4 <_AGAIN>:
 80030b4:	414741c5 	smlalbtmi	r4, r7, r5, r1
 80030b8:	00004e49 	andeq	r4, r0, r9, asr #28

080030bc <CA_AGAIN>:
 80030bc:	2000192c 	andcs	r1, r0, ip, lsr #18

080030c0 <LF_IFF>:
 80030c0:	080030b4 	stmdaeq	r0, {r2, r4, r5, r7, ip, sp}

080030c4 <_IFF>:
 80030c4:	004649c2 	subeq	r4, r6, r2, asr #19

080030c8 <CA_IFF>:
 80030c8:	20001940 	andcs	r1, r0, r0, asr #18

080030cc <LF_AHEAD>:
 80030cc:	080030c4 	stmdaeq	r0, {r2, r6, r7, ip, sp}

080030d0 <_AHEAD>:
 80030d0:	454841c5 	strbmi	r4, [r8, #-453]	; 0xfffffe3b
 80030d4:	00004441 	andeq	r4, r0, r1, asr #8

080030d8 <CA_AHEAD>:
 80030d8:	20001964 	andcs	r1, r0, r4, ror #18

080030dc <LF_REPEA>:
 80030dc:	080030d0 	stmdaeq	r0, {r4, r6, r7, ip, sp}

080030e0 <_REPEA>:
 80030e0:	504552c6 	subpl	r5, r5, r6, asr #5
 80030e4:	00544145 	subseq	r4, r4, r5, asr #2

080030e8 <CA_REPEA>:
 80030e8:	20001988 	andcs	r1, r0, r8, lsl #19

080030ec <LF_THENN>:
 80030ec:	080030e0 	stmdaeq	r0, {r5, r6, r7, ip, sp}

080030f0 <_THENN>:
 80030f0:	454854c4 	strbmi	r5, [r8, #-1220]	; 0xfffffb3c
 80030f4:	0000004e 	andeq	r0, r0, lr, asr #32

080030f8 <CA_THENN>:
 80030f8:	200019a0 	andcs	r1, r0, r0, lsr #19

080030fc <LF_AFT>:
 80030fc:	080030f0 	stmdaeq	r0, {r4, r5, r6, r7, ip, sp}

08003100 <_AFT>:
 8003100:	544641c3 	strbpl	r4, [r6], #-451	; 0xfffffe3d

08003104 <CA_AFT>:
 8003104:	200019b4 			; <UNDEFINED> instruction: 0x200019b4

08003108 <LF_ELSEE>:
 8003108:	08003100 	stmdaeq	r0, {r8, ip, sp}

0800310c <_ELSEE>:
 800310c:	534c45c4 	movtpl	r4, #50628	; 0xc5c4
 8003110:	00000045 	andeq	r0, r0, r5, asr #32

08003114 <CA_ELSEE>:
 8003114:	200019cc 	andcs	r1, r0, ip, asr #19

08003118 <LF_WHILE>:
 8003118:	0800310c 	stmdaeq	r0, {r2, r3, r8, ip, sp}

0800311c <_WHILE>:
 800311c:	494857c5 	stmdbmi	r8, {r0, r2, r6, r7, r8, r9, sl, ip, lr}^
 8003120:	0000454c 	andeq	r4, r0, ip, asr #10

08003124 <CA_WHILE>:
 8003124:	200019e0 	andcs	r1, r0, r0, ror #19

08003128 <LF_ABRTQ>:
 8003128:	0800311c 	stmdaeq	r0, {r2, r3, r4, r8, ip, sp}

0800312c <_ABRTQ>:
 800312c:	4f424186 	svcmi	0x00424186
 8003130:	00225452 	eoreq	r5, r2, r2, asr r4

08003134 <CA_ABRTQ>:
 8003134:	200019f0 	strdcs	r1, [r0], -r0

08003138 <LF_STRQ>:
 8003138:	0800312c 	stmdaeq	r0, {r2, r3, r5, r8, ip, sp}

0800313c <_STRQ>:
 800313c:	00222482 	eoreq	r2, r2, r2, lsl #9

08003140 <CA_STRQ>:
 8003140:	20001a04 	andcs	r1, r0, r4, lsl #20

08003144 <LF_DOTQ>:
 8003144:	0800313c 	stmdaeq	r0, {r2, r3, r4, r5, r8, ip, sp}

08003148 <_DOTQ>:
 8003148:	00222ec2 	eoreq	r2, r2, r2, asr #29

0800314c <CA_DOTQ>:
 800314c:	20001a18 	andcs	r1, r0, r8, lsl sl

08003150 <LF_UNIQU>:
 8003150:	08003148 	stmdaeq	r0, {r3, r6, r8, ip, sp}

08003154 <_UNIQU>:
 8003154:	4e553f07 	cdpmi	15, 5, cr3, cr5, cr7, {0}
 8003158:	45555149 	ldrbmi	r5, [r5, #-329]	; 0xfffffeb7

0800315c <CA_UNIQU>:
 800315c:	20001a2c 	andcs	r1, r0, ip, lsr #20

08003160 <LF_SCOMP>:
 8003160:	08003154 	stmdaeq	r0, {r2, r4, r6, r8, ip, sp}

08003164 <_SCOMP>:
 8003164:	4f432407 	svcmi	0x00432407
 8003168:	4c49504d 	mcrrmi	0, 4, r5, r9, cr13
 800316c:	00000045 	andeq	r0, r0, r5, asr #32

08003170 <CA_SCOMP>:
 8003170:	20001ab8 			; <UNDEFINED> instruction: 0x20001ab8

08003174 <LF_OVERT>:
 8003174:	08003164 	stmdaeq	r0, {r2, r5, r6, r8, ip, sp}

08003178 <_OVERT>:
 8003178:	45564f05 	ldrbmi	r4, [r6, #-3845]	; 0xfffff0fb
 800317c:	00005452 	andeq	r5, r0, r2, asr r4

08003180 <CA_OVERT>:
 8003180:	20001b3c 	andcs	r1, r0, ip, lsr fp

08003184 <LF_SEMIS>:
 8003184:	08003178 	stmdaeq	r0, {r3, r4, r5, r6, r8, ip, sp}

08003188 <_SEMIS>:
 8003188:	00003bc1 	andeq	r3, r0, r1, asr #23

0800318c <CA_SEMIS>:
 800318c:	20001b54 	andcs	r1, r0, r4, asr fp

08003190 <LF_RBRAC>:
 8003190:	08003188 	stmdaeq	r0, {r3, r7, r8, ip, sp}

08003194 <_RBRAC>:
 8003194:	00005d01 	andeq	r5, r0, r1, lsl #26

08003198 <CA_RBRAC>:
 8003198:	20001b70 	andcs	r1, r0, r0, ror fp

0800319c <LF_COLON>:
 800319c:	08003194 	stmdaeq	r0, {r2, r4, r7, r8, ip, sp}

080031a0 <_COLON>:
 80031a0:	00003a01 	andeq	r3, r0, r1, lsl #20

080031a4 <CA_COLON>:
 80031a4:	20001bec 	andcs	r1, r0, ip, ror #23

080031a8 <LF_IMMED>:
 80031a8:	080031a0 	stmdaeq	r0, {r5, r7, r8, ip, sp}

080031ac <_IMMED>:
 80031ac:	4d4d4909 	vstrmi.16	s9, [sp, #-18]	; 0xffffffee	; <UNPREDICTABLE>
 80031b0:	41494445 	cmpmi	r9, r5, asr #8
 80031b4:	00004554 	andeq	r4, r0, r4, asr r5

080031b8 <CA_IMMED>:
 80031b8:	20001bfc 	strdcs	r1, [r0], -ip

080031bc <LF_ICOLON>:
 80031bc:	080031ac 	stmdaeq	r0, {r2, r3, r5, r7, r8, ip, sp}

080031c0 <_ICOLON>:
 80031c0:	003a4902 	eorseq	r4, sl, r2, lsl #18

080031c4 <CA_ICOLON>:
 80031c4:	20001c28 	andcs	r1, r0, r8, lsr #24

080031c8 <LF_ISEMIS>:
 80031c8:	080031c0 	stmdaeq	r0, {r6, r7, r8, ip, sp}

080031cc <_ISEMIS>:
 80031cc:	003b49c2 	eorseq	r4, fp, r2, asr #19

080031d0 <CA_ISEMIS>:
 80031d0:	20001c44 	andcs	r1, r0, r4, asr #24

080031d4 <LF_HEAD>:
 80031d4:	080031cc 	stmdaeq	r0, {r2, r3, r6, r7, r8, ip, sp}

080031d8 <_HEAD>:
 80031d8:	41454806 	cmpmi	r5, r6, lsl #16
 80031dc:	00524544 	subseq	r4, r2, r4, asr #10

080031e0 <CA_HEAD>:
 80031e0:	20001c68 	andcs	r1, r0, r8, ror #24

080031e4 <LF_CONST>:
 80031e4:	080031d8 	stmdaeq	r0, {r3, r4, r6, r7, r8, ip, sp}

080031e8 <_CONST>:
 80031e8:	4e4f4308 	cdpmi	3, 4, cr4, cr15, cr8, {0}
 80031ec:	4e415453 	mcrmi	4, 2, r5, cr1, cr3, {2}
 80031f0:	00000054 	andeq	r0, r0, r4, asr r0

080031f4 <CA_CONST>:
 80031f4:	20001c90 	mulcs	r0, r0, ip

080031f8 <LF_DOES>:
 80031f8:	080031e8 	stmdaeq	r0, {r3, r5, r6, r7, r8, ip, sp}

080031fc <_DOES>:
 80031fc:	454f44c5 	strbmi	r4, [pc, #-1221]	; 8002d3f <_DIGTQ+0x7>
 8003200:	00003e53 	andeq	r3, r0, r3, asr lr

08003204 <CA_DOES>:
 8003204:	20001d0c 	andcs	r1, r0, ip, lsl #26

08003208 <LF_CREAT>:
 8003208:	080031fc 	stmdaeq	r0, {r2, r3, r4, r5, r6, r7, r8, ip, sp}

0800320c <_CREAT>:
 800320c:	45524306 	ldrbmi	r4, [r2, #-774]	; 0xfffffcfa
 8003210:	00455441 	subeq	r5, r5, r1, asr #8

08003214 <CA_CREAT>:
 8003214:	20001d38 	andcs	r1, r0, r8, lsr sp

08003218 <LF_VARIA>:
 8003218:	0800320c 	stmdaeq	r0, {r2, r3, r9, ip, sp}

0800321c <_VARIA>:
 800321c:	52415608 	subpl	r5, r1, #8, 12	; 0x800000
 8003220:	4c424149 	stfmie	f4, [r2], {73}	; 0x49
 8003224:	00000045 	andeq	r0, r0, r5, asr #32

08003228 <CA_VARIA>:
 8003228:	20001d50 	andcs	r1, r0, r0, asr sp

0800322c <LF_FCALL>:
 800322c:	0800321c 	stmdaeq	r0, {r2, r3, r4, r9, ip, sp}

08003230 <_FCALL>:
 8003230:	41434605 	cmpmi	r3, r5, lsl #12
 8003234:	00004c4c 	andeq	r4, r0, ip, asr #24

08003238 <CA_FCALL>:
 8003238:	20001d6c 	andcs	r1, r0, ip, ror #26

0800323c <LF_DEFER>:
 800323c:	08003230 	stmdaeq	r0, {r4, r5, r9, ip, sp}

08003240 <_DEFER>:
 8003240:	46454405 	strbmi	r4, [r5], -r5, lsl #8
 8003244:	00005245 	andeq	r5, r0, r5, asr #4

08003248 <CA_DEFER>:
 8003248:	20001d80 	andcs	r1, r0, r0, lsl #27

0800324c <LF_DEFERSTO>:
 800324c:	08003240 	stmdaeq	r0, {r6, r9, ip, sp}

08003250 <_DEFERSTO>:
 8003250:	46454406 	strbmi	r4, [r5], -r6, lsl #8
 8003254:	00215245 	eoreq	r5, r1, r5, asr #4

08003258 <CA_DEFERSTO>:
 8003258:	20001da8 	andcs	r1, r0, r8, lsr #27

0800325c <LF_DEFERAT>:
 800325c:	08003250 	stmdaeq	r0, {r4, r6, r9, ip, sp}

08003260 <_DEFERAT>:
 8003260:	46454406 	strbmi	r4, [r5], -r6, lsl #8
 8003264:	00405245 	subeq	r5, r0, r5, asr #4

08003268 <CA_DEFERAT>:
 8003268:	20001dd8 	ldrdcs	r1, [r0], -r8

0800326c <LF_DUMP>:
 800326c:	08003260 	stmdaeq	r0, {r5, r6, r9, ip, sp}

08003270 <_DUMP>:
 8003270:	4d554404 	cfldrdmi	mvd4, [r5, #-16]
 8003274:	00000050 	andeq	r0, r0, r0, asr r0

08003278 <CA_DUMP>:
 8003278:	20001e14 	andcs	r1, r0, r4, lsl lr

0800327c <LF_DOTS>:
 800327c:	08003270 	stmdaeq	r0, {r4, r5, r6, r9, ip, sp}

08003280 <_DOTS>:
 8003280:	00532e02 	subseq	r2, r3, r2, lsl #28

08003284 <CA_DOTS>:
 8003284:	20001e28 	andcs	r1, r0, r8, lsr #28

08003288 <LF_TNAME>:
 8003288:	08003280 	stmdaeq	r0, {r7, r9, ip, sp}

0800328c <_TNAME>:
 800328c:	414e3e05 	cmpmi	lr, r5, lsl #28
 8003290:	0000454d 	andeq	r4, r0, sp, asr #10

08003294 <CA_TNAME>:
 8003294:	20001e3c 	andcs	r1, r0, ip, lsr lr

08003298 <LF_DOTID>:
 8003298:	0800328c 	stmdaeq	r0, {r2, r3, r7, r9, ip, sp}

0800329c <_DOTID>:
 800329c:	44492e03 	strbmi	r2, [r9], #-3587	; 0xfffff1fd

080032a0 <CA_DOTID>:
 80032a0:	20001e50 	andcs	r1, r0, r0, asr lr

080032a4 <LF_SEE>:
 80032a4:	0800329c 	stmdaeq	r0, {r2, r3, r4, r7, r9, ip, sp}

080032a8 <_SEE>:
 80032a8:	45455303 	strbmi	r5, [r5, #-771]	; 0xfffffcfd

080032ac <CA_SEE>:
 80032ac:	20001e64 	andcs	r1, r0, r4, ror #28

080032b0 <LF_SCOL>:
 80032b0:	080032a8 	stmdaeq	r0, {r3, r5, r7, r9, ip, sp}

080032b4 <_SCOL>:
 80032b4:	45455308 	strbmi	r5, [r5, #-776]	; 0xfffffcf8
 80032b8:	4f4c4f43 	svcmi	0x004c4f43
 80032bc:	0000004e 	andeq	r0, r0, lr, asr #32

080032c0 <CA_SCOL>:
 80032c0:	20001e78 	andcs	r1, r0, r8, ror lr

080032c4 <LF_DECOMP>:
 80032c4:	080032b4 	stmdaeq	r0, {r2, r4, r5, r7, r9, ip, sp}

080032c8 <_DECOMP>:
 80032c8:	43454409 	movtmi	r4, #21513	; 0x5409
 80032cc:	49504d4f 	ldmdbmi	r0, {r0, r1, r2, r3, r6, r8, sl, fp, lr}^
 80032d0:	0000454c 	andeq	r4, r0, ip, asr #10

080032d4 <CA_DECOMP>:
 80032d4:	20001e8c 	andcs	r1, r0, ip, lsl #29

080032d8 <LF_WORDS>:
 80032d8:	080032c8 	stmdaeq	r0, {r3, r6, r7, r9, ip, sp}

080032dc <_WORDS>:
 80032dc:	524f5705 	subpl	r5, pc, #1310720	; 0x140000
 80032e0:	00005344 	andeq	r5, r0, r4, asr #6

080032e4 <CA_WORDS>:
 80032e4:	20001ea0 	andcs	r1, r0, r0, lsr #29

080032e8 <LF_HI>:
 80032e8:	080032dc 	stmdaeq	r0, {r2, r3, r4, r6, r7, r9, ip, sp}

080032ec <_HI>:
 80032ec:	00494802 	subeq	r4, r9, r2, lsl #16

080032f0 <CA_HI>:
 80032f0:	20001ec4 	andcs	r1, r0, r4, asr #29

080032f4 <LF_LASTN>:
 80032f4:	080032ec 	stmdaeq	r0, {r2, r3, r5, r6, r7, r9, ip, sp}

080032f8 <_LASTN>:
 80032f8:	4c4f4304 	mcrrmi	3, 0, r4, pc, cr4
 80032fc:	00000044 	andeq	r0, r0, r4, asr #32

08003300 <CA_LASTN>:
 8003300:	20001f20 	andcs	r1, r0, r0, lsr #30

Disassembly of section .user:

08003800 <USER_SPACE>:
 8003800:	ffffffff 			; <UNDEFINED> instruction: 0xffffffff
